ccopy_reg
_reconstructor
p1
(cmarkov
MarkovCorpus
p2
c__builtin__
list
p3
(lp4
(dp5
(t(dp6
S':-'
p7
I1
sS'all'
p8
I4
sS'invent'
p9
I1
sS'go'
p10
I1
sS' '
I28
sS'praises'
p11
I1
sS'father'
p12
I1
sS'young'
p13
I1
sS'answered'
p14
I1
sS'neighbours'
p15
I1
sS'does'
p16
I1
sS'those'
p17
I1
sS'under'
p18
I1
sS'Not'
p19
I1
sS'lord'
p20
I1
sS'sound'
p21
I1
sS'worse'
p22
I1
sS'advantage'
p23
I1
sS'very'
p24
I2
sS'rise'
p25
I1
sS'Socrates'
p26
I8
sS'word'
p27
I1
sS'and'
p28
I56
sS'did'
p29
I3
sS'die'
p30
I1
sS'conceive'
p31
I2
sS'still'
p32
I1
sS'says'
p33
I2
sS'consists'
p34
I1
sS'honourable'
p35
I1
sS'makers'
p36
I1
sS'drinks'
p37
I2
sS'what'
p38
I9
sS'appear'
p39
I1
sS'suspect'
p40
I1
sS';'
I23
sS'ever'
p41
I1
sS'told'
p42
I1
sS'led'
p43
I1
sS'notions'
p44
I1
sS'men'
p45
I3
sS'pursuit'
p46
I1
sS'Gorgias'
p47
I7
sS'opinion'
p48
I1
sS'When'
p49
I1
sS'ask'
p50
I1
sS'wit'
p51
I1
sS'ironical'
p52
I1
sS'conventional'
p53
I1
sS'from'
p54
I3
sS'would'
p55
I9
sS'to'
p56
I41
sS'live'
p57
I1
sS'doubt'
p58
I1
sS'therefore'
p59
I2
sS'themselves'
p60
I1
sS'more'
p61
I9
sS'sort'
p62
I2
sS'shine'
p63
I1
sS'assailed'
p64
I1
sS'riot'
p65
I1
sS'charming'
p66
I1
sS'ashamed'
p67
I1
sS'excellent'
p68
I1
sS'glad'
p69
I1
sS'must'
p70
I1
sS'me'
p71
I4
sS'animals'
p72
I1
sS'this'
p73
I6
sS'pretend'
p74
I1
sS'learn'
p75
I1
sS'my'
p76
I2
sS'deservedly'
p77
I1
sS'weaker'
p78
I1
sS'want'
p79
I1
sS'ingenuity'
p80
I1
sS'unjust'
p81
I2
sS'in'
p82
I20
sS'slip'
p83
I2
sS'discussion'
p84
I1
sS'hot'
p85
I1
sS'answer'
p86
I2
sS'Why'
p87
I1
sS'staying'
p88
I1
sS'charms'
p89
I1
sS'may'
p90
I1
sS'hence'
p91
I1
sS'modest'
p92
I2
sS'mankind'
p93
I1
sS'law'
p94
I2
sS'fray'
p95
I1
sS'man'
p96
I5
sS'a'
I13
sS'natural'
p97
I3
sS'light'
p98
I1
sS'assuredly'
p99
I1
sS'upside'
p100
I1
sS'order'
p101
I1
sS'talk'
p102
I1
sS'replied'
p103
I1
sS'What'
p104
I2
sS'help'
p105
I1
sS'indeed'
p106
I3
sS'over'
p107
I3
sS'already'
p108
I1
sS'through'
p109
I1
sS'shake'
p110
I1
sS'suffer'
p111
I2
sS'before'
p112
I1
sS'superior'
p113
I2
sS','
I103
sS'late'
p114
I1
sS'rabble'
p115
I1
sS'might'
p116
I1
sS'then'
p117
I2
sS'them'
p118
I6
sS'greater'
p119
I2
sS'thereby'
p120
I1
sS'nonsense'
p121
I2
sS'break'
p122
I1
sS'compelled'
p123
I2
sS'shameful'
p124
I2
sS'they'
p125
I7
sS'not'
p126
I12
sS'now'
p127
I4
sS'day'
p128
I1
sS'rhetoric'
p129
I1
sS'equality'
p130
I2
sS'feast'
p131
I2
sS'delightful'
p132
I1
sS'stopped'
p133
I1
sS'trap'
p134
I1
sS'truth'
p135
I2
sS'mean'
p136
I4
sS'doing'
p137
I3
sS'house'
p138
I2
sS'catching'
p139
I1
sS'displeased'
p140
I1
sS'terrify'
p141
I1
sS'sentiment'
p142
I1
sS'Very'
p143
I1
sS'since'
p144
I1
sS'fellows'
p145
I1
sS'content'
p146
I1
sS'Whereupon'
p147
I1
sS'forth'
p148
I1
sS'shows'
p149
I1
sS'This'
p150
I1
sS'inferiority'
p151
I1
sS'reason'
p152
I1
sS'imagine'
p153
I1
sS'put'
p154
I1
sS'teach'
p155
I1
sS'wanted'
p156
I1
sS'impose'
p157
I1
sS'thing'
p158
I1
sS'consequence'
p159
I1
sS'fallen'
p160
I2
sS'think'
p161
I1
sS'wronged'
p162
I1
sS'There'
p163
I1
sS'powerful'
p164
I1
sS'one'
p165
I3
sS'another'
p166
I1
sS'force'
p167
I1
sS'tame'
p168
I1
sS'"'
I1
sS'together'
p169
I1
sS'vulgar'
p170
I1
sS'their'
p171
I5
sS'too'
p172
I3
sS'aver'
p173
I1
sS'speaking'
p174
I2
sS'interests'
p175
I1
sS'that'
p176
I25
sS'part'
p177
I2
sS'herself'
p178
I1
sS'than'
p179
I8
sS'wiser'
p180
I2
sS'Come'
p181
I1
sS'youth'
p182
I1
sS'matter'
p183
I1
sS'appealing'
p184
I1
sS'determined'
p185
I1
sS'were'
p186
I1
sS'exhibit'
p187
I1
sS'turned'
p188
I1
sS'argument'
p189
I1
sS'talking'
p190
I2
sS'say'
p191
I8
sS'have'
p192
I6
sS'seem'
p193
I1
sS'any'
p194
I3
sS'strength'
p195
I1
sS'able'
p196
I1
sS'majority'
p197
I1
sS'take'
p198
I2
sS'which'
p199
I7
sS'laughed'
p200
I1
sS'so'
p201
I2
sS'formulas'
p202
I1
sS'opposite'
p203
I1
sS'arguing'
p204
I1
sS'who'
p205
I9
sS'regular'
p206
I1
sS'mouth'
p207
I1
sS'conceded'
p208
I1
sS'nothing'
p209
I1
sS'proverb'
p210
I1
sS'The'
p211
I2
sS'Chaerephon'
p212
I3
sS'numberless'
p213
I1
sS'stronger'
p214
I1
sS'perceiving'
p215
I1
sS'principle'
p216
I1
sS'slaves'
p217
I1
sS'came'
p218
I1
sS'laws'
p219
I4
sS'saying'
p220
I3
sS'modesty'
p221
I1
sS'fine'
p222
I1
sS'pleased'
p223
I1
sS'justice'
p224
I6
sS'('
I1
sS'should'
p225
I1
sS'only'
p226
I3
sS'inferior'
p227
I2
sS'do'
p228
I5
sS'his'
p229
I8
sS'dishonourable'
p230
I2
sS'get'
p231
I3
sS'cannot'
p232
I1
sS'words'
p233
I1
sS'him'
p234
I6
sS'exhibiting'
p235
I1
sS'she'
p236
I1
sS'view'
p237
I2
sS'declaiming'
p238
I1
sS'human'
p239
I1
sS'For'
p240
I4
sS'see'
p241
I1
sS'accused'
p242
I1
sS'are'
p243
I19
sS'discussions'
p244
I1
sS'best'
p245
I1
sS'verba'
p246
I1
sS'said'
p247
I2
sS'ways'
p248
I1
sS'away'
p249
I1
sS'artificial'
p250
I1
sS'unable'
p251
I1
sS'injustice'
p252
I6
sS'knowing'
p253
I1
sS'we'
p254
I4
sS'never'
p255
I1
sS'Polus'
p256
I3
sS'Xerxes'
p257
I1
sS'nature'
p258
I9
sS'weak'
p259
I1
sS'cities'
p260
I1
sS'many'
p261
I5
sS'according'
p262
I3
sS'against'
p263
I1
sS'variance'
p264
I1
sS'Yes'
p265
I7
sS'whole'
p266
I2
sS'asked'
p267
I1
sS'among'
p268
I3
sS'Certainly'
p269
I3
sS'point'
p270
I1
sS').'
p271
I1
sS'speak'
p272
I1
sS'better'
p273
I7
sS'cares'
p274
I1
sS'been'
p275
I2
sS'.'
I35
sS'whom'
p276
I2
sS'much'
p277
I2
sS'life'
p278
I1
sS'with'
p279
I5
sS'sufficient'
p280
I1
sS'-'
I4
sS'races'
p281
I1
sS'present'
p282
I1
sS'And'
p283
I3
sS'slyly'
p284
I1
sS'these'
p285
I1
sS'will'
p286
I2
sS'error'
p287
I1
sS'voice'
p288
I1
sS'physicians'
p289
I1
sS'is'
p290
I32
sS'engaged'
p291
I1
sS'it'
p292
I1
sS'equal'
p293
I1
sS'jest'
p294
I1
sS'Convention'
p295
I1
sS'You'
p296
I2
sS'Nay'
p297
I1
sS'Tell'
p298
I2
sS'if'
p299
I8
sS'perhaps'
p300
I2
sS'things'
p301
I1
sS'make'
p302
I1
sS'same'
p303
I3
sS'rebellion'
p304
I1
sS'when'
p305
I4
sS'slave'
p306
I2
sS'I'
I20
sS'upon'
p307
I2
sS'evil'
p308
I2
sS'delight'
p309
I1
sS'running'
p310
I1
sS'";'
p311
I1
sS'censures'
p312
I1
sS'off'
p313
I1
sS'well'
p314
I1
sS'thought'
p315
I2
sS'person'
p316
I1
sS'the'
p317
I60
sS'entangled'
p318
I1
sS'endeavour'
p319
I1
sS'just'
p320
I5
sS'being'
p321
I2
sS'gods'
p322
I2
sS'distribute'
p323
I1
sS'discoursing'
p324
I1
sS'foot'
p325
I1
sS'cease'
p326
I1
sS'questions'
p327
I1
sS'yes'
p328
I1
sS'dishonesty'
p329
I1
sS'spells'
p330
I1
sS'instance'
p331
I1
sS'admission'
p332
I2
sS'had'
p333
I3
sS'except'
p334
I1
sS'trampled'
p335
I1
sS'exhibition'
p336
I1
sS'has'
p337
I3
sS'By'
p338
I2
sS'ought'
p339
I1
sS'unequivocally'
p340
I1
sS'earnest'
p341
I3
sS'suffering'
p342
I2
sS'know'
p343
I1
sS'intimates'
p344
I1
sS'desire'
p345
I1
sS'like'
p346
I2
sS'contradict'
p347
I2
sS'Hellas'
p348
I1
sS'popular'
p349
I1
sS'meats'
p350
I2
sS'because'
p351
I4
sS'joking'
p352
I1
sS'some'
p353
I2
sS'strongest'
p354
I1
sS'examples'
p355
I1
sS'escape'
p356
I1
sS'thinks'
p357
I1
sS'for'
p358
I13
sS'ipsissima'
p359
I1
sS'shall'
p360
I2
sS'everything'
p361
I1
sS'asking'
p362
I1
sS'invade'
p363
I1
sS'?'
I9
sS'be'
p364
I13
sS'Heaven'
p365
I1
sS'poem'
p366
I1
sS'use'
p367
I1
sS'O'
I1
sS'although'
p368
I1
sS'by'
p369
I7
sS'gained'
p370
I1
sS'on'
p371
I2
sS'about'
p372
I3
sS'of'
p373
I37
sS'act'
p374
I1
sS'or'
p375
I4
sS'own'
p376
I2
sS'No'
p377
I1
sS'into'
p378
I3
sS'delighted'
p379
I1
sS'down'
p380
I1
sS'right'
p381
I1
sS'But'
p382
I1
sS'your'
p383
I3
sS'verbal'
p384
I1
sS'Most'
p385
I1
sS'there'
p386
I1
sS'question'
p387
I2
sS'custom'
p388
I1
sS'lions'
p389
I1
sS'way'
p390
I1
sS':'
I6
sS'was'
p391
I8
sS'himself'
p392
I5
sS'but'
p393
I6
sS'hear'
p394
I1
sS'true'
p395
I2
sS'he'
p396
I24
sS'wise'
p397
I1
sS'Scythians'
p398
I1
sS'whether'
p399
I2
sS'us'
p400
I2
sS'ruling'
p401
I1
sS'called'
p402
I1
sS'disgrace'
p403
I1
sS'declaimer'
p404
I1
sS'am'
p405
I1
sS'general'
p406
I1
sS'as'
p407
I7
sS'at'
p408
I4
sS'our'
p409
I3
sS'chuckling'
p410
I1
sS'physical'
p411
I1
sS'no'
p412
I1
sS'whereas'
p413
I1
sS'generally'
p414
I1
sS'trample'
p415
I1
sS'other'
p416
I3
sS'you'
p417
I22
sS'disgraceful'
p418
I1
sS'conventionally'
p419
I4
sS'meaning'
p420
I2
sS'upwards'
p421
I1
sS'age'
p422
I1
sS'nondescripts'
p423
I1
sS'rule'
p424
I4
sS'Pindar'
p425
I1
sS'At'
p426
I1
sS'having'
p427
I1
ssa(dp428
(g408
tp429
(dp430
S'many'
p431
I1
sS'you'
p432
I1
sg233
I1
sg264
I1
ss(g350
tp433
(dp434
S'and'
p435
I2
ss(g90
tp436
(dp437
S'not'
p438
I1
ss(g235
tp439
(dp440
g56
I1
ss(g286
tp441
(dp442
g255
I1
sS'.'
I1
ss(g163
tp443
(dp444
S'is'
p445
I1
ss(g292
tp446
(dp447
S'is'
p448
I1
ss(g10
tp449
(dp450
g371
I1
ss(g16
tp451
(dp452
g26
I1
ss(g210
tp453
(dp454
g33
I1
ss(g59
tp455
(dp456
S'the'
p457
I1
sg299
I1
ss(g325
tp458
(dp459
S'all'
p460
I1
ss(g127
tp461
(dp462
S'to'
p463
I1
sS'you'
p464
I1
sS','
I1
sS'he'
p465
I1
ss(g200
tp466
(dp467
S'at'
p468
I1
ss(g43
tp469
(dp470
S'to'
p471
I1
ss(g396
tp472
(dp473
g247
I1
sS'says'
p474
I1
sg55
I5
sg352
I1
sg360
I1
sS'is'
p475
I4
sg274
I1
sg333
I1
sg315
I2
sg14
I1
sg242
I1
sg208
I1
sS'has'
p476
I1
sg391
I2
sg357
I1
ss(g71
tp477
(dp478
S'to'
p479
I1
sS','
I3
ss(g294
tp480
(dp481
S'?'
I1
ss(S' '
tp482
(dp483
g87
I1
sg104
I2
sg385
I1
sS'I'
I2
sg163
I1
sg150
I1
sg269
I3
sS'O'
I1
sg298
I1
sg143
I1
sg19
I1
sg265
I7
sg211
I1
sg181
I1
sg338
I2
sg296
I2
ss(g130
tp484
(dp485
S'they'
p486
I1
sS'.'
I1
ss(g183
tp487
(dp488
S','
I1
ss(g49
tp489
(dp490
S'Polus'
p491
I1
ss(g412
tp492
(dp493
g367
I1
ss(g236
tp494
(dp495
g149
I1
ss(g103
tp496
(dp497
S'that'
p498
I1
ss(g390
tp499
(dp500
g351
I1
ss(g374
tp501
(dp502
g262
I1
ss(g279
tp503
(dp504
g71
I1
sS'a'
I1
sS'the'
p505
I1
sS'equality'
p506
I1
sS'one'
p507
I1
ss(g229
tp508
(dp509
g366
I1
sg221
I1
sS'being'
p510
I1
sg12
I1
sg15
I1
sg51
I1
sg207
I1
sg336
I1
ss(g299
tp511
(dp512
S'a'
I2
sS'you'
p513
I2
sg386
I1
sg353
I1
sS'he'
p514
I2
ss(g420
tp515
(dp516
S','
I2
ss(g275
tp517
(dp518
g235
I1
sg282
I1
ss(g52
tp519
(dp520
S'.'
I1
ss(g14
tp521
(dp522
S'"'
I1
ss(g343
tp523
(dp524
g224
I1
ss(g106
tp525
(dp526
S'to'
p527
I1
sS'had'
p528
I1
sS'among'
p529
I1
ss(g379
tp530
(dp531
g112
I1
ss(S'O'
tp532
(dp533
S'Socrates'
p534
I1
ss(g62
tp535
(dp536
S'of'
p537
I2
ss(g135
tp538
(dp539
S'is'
p540
I1
sS','
I1
ss(S'\x00'
tp541
(dp542
S'\x00'
I112
ss(g362
tp543
(dp544
g234
I1
ss(g136
tp545
(dp546
S'better'
p547
I1
sS'the'
p548
I2
sS','
I1
ss(g205
tp549
(dp550
S'indeed'
p551
I1
sS'is'
p552
I1
sg74
I1
sS'had'
p553
I1
sS'are'
p554
I3
sg374
I1
sg156
I1
ss(g415
tp555
(dp556
g18
I1
ss(g111
tp557
(dp558
g252
I2
ss(g39
tp559
(dp560
S','
I1
ss(g33
tp561
(dp562
S','
I1
sS'in'
p563
I1
ss(g302
tp564
(dp565
S'laws'
p566
I1
ss(g22
tp567
(dp568
S','
I1
ss(g207
tp569
(dp570
g133
I1
ss(g265
tp571
(dp572
S';'
I3
sS','
I1
sS'.'
I3
ss(g125
tp573
(dp574
g90
I1
sS','
I1
sS'say'
p575
I1
sS'are'
p576
I2
sS':'
I1
sg70
I1
ss(g271
tp577
(dp578
g297
I1
ss(g338
tp579
(dp580
S'the'
p581
I2
ss(g102
tp582
(dp583
S'about'
p584
I1
ss(g42
tp585
(dp586
S'you'
p587
I1
ss(g323
tp588
(dp589
g11
I1
ss(g171
tp590
(dp591
g182
I1
sg359
I1
sg376
I2
sg411
I1
ss(g165
tp592
(dp593
g166
I1
sg218
I1
sg82
I1
ss(g50
tp594
(dp595
S'of'
p596
I1
ss(g278
tp597
(dp598
g188
I1
ss(g141
tp599
(dp600
S'the'
p601
I1
ss(g367
tp602
(dp603
g334
I1
ss(g407
tp604
(dp605
S'among'
p606
I1
sS'would'
p607
I1
sS'I'
I2
sg314
I1
sS','
I1
sg317
I1
ss(S','
tp608
(dp609
g28
I20
sg268
I1
sS'because'
p610
I1
sS'when'
p611
I1
sg290
I5
sg407
I4
sg243
I3
sS'in'
p612
I2
sS'if'
p613
I2
sg212
I3
sS'for'
p614
I3
sg300
I1
sg302
I1
sS'get'
p615
I1
sS'-'
I1
sg413
I1
sS'to'
p616
I2
sS'which'
p617
I2
sS'you'
p618
I4
sg117
I1
sg176
I9
sS'I'
I3
sS'who'
p619
I3
sg393
I4
sS'Socrates'
p620
I5
sg368
I1
sS'by'
p621
I2
sS'he'
p622
I5
sg284
I1
sS'Gorgias'
p623
I2
sS'whether'
p624
I1
sS'of'
p625
I1
sS'according'
p626
I1
sS'the'
p627
I2
sg375
I4
ss(g326
tp628
(dp629
S'talking'
p630
I1
ss(g93
tp631
(dp632
S'in'
p633
I1
ss(g372
tp634
(dp635
S'doing'
p636
I1
sg276
I1
sg350
I1
ss(g227
tp637
(dp638
S'.'
I2
ss(g27
tp639
(dp640
S'injustice'
p641
I1
ss(g290
tp642
(dp643
g162
I1
sS'just'
p644
I1
sg209
I1
sS'your'
p645
I1
sS'what'
p646
I4
sS','
I1
sg114
I1
sS'to'
p647
I1
sg85
I1
sg251
I1
sS'too'
p648
I1
sg61
I1
sg88
I1
sS'conventionally'
p649
I1
sS'that'
p650
I1
sg204
I1
sS'Socrates'
p651
I1
sS'compelled'
p652
I1
sg124
I1
sS'not'
p653
I1
sg395
I1
sS'he'
p654
I1
sS'a'
I1
sg190
I1
sS'the'
p655
I4
sg402
I1
ss(g213
tp656
(dp657
S'other'
p658
I1
ss(g57
tp659
(dp660
S';'
I1
ss(g126
tp661
(dp662
g97
I1
sS'for'
p663
I1
sS'get'
p664
I1
sg137
I1
sS','
I1
sS'to'
p665
I1
sg241
I1
sg343
I1
sg67
I1
sS'the'
p666
I1
sS'speaking'
p667
I1
sg42
I1
ss(g395
tp668
(dp669
S','
I1
sS'.'
I1
ss(g248
tp670
(dp671
g236
I1
ss(g95
tp672
(dp673
S','
I1
ss(g37
tp674
(dp675
S'and'
p676
I1
sS'.'
I1
ss(g240
tp677
(dp678
S'on'
p679
I1
sS'the'
p680
I2
sS'if'
p681
I1
ss(g231
tp682
(dp683
S'the'
p684
I2
sg169
I1
ss(g152
tp685
(dp686
S','
I1
ss(g356
tp687
(dp688
S'from'
p689
I1
ss(g398
tp690
(dp691
S'?'
I1
ss(g315
tp692
(dp693
S','
I1
sS'that'
p694
I1
ss(g308
tp695
(dp696
S';'
I1
sS'is'
p697
I1
ss(g79
tp698
(dp699
S'to'
p700
I1
ss(g156
tp701
(dp702
S'to'
p703
I1
ss(g18
tp704
(dp705
g325
I1
ss(g78
tp706
(dp707
S';'
I1
ss(g64
tp708
(dp709
S'him'
p710
I1
ss(g421
tp711
(dp712
S','
I1
ss(g341
tp713
(dp714
S','
I3
ss(g115
tp715
(dp716
S'of'
p717
I1
ss(g400
tp718
(dp719
g261
I1
sS','
I1
ss(S'a'
tp720
(dp721
g306
I1
sg206
I1
sS'question'
p722
I1
sg131
I1
sg316
I1
sg132
I1
sg177
I1
sg115
I1
sS'view'
p723
I1
sg95
I1
sS'man'
p724
I3
ss(g391
tp725
(dp726
g220
I2
sg123
I1
sg172
I1
sS'the'
p727
I1
sg41
I1
sg267
I1
sg174
I1
ss(g375
tp728
(dp729
S'is'
p730
I1
sS'his'
p731
I1
sS'only'
p732
I1
sS'any'
p733
I1
ss(S'"'
tp734
(dp735
g377
I1
ss(g378
tp736
(dp737
S'the'
p738
I2
sg76
I1
ss(g284
tp739
(dp740
g50
I1
ss(g9
tp741
(dp742
S'and'
p743
I1
ss(g117
tp744
(dp745
S';'
I1
sS'in'
p746
I1
ss(g269
tp747
(dp748
S'.'
I3
ss(g194
tp749
(dp750
g416
I1
sg387
I1
sg165
I1
ss(g98
tp751
(dp752
S'of'
p753
I1
ss(g403
tp754
(dp755
S'because'
p756
I1
ss(g112
tp757
(dp758
S','
I1
ss(g309
tp759
(dp760
S'.'
I1
ss(g320
tp761
(dp762
S'the'
p763
I1
sg127
I1
sS'for'
p764
I1
sg275
I1
sS'.'
I1
ss(g303
tp765
(dp766
S'.'
I1
sg134
I1
sg287
I1
ss(g20
tp767
(dp768
S'over'
p769
I1
ss(g67
tp770
(dp771
S'to'
p772
I1
ss(g204
tp773
(dp774
g419
I1
ss(g138
tp775
(dp776
g116
I1
sS','
I1
ss(g54
tp777
(dp778
S'their'
p779
I1
sS'the'
p780
I1
sS'all'
p781
I1
ss(g259
tp782
(dp783
S';'
I1
ss(g393
tp784
(dp785
S'conventionally'
p786
I1
sg285
I1
sS'of'
p787
I1
sS'only'
p788
I1
sg126
I1
sS'now'
p789
I1
ss(g172
tp790
(dp791
g92
I2
sg69
I1
ss(g369
tp792
(dp793
S'superior'
p794
I1
sS'you'
p795
I2
sg365
I1
sS'the'
p796
I3
ss(g285
tp797
(dp798
S'are'
p799
I1
ss(g162
tp800
(dp801
S'and'
p802
I1
ss(S'('
tp803
(dp804
S'not'
p805
I1
ss(g70
tp806
(dp807
S'be'
p808
I1
ss(g422
tp809
(dp810
S','
I1
ss(g113
tp811
(dp812
S'I'
I1
sg401
I1
ss(g41
tp813
(dp814
g201
I1
ss(g321
tp815
(dp816
g318
I1
sS'just'
p817
I1
ss(g247
tp818
(dp819
S'to'
p820
I1
sS'that'
p821
I1
ss(g174
tp822
(dp823
S'of'
p824
I2
ss(g25
tp825
(dp826
S'in'
p827
I1
ss(g164
tp828
(dp829
S'than'
p830
I1
ss(g226
tp831
(dp832
g53
I1
sS'just'
p833
I1
sS'in'
p834
I1
ss(g151
tp835
(dp836
S','
I1
ss(g211
tp837
(dp838
g152
I1
sg397
I1
ss(g411
tp839
(dp840
g195
I1
ss(g44
tp841
(dp842
S'of'
p843
I1
ss(g176
tp844
(dp845
S'the'
p846
I3
sS'\x00'
I1
sg321
I1
sS'with'
p847
I1
sS'is'
p848
I3
sg305
I1
sg292
I1
sg250
I1
sS'by'
p849
I1
sS'to'
p850
I1
sg93
I1
sS'they'
p851
I3
sS'justice'
p852
I1
sS'you'
p853
I1
sS'if'
p854
I1
sg329
I1
sg194
I1
sS'he'
p855
I2
ss(g92
tp856
(dp857
S'to'
p858
I2
ss(g159
tp859
(dp860
S'of'
p861
I1
ss(g385
tp862
(dp863
g99
I1
ss(g82
tp864
(dp865
S'his'
p866
I2
sS'which'
p867
I1
sg361
I1
sg73
I2
sS'many'
p868
I1
sg406
I1
sg341
I3
sg304
I1
sg294
I1
sg159
I1
sS'the'
p869
I3
sg101
I1
sS'my'
p870
I1
sg383
I1
ss(g363
tp871
(dp872
g348
I1
ss(g61
tp873
(dp874
g68
I1
sg164
I1
sg418
I1
sg230
I1
sS'than'
p875
I5
ss(g331
tp876
(dp877
S','
I1
ss(g184
tp878
(dp879
S'now'
p880
I1
ss(g327
tp881
(dp882
S'is'
p883
I1
ss(g328
tp884
(dp885
S','
I1
ss(g252
tp886
(dp887
S'is'
p888
I2
sS','
I3
sS'.'
I1
ss(g175
tp889
(dp890
S';'
I1
ss(g94
tp891
(dp892
S'of'
p893
I1
sS','
I1
ss(g181
tp894
(dp895
g378
I1
ss(g238
tp896
(dp897
S'in'
p898
I1
ss(g214
tp899
(dp900
S'sort'
p901
I1
ss(g80
tp902
(dp903
g215
I1
ss(g99
tp904
(dp905
S','
I1
ss(g48
tp906
(dp907
S'of'
p908
I1
ss(S'.'
tp909
(dp910
g283
I3
sS'\x00'
I21
sS'For'
p911
I3
sS'I'
I1
sg49
I1
sg382
I1
sg147
I1
sg426
I1
sg295
I1
sS'The'
p912
I1
sS'Tell'
p913
I1
ss(g318
tp914
(dp915
S'by'
p916
I1
ss(g116
tp917
(dp918
g154
I1
ss(g97
tp919
(dp920
S'justice'
p921
I2
sS','
I1
ss(g237
tp922
(dp923
S'of'
p924
I1
sS'to'
p925
I1
ss(g107
tp926
(dp927
S'and'
p928
I1
sS'some'
p929
I1
sS'us'
p930
I1
ss(g212
tp931
(dp932
S'-'
I1
sS','
I2
ss(g85
tp933
(dp934
S'the'
p935
I1
ss(g154
tp936
(dp937
S'any'
p938
I1
ss(g216
tp939
(dp940
S'of'
p941
I1
ss(g8
tp942
(dp943
S'this'
p944
I1
sS'our'
p945
I2
sg128
I1
ss(g357
tp946
(dp947
S','
I1
ss(g261
tp948
(dp949
g244
I1
sg248
I1
sS'is'
p950
I1
sg222
I1
sS','
I1
ss(g382
tp951
(dp952
S'if'
p953
I1
ss(g413
tp954
(dp955
S'nature'
p956
I1
ss(g119
tp957
(dp958
g403
I1
sg308
I1
ss(g190
tp959
(dp960
S'of'
p961
I1
sg121
I1
ss(g333
tp962
(dp963
S'better'
p964
I1
sg280
I1
sS'his'
p965
I1
ss(g258
tp966
(dp967
S';'
I3
sS':'
I2
sg178
I1
sS'are'
p968
I1
sS','
I2
ss(g243
tp969
(dp970
S'a'
I1
sg254
I1
sg238
I1
sg52
I1
sg259
I1
sg196
I1
sg414
I1
sg263
I1
sg184
I1
sS'of'
p971
I1
sS'too'
p972
I1
sS'in'
p973
I1
sS'not'
p974
I1
sS'you'
p975
I2
sS'the'
p976
I3
sS'laws'
p977
I1
ss(g233
tp978
(dp979
S'and'
p980
I1
ss(g76
tp981
(dp982
g138
I2
ss(g218
tp983
(dp984
S'to'
p985
I1
ss(g81
tp986
(dp987
S';'
I1
sS','
I1
ss(g149
tp988
(dp989
S','
I1
ss(g358
tp990
(dp991
S'a'
I2
sg253
I1
sS'his'
p992
I1
sg47
I2
sS'this'
p993
I1
sS'their'
p994
I1
sg331
I1
sS'the'
p995
I1
sS'by'
p996
I1
sS'he'
p997
I2
ss(g276
tp998
(dp999
S'we'
p1000
I1
sS'he'
p1001
I1
ss(g140
tp1002
(dp1003
S'if'
p1004
I1
ss(g416
tp1005
(dp1006
S'about'
p1007
I1
sg355
I1
sS'nonsense'
p1008
I1
ss(g193
tp1009
(dp1010
S'to'
p1011
I1
ss(g336
tp1012
(dp1013
S','
I1
ss(g253
tp1014
(dp1015
S'their'
p1016
I1
ss(g29
tp1017
(dp1018
S'not'
p1019
I1
sg257
I1
sS'in'
p1020
I1
ss(g245
tp1021
(dp1022
S'and'
p1023
I1
ss(g380
tp1024
(dp1025
S';'
I1
ss(g23
tp1026
(dp1027
S'to'
p1028
I1
ss(g424
tp1029
(dp1030
S'of'
p1031
I3
sS'have'
p1032
I1
ss(g345
tp1033
(dp1034
S'of'
p1035
I1
ss(g402
tp1036
(dp1037
S'injustice'
p1038
I1
ss(g195
tp1039
(dp1040
S','
I1
ss(g339
tp1041
(dp1042
S'to'
p1043
I1
ss(g289
tp1044
(dp1045
S'and'
p1046
I1
ss(g347
tp1047
(dp1048
S'himself'
p1049
I2
ss(g169
tp1050
(dp1051
S'their'
p1052
I1
ss(g419
tp1053
(dp1054
S'a'
I1
sS'said'
p1055
I1
sS','
I1
sS'dishonourable'
p1056
I1
ss(g122
tp1057
(dp1058
g109
I1
ss(g352
tp1059
(dp1060
S'?'
I1
ss(g196
tp1061
(dp1062
S'to'
p1063
I1
ss(g394
tp1064
(dp1065
S'Gorgias'
p1066
I1
ss(g160
tp1067
(dp1068
S'into'
p1069
I2
ss(g24
tp1070
(dp1071
g84
I1
sS'much'
p1072
I1
ss(g361
tp1073
(dp1074
S'the'
p1075
I1
ss(g58
tp1076
(dp1077
g399
I1
ss(g121
tp1078
(dp1079
S';'
I1
sS'.'
I1
ss(g198
tp1080
(dp1081
S'to'
p1082
I1
sS'the'
p1083
I1
ss(g260
tp1084
(dp1085
S'and'
p1086
I1
ss(g96
tp1087
(dp1088
S'will'
p1089
I1
sS'to'
p1090
I1
sS'who'
p1091
I1
sS','
I2
ss(g180
tp1092
(dp1093
g225
I1
sS'.'
I1
ss(g105
tp1094
(dp1095
S'himself'
p1096
I1
ss(g386
tp1097
(dp1098
g186
I1
ss(g129
tp1099
(dp1100
S','
I1
ss(g167
tp1101
(dp1102
S','
I1
ss(g273
tp1103
(dp1104
S'and'
p1105
I1
sg30
I1
sS'to'
p1106
I1
sS'of'
p1107
I2
sS':'
I1
sg223
I1
ss(g45
tp1108
(dp1109
S'as'
p1110
I1
sS'who'
p1111
I1
sS','
I1
ss(g316
tp1112
(dp1113
S'is'
p1114
I1
ss(g188
tp1115
(dp1116
g100
I1
ss(g389
tp1117
(dp1118
S','
I1
ss(g7
tp1119
(dp1120
S'for'
p1121
I1
ss(g228
tp1122
(dp1123
S'is'
p1124
I1
sS'you'
p1125
I2
sS'evil'
p1126
I1
sS'mean'
p1127
I1
ss(g75
tp1128
(dp1129
g129
I1
ss(g298
tp1130
(dp1131
S'me'
p1132
I2
ss(g365
tp1133
(dp1134
S','
I1
ss(g17
tp1135
(dp1136
S'who'
p1137
I1
ss(g34
tp1138
(dp1139
S'in'
p1140
I1
ss(g203
tp1141
(dp1142
S'of'
p1143
I1
ss(g342
tp1144
(dp1145
S'of'
p1146
I1
sS'injustice'
p1147
I1
ss(g262
tp1148
(dp1149
S'to'
p1150
I3
ss(g51
tp1151
(dp1152
S'when'
p1153
I1
ss(g317
tp1154
(dp1155
g78
I1
sg319
I1
sS'just'
p1156
I1
sg270
I1
sg322
I2
sg189
I1
sg35
I1
sg36
I1
sg22
I1
sg119
I2
sg113
I1
sg142
I1
sS'admission'
p1157
I1
sg303
I3
sg273
I5
sg197
I1
sg245
I1
sg227
I2
sS'more'
p1158
I3
sg62
I1
sg21
I1
sS'slave'
p1159
I1
sS'conventionally'
p1160
I1
sg23
I1
sg203
I1
sS'men'
p1161
I1
sS'suffering'
p1162
I1
sS'part'
p1163
I1
sg46
I1
sg180
I1
sg210
I1
sg94
I1
sg345
I1
sg27
I1
sg398
I1
sS'many'
p1164
I2
sg214
I1
sg293
I1
sg424
I3
sg183
I1
sg135
I1
sg98
I1
sg349
I1
sg48
I1
sg288
I1
sg266
I1
ss(g110
tp1165
(dp1166
g313
I1
ss(g38
tp1167
(dp1168
S'I'
I3
sS'you'
p1169
I2
sg216
I1
sS'we'
p1170
I1
sS'he'
p1171
I2
ss(S'I'
tp1172
(dp1173
S'do'
p1174
I1
sg232
I1
sS'shall'
p1175
I1
sg31
I2
sg405
I1
sg286
I1
sS'say'
p1176
I1
sg58
I1
sg40
I1
sS'take'
p1177
I1
sg192
I1
sS'not'
p1178
I1
sg32
I1
sS'was'
p1179
I2
sg161
I1
sg136
I3
ss(g56
tp1180
(dp1181
g105
I1
sg228
I2
sS'say'
p1182
I3
sS'have'
p1183
I3
sg111
I2
sg272
I1
sg231
I1
sg388
I1
sg171
I1
sg86
I1
sg417
I2
sg60
I1
sS'be'
p1184
I9
sS'them'
p1185
I1
sS'his'
p1186
I1
sS'that'
p1187
I1
sg394
I1
sS'him'
p1188
I2
sg347
I2
sg400
I1
sg75
I1
sS'the'
p1189
I2
sS'nature'
p1190
I1
ss(g215
tp1191
(dp1192
S'the'
p1193
I1
ss(g133
tp1194
(dp1195
S'.'
I1
ss(g118
tp1196
(dp1197
S'like'
p1198
I1
sS','
I1
sS'.'
I1
sS'in'
p1199
I1
sS';'
I1
sS'with'
p1200
I1
ss(g399
tp1201
(dp1202
S'I'
I1
sS','
I1
ss(g256
tp1203
(dp1204
S'has'
p1205
I1
sS'was'
p1206
I1
sg200
I1
ss(g241
tp1207
(dp1208
S'-'
I1
ss(g86
tp1209
(dp1210
g327
I1
sS'.'
I1
ss(g232
tp1211
(dp1212
S'say'
p1213
I1
ss(g304
tp1214
(dp1215
S'and'
p1216
I1
ss(g283
tp1217
(dp1218
S'this'
p1219
I1
sS'now'
p1220
I1
sS'therefore'
p1221
I1
ss(g83
tp1222
(dp1223
g249
I1
sS'?'
I1
ss(g148
tp1224
(dp1225
S'.'
I1
ss(g68
tp1226
(dp1227
S'.'
I1
ss(g40
tp1228
(dp1229
S'that'
p1230
I1
ss(g383
tp1231
(dp1232
S'meaning'
p1233
I1
sg422
I1
sg80
I1
ss(g300
tp1234
(dp1235
S','
I1
sS'for'
p1236
I1
ss(g139
tp1237
(dp1238
S'at'
p1239
I1
ss(g123
tp1240
(dp1241
S'to'
p1242
I2
ss(g168
tp1243
(dp1244
S'them'
p1245
I1
ss(g337
tp1246
(dp1247
S'himself'
p1248
I1
sg160
I1
sg320
I1
ss(g322
tp1249
(dp1250
S','
I2
ss(g63
tp1251
(dp1252
g148
I1
ss(g425
tp1253
(dp1254
S','
I1
ss(g220
tp1255
(dp1256
S'to'
p1257
I1
sg226
I1
sS','
I1
ss(g128
tp1258
(dp1259
S'I'
I1
ss(g381
tp1260
(dp1261
S','
I1
ss(g314
tp1262
(dp1263
S'as'
p1264
I1
ss(g173
tp1265
(dp1266
S'.'
I1
ss(g384
tp1267
(dp1268
S'slip'
p1269
I1
ss(g388
tp1270
(dp1271
S':'
I1
ss(g370
tp1272
(dp1273
S','
I1
ss(g288
tp1274
(dp1275
S','
I1
ss(g166
tp1276
(dp1277
S':'
I1
ss(g153
tp1278
(dp1279
S'me'
p1280
I1
ss(g427
tp1281
(dp1282
S'more'
p1283
I1
ss(g305
tp1284
(dp1285
S'he'
p1286
I3
sS'Gorgias'
p1287
I1
ss(S'?'
tp1288
(dp1289
S'do'
p1290
I1
sS'\x00'
I6
sg240
I1
sS'('
I1
ss(g353
tp1291
(dp1292
g384
I1
sS'one'
p1293
I1
ss(g274
tp1294
(dp1295
S'.'
I1
ss(g185
tp1296
(dp1297
S'by'
p1298
I1
ss(g187
tp1299
(dp1300
S'to'
p1301
I1
ss(g221
tp1302
(dp1303
g103
I1
ss(g36
tp1304
(dp1305
S'of'
p1306
I1
ss(g373
tp1307
(dp1308
g381
I1
sS'meats'
p1309
I1
sg239
I1
sS'what'
p1310
I1
sg412
I1
sS'justice'
p1311
I1
sS'whom'
p1312
I1
sS'injustice'
p1313
I1
sg199
I1
sg118
I3
sg229
I1
sg217
I1
sS'nature'
p1314
I5
sg45
I1
sS'natural'
p1315
I1
sS'him'
p1316
I1
sS'a'
I3
sg130
I1
sg213
I1
sS'this'
p1317
I1
sg158
I1
sg425
I1
sS'truth'
p1318
I1
sS'the'
p1319
I4
sg237
I1
sg219
I1
ss(g84
tp1320
(dp1321
g372
I1
ss(g74
tp1322
(dp1323
S'to'
p1324
I1
ss(g12
tp1325
(dp1326
S'the'
p1327
I1
ss(g349
tp1328
(dp1329
S'and'
p1330
I1
ss(g355
tp1331
(dp1332
g271
I1
ss(g108
tp1333
(dp1334
S','
I1
ss(g307
tp1335
(dp1336
g409
I1
sS','
I1
ss(g296
tp1337
(dp1338
S'are'
p1339
I1
sg102
I1
ss(g217
tp1340
(dp1341
S'and'
p1342
I1
ss(g77
tp1343
(dp1344
S','
I1
ss(g222
tp1345
(dp1346
g301
I1
ss(g120
tp1347
(dp1348
g370
I1
ss(g270
tp1349
(dp1350
S'of'
p1351
I1
ss(g191
tp1352
(dp1353
S'what'
p1354
I2
sg24
I1
sS'is'
p1355
I1
sS','
I2
sS'.'
I1
sg340
I1
ss(g334
tp1356
(dp1357
S'perhaps'
p1358
I1
ss(g177
tp1359
(dp1360
g373
I2
ss(g109
tp1361
(dp1362
S','
I1
ss(g219
tp1363
(dp1364
S'and'
p1365
I1
sS'are'
p1366
I1
sS'which'
p1367
I1
sS'?'
I1
ss(g28
tp1368
(dp1369
S'saying'
p1370
I1
sS'all'
p1371
I1
sS'because'
p1372
I1
sS'be'
p1373
I1
sg106
I2
sS'is'
p1374
I1
sg323
I1
sg354
I1
sS'are'
p1375
I1
sS'in'
p1376
I1
sg193
I1
sg410
I1
sS'if'
p1377
I1
sg38
I1
sg170
I1
sg423
I1
sg168
I1
sS'to'
p1378
I1
sg335
I1
sg59
I1
sg81
I2
sS'you'
p1379
I1
sg330
I1
sS'then'
p1380
I1
sg89
I1
sS'that'
p1381
I3
sS'I'
I1
sg122
I1
sg342
I1
sg281
I1
sg125
I3
sS'wiser'
p1382
I1
sg17
I1
sg396
I1
sS'a'
I1
sg37
I2
sg29
I1
sg157
I1
sg356
I1
sS'according'
p1383
I1
sS'so'
p1384
I1
sg312
I1
sg289
I1
sg91
I1
sS'the'
p1385
I2
sS'other'
p1386
I1
sg427
I1
sg258
I1
ss(g32
tp1387
(dp1388
g173
I1
ss(g401
tp1389
(dp1390
g107
I1
ss(g178
tp1391
(dp1392
g344
I1
ss(g392
tp1393
(dp1394
S'of'
p1395
I1
sS';'
I1
sS'fallen'
p1396
I1
sS','
I2
ss(g30
tp1397
(dp1398
S'than'
p1399
I1
ss(g319
tp1400
(dp1401
S'to'
p1402
I1
ss(g157
tp1403
(dp1404
S'upon'
p1405
I1
ss(g104
tp1406
(dp1407
S'is'
p1408
I2
ss(g266
tp1409
(dp1410
S'of'
p1411
I1
sg260
I1
ss(g53
tp1412
(dp1413
S'.'
I1
ss(g404
tp1414
(dp1415
S','
I1
ss(g324
tp1416
(dp1417
g8
I1
ss(g244
tp1418
(dp1419
S','
I1
ss(g359
tp1420
(dp1421
g246
I1
ss(S';'
tp1422
(dp1423
S'and'
p1424
I9
sS'for'
p1425
I4
sS'that'
p1426
I2
sS'I'
I1
sg144
I1
sS'but'
p1427
I2
sg420
I1
sg328
I1
sS'the'
p1428
I1
sS'he'
p1429
I1
ss(g312
tp1430
(dp1431
S'with'
p1432
I1
ss(g239
tp1433
(dp1434
g278
I1
ss(g246
tp1435
(dp1436
S'are'
p1437
I1
ss(g161
tp1438
(dp1439
S';'
I1
ss(S'-'
tp1440
(dp1441
S'that'
p1442
I1
sg16
I1
sS'have'
p1443
I1
sg66
I1
ss(g291
tp1444
(dp1445
S'in'
p1446
I1
ss(g209
tp1447
(dp1448
g346
I1
ss(g409
tp1449
(dp1450
g202
I1
sS'laws'
p1451
I1
sg145
I1
ss(g199
tp1452
(dp1453
S'we'
p1454
I1
sg43
I1
sS'is'
p1455
I1
sS'are'
p1456
I2
sS'you'
p1457
I1
sS'he'
p1458
I1
ss(g186
tp1459
(dp1460
S'a'
I1
ss(g410
tp1461
(dp1462
S'over'
p1463
I1
ss(g330
tp1464
(dp1465
S'and'
p1466
I1
ss(g249
tp1467
(dp1468
S'to'
p1469
I1
ss(g387
tp1470
(dp1471
S'to'
p1472
I1
sS'which'
p1473
I1
ss(g26
tp1474
(dp1475
S';'
I1
sS'?'
I1
sS','
I4
sg79
I1
sS'in'
p1476
I1
ss(g21
tp1477
(dp1478
S'of'
p1479
I1
ss(g182
tp1480
(dp1481
g421
I1
ss(g189
tp1482
(dp1483
S'.'
I1
ss(g251
tp1484
(dp1485
S'to'
p1486
I1
ss(g73
tp1487
(dp1488
S'very'
p1489
I1
sg332
I1
sS'I'
I1
sg390
I1
sS';'
I1
sS'was'
p1490
I1
ss(g376
tp1491
(dp1492
g175
I1
sg151
I1
ss(g144
tp1493
(dp1494
S'when'
p1495
I1
ss(g65
tp1496
(dp1497
S'in'
p1498
I1
ss(g131
tp1499
(dp1500
S';'
I1
sS'.'
I1
ss(g354
tp1501
(dp1502
S'from'
p1503
I1
ss(g263
tp1504
(dp1505
S'nature'
p1506
I1
ss(g46
tp1507
(dp1508
S'of'
p1509
I1
ss(g192
tp1510
(dp1511
S'I'
I1
sS'been'
p1512
I1
sS'more'
p1513
I4
ss(g15
tp1514
(dp1515
S';'
I1
ss(g147
tp1516
(dp1517
S'Polus'
p1518
I1
ss(g66
tp1519
(dp1520
S'them'
p1521
I1
ss(g134
tp1522
(dp1523
S'.'
I1
ss(g19
tp1524
(dp1525
S'of'
p1526
I1
ss(g202
tp1527
(dp1528
S'and'
p1529
I1
ss(g332
tp1530
(dp1531
S','
I1
sS'which'
p1532
I1
ss(g257
tp1533
(dp1534
g363
I1
ss(g310
tp1535
(dp1536
g65
I1
ss(g242
tp1537
(dp1538
S'Gorgias'
p1539
I1
ss(g368
tp1540
(dp1541
S'I'
I1
ss(g346
tp1542
(dp1543
g362
I1
sg13
I1
ss(g55
tp1544
(dp1545
g63
I1
sS'be'
p1546
I1
sg39
I1
sg25
I1
sS','
I1
sg415
I1
sg110
I1
sS'answer'
p1547
I1
sg155
I1
ss(g47
tp1548
(dp1549
g7
I1
sS'is'
p1550
I1
sS'in'
p1551
I1
sg337
I1
sS'was'
p1552
I2
sS'?'
I1
ss(g335
tp1553
(dp1554
g307
I1
ss(g201
tp1555
(dp1556
S'I'
I1
sg277
I1
ss(g406
tp1557
(dp1558
S'would'
p1559
I1
ss(g88
tp1560
(dp1561
g279
I1
ss(g234
tp1562
(dp1563
S'justice'
p1564
I1
sg205
I2
sg54
I1
sS','
I2
ss(g301
tp1565
(dp1566
S'.'
I1
ss(g423
tp1567
(dp1568
S','
I1
ss(g206
tp1569
(dp1570
g404
I1
ss(g264
tp1571
(dp1572
S'with'
p1573
I1
ss(g417
tp1574
(dp1575
g77
I1
sg108
I1
sg64
I1
sS'that'
p1576
I1
sS'did'
p1577
I1
sg153
I1
sS','
I3
sS'.'
I1
sg309
I1
sS'not'
p1578
I2
sg191
I2
sS'are'
p1579
I3
sg83
I1
sS'in'
p1580
I1
sg10
I1
sS';'
I1
ss(g124
tp1581
(dp1582
S'and'
p1583
I2
ss(g101
tp1584
(dp1585
S'that'
p1586
I1
ss(g313
tp1587
(dp1588
S'and'
p1589
I1
ss(g158
tp1590
(dp1591
S'in'
p1592
I1
ss(g426
tp1593
(dp1594
S'your'
p1595
I1
ss(g91
tp1596
(dp1597
S','
I1
ss(g348
tp1598
(dp1599
S','
I1
ss(g272
tp1600
(dp1601
S'of'
p1602
I1
ss(g114
tp1603
(dp1604
g358
I1
ss(g255
tp1605
(dp1606
g326
I1
ss(g250
tp1607
(dp1608
S'law'
p1609
I1
ss(g35
tp1610
(dp1611
S'and'
p1612
I1
ss(g371
tp1613
(dp1614
S'what'
p1615
I1
sg324
I1
ss(g150
tp1616
(dp1617
S'man'
p1618
I1
ss(g11
tp1619
(dp1620
S'and'
p1621
I1
ss(g280
tp1622
(dp1623
g167
I1
ss(g142
tp1624
(dp1625
S'of'
p1626
I1
ss(g329
tp1627
(dp1628
S'is'
p1629
I1
ss(g306
tp1630
(dp1631
S','
I1
sS'would'
p1632
I1
ss(g295
tp1633
(dp1634
S'and'
p1635
I1
ss(g230
tp1636
(dp1637
g179
I1
sS','
I1
ss(g377
tp1638
(dp1639
g311
I1
ss(g13
tp1640
(dp1641
g389
I1
ss(g281
tp1642
(dp1643
S','
I1
ss(g145
tp1644
(dp1645
S','
I1
ss(g60
tp1646
(dp1647
S'and'
p1648
I1
ss(g366
tp1649
(dp1650
S','
I1
ss(g344
tp1651
(dp1652
S'that'
p1653
I1
ss(g397
tp1654
(dp1655
g96
I1
ss(g155
tp1656
(dp1657
S'him'
p1658
I1
ss(g297
tp1659
(dp1660
S','
I1
ss(g364
tp1661
(dp1662
g140
I1
sg120
I1
sS'doing'
p1663
I1
sg291
I1
sS'natural'
p1664
I1
sg146
I1
sg310
I1
sg185
I1
sg139
I1
sS'shameful'
p1665
I1
sg20
I1
sS'the'
p1666
I2
ss(g223
tp1667
(dp1668
S'.'
I1
ss(g143
tp1669
(dp1670
S'true'
p1671
I1
ss(g340
tp1672
(dp1673
S'that'
p1674
I1
ss(g414
tp1675
(dp1676
S'at'
p1677
I1
ss(S':'
tp1678
(dp1679
S'and'
p1680
I1
sS'do'
p1681
I1
sS'as'
p1682
I1
sS'not'
p1683
I1
sS'the'
p1684
I1
sg141
I1
ss(g197
tp1685
(dp1686
S'who'
p1687
I1
ss(g87
tp1688
(dp1689
S'?'
I1
ss(g282
tp1690
(dp1691
g408
I1
ss(g351
tp1692
(dp1693
S'the'
p1694
I1
sg256
I1
sS'he'
p1695
I2
ss(g132
tp1696
(dp1697
S'feast'
p1698
I1
ss(g277
tp1699
(dp1700
g379
I1
sS'for'
p1701
I1
ss(g268
tp1702
(dp1703
S'whole'
p1704
I1
sS'men'
p1705
I1
sg72
I1
ss(g254
tp1706
(dp1707
S'not'
p1708
I1
sg9
I1
sg339
I1
sg198
I1
ss(g179
tp1709
(dp1710
S'to'
p1711
I1
sg57
I1
sS'his'
p1712
I1
sS'the'
p1713
I5
ss(g311
tp1714
(dp1715
S'and'
p1716
I1
ss(g31
tp1717
(dp1718
S'to'
p1719
I1
sS','
I1
ss(g170
tp1720
(dp1721
g44
I1
ss(g89
tp1722
(dp1723
S','
I1
ss(g100
tp1724
(dp1725
g380
I1
ss(g225
tp1726
(dp1727
S'rule'
p1728
I1
ss(g208
tp1729
(dp1730
S'to'
p1731
I1
ss(g267
tp1732
(dp1733
g369
I1
ss(g137
tp1734
(dp1735
S'and'
p1736
I1
sS','
I1
sS'?'
I1
ss(g418
tp1737
(dp1738
S'.'
I1
ss(g360
tp1739
(dp1740
g187
I1
sg364
I1
ss(g405
tp1741
(dp1742
S'not'
p1743
I1
ss(g72
tp1744
(dp1745
S','
I1
ss(g293
tp1746
(dp1747
S'is'
p1748
I1
ss(g287
tp1749
(dp1750
g392
I1
ss(g224
tp1751
(dp1752
g34
I1
sS'did'
p1753
I1
sS'-'
I1
sS','
I2
sS'would'
p1754
I1
ss(g69
tp1755
(dp1756
S'of'
p1757
I1
ss(g146
tp1758
(dp1759
S','
I1
ssa(dp1760
(S','
g617
tp1761
(dp1762
g1454
I1
sg1456
I1
ss(S','
g268
tp1763
(dp1764
g1705
I1
ss(g694
g93
tp1765
(dp1766
g633
I1
ss(S'and'
p1767
g168
tp1768
(dp1769
g1245
I1
ss(g1008
S';'
tp1770
(dp1771
S'I'
I1
ss(g31
S','
tp1772
(dp1773
S'is'
p1774
I1
ss(g448
g644
tp1775
(dp1776
g764
I1
ss(g717
g217
tp1777
(dp1778
g1342
I1
ss(g1312
g1000
tp1779
(dp1780
g198
I1
ss(S'a'
g724
tp1781
(dp1782
g1090
I1
sg1091
I1
sS','
I1
ss(g795
S','
tp1783
(dp1784
g624
I1
sg619
I1
sS'in'
p1785
I1
ss(g147
g1518
tp1786
(dp1787
g200
I1
ss(S'is'
p1788
g162
tp1789
(dp1790
g802
I1
ss(g344
g1653
tp1791
(dp1792
g292
I1
ss(g171
g376
tp1793
(dp1794
g175
I1
sg151
I1
ss(g359
g246
tp1795
(dp1796
g1437
I1
ss(g1164
S','
tp1797
(dp1798
S'is'
p1799
I1
ss(g764
g995
tp1800
(dp1801
S'better'
p1802
I1
ss(S'saying'
p1803
S','
tp1804
(dp1805
S'and'
p1806
I1
ss(g1653
g292
tp1807
(dp1808
g448
I1
ss(g786
S','
tp1809
(dp1810
S'to'
p1811
I1
ss(g30
g1399
tp1812
(dp1813
g57
I1
ss(g129
S','
tp1814
(dp1815
S'and'
p1816
I1
ss(S'was'
p1817
g123
tp1818
(dp1819
g1242
I1
ss(g211
g397
tp1820
(dp1821
g96
I1
ss(S'would'
p1822
S','
tp1823
(dp1824
g610
I1
ss(g1526
g1309
tp1825
(dp1826
S'and'
p1827
I1
ss(g391
g220
tp1828
(dp1829
g226
I1
sS','
I1
ss(g1091
g553
tp1830
(dp1831
g280
I1
ss(S'.'
g49
tp1832
(dp1833
g491
I1
ss(S','
g117
tp1834
(dp1835
S';'
I1
ss(S'his'
p1836
g366
tp1837
(dp1838
S','
I1
ss(g1399
g57
tp1839
(dp1840
S';'
I1
ss(g376
g175
tp1841
(dp1842
S';'
I1
ss(g375
g730
tp1843
(dp1844
g654
I1
ss(S'the'
p1845
g46
tp1846
(dp1847
g1509
I1
ss(S'and'
p1848
g1381
tp1849
(dp1850
S'the'
p1851
I1
sS'is'
p1852
I1
sg855
I1
ss(g1198
g13
tp1853
(dp1854
g389
I1
ss(g306
S','
tp1855
(dp1856
S'who'
p1857
I1
ss(g1551
g866
tp1858
(dp1859
g366
I1
sg221
I1
ss(g956
g178
tp1860
(dp1861
g344
I1
ss(S'?'
g1290
tp1862
(dp1863
g1125
I1
ss(g1306
g219
tp1864
(dp1865
g1366
I1
ss(g10
g371
tp1866
(dp1867
g324
I1
ss(S'this'
p1868
g1489
tp1869
(dp1870
g84
I1
ss(g206
g404
tp1871
(dp1872
S','
I1
ss(g1428
g48
tp1873
(dp1874
g908
I1
ss(g132
g1698
tp1875
(dp1876
S';'
I1
ss(g159
g861
tp1877
(dp1878
g1317
I1
ss(g1486
g105
tp1879
(dp1880
g1096
I1
ss(g1105
g1382
tp1881
(dp1882
g225
I1
ss(g1147
S'.'
tp1883
(dp1884
g49
I1
ss(g355
g271
tp1885
(dp1886
g297
I1
ss(g111
g252
tp1887
(dp1888
g888
I1
sS','
I1
ss(g126
g663
tp1889
(dp1890
S'a'
I1
ss(g653
g666
tp1891
(dp1892
g266
I1
ss(g1378
g171
tp1893
(dp1894
g376
I1
ss(g52
S'.'
tp1895
(dp1896
S'\x00'
I1
ss(g1426
g848
tp1897
(dp1898
g646
I3
ss(g247
g821
tp1899
(dp1900
g305
I1
ss(g379
g112
tp1901
(dp1902
S','
I1
ss(g601
g214
tp1903
(dp1904
g901
I1
ss(g264
g1573
tp1905
(dp1906
g507
I1
ss(g971
g412
tp1907
(dp1908
g367
I1
ss(g961
g1319
tp1909
(dp1910
S'many'
p1911
I1
sg288
I1
sg1160
I1
sS'rule'
p1912
I1
ss(g169
g1052
tp1913
(dp1914
g359
I1
ss(g188
g100
tp1915
(dp1916
g380
I1
ss(g224
S','
tp1917
(dp1918
g623
I1
sg622
I1
ss(g280
g167
tp1919
(dp1920
S','
I1
ss(g1386
g1008
tp1921
(dp1922
S';'
I1
ss(S' '
g265
tp1923
(dp1924
S';'
I3
sS','
I1
sS'.'
I3
ss(g242
g1539
tp1925
(dp1926
g7
I1
ss(g209
g346
tp1927
(dp1928
g362
I1
ss(g343
g224
tp1929
(dp1930
S','
I1
ss(g1257
g1185
tp1931
(dp1932
S','
I1
ss(g849
g794
tp1933
(dp1934
S'I'
I1
ss(S'the'
p1935
g1160
tp1936
(dp1937
g1056
I1
ss(g419
S'a'
tp1938
(dp1939
g722
I1
ss(g1156
S'.'
tp1940
(dp1941
g382
I1
ss(g1851
g293
tp1942
(dp1943
g1748
I1
ss(g131
S'.'
tp1944
(dp1945
S'\x00'
I1
ss(S'the'
p1946
g142
tp1947
(dp1948
g1626
I1
ss(S'but'
p1949
g786
tp1950
(dp1951
S','
I1
ss(g301
S'.'
tp1952
(dp1953
S'\x00'
I1
ss(S'than'
p1954
g1713
tp1955
(dp1956
g1164
I1
sg78
I1
sg22
I1
sg227
I2
ss(g120
g370
tp1957
(dp1958
S','
I1
ss(g287
g392
tp1959
(dp1960
g1395
I1
ss(g1573
g507
tp1961
(dp1962
g166
I1
ss(S'be'
p1963
g185
tp1964
(dp1965
g1298
I1
ss(S'I'
g1176
tp1966
(dp1967
g340
I1
ss(g286
S'.'
tp1968
(dp1969
g913
I1
ss(g384
g1269
tp1970
(dp1971
S'?'
I1
ss(g21
g1479
tp1972
(dp1973
S'the'
p1974
I1
ss(g321
g817
tp1975
(dp1976
g763
I1
ss(g13
g389
tp1977
(dp1978
S','
I1
ss(g56
g400
tp1979
(dp1980
g261
I1
ss(g1550
g88
tp1981
(dp1982
g279
I1
ss(g388
S':'
tp1983
(dp1984
g1682
I1
ss(g29
g1019
tp1985
(dp1986
g343
I1
ss(g382
g953
tp1987
(dp1988
g386
I1
ss(g1529
g330
tp1989
(dp1990
g1466
I1
ss(g1318
S','
tp1991
(dp1992
S'are'
p1993
I1
ss(g612
g361
tp1994
(dp1995
g1075
I1
ss(g82
g870
tp1996
(dp1997
S'house'
p1998
I1
ss(g1046
g1386
tp1999
(dp2000
g1008
I1
ss(g1618
g1089
tp2001
(dp2002
g255
I1
ss(g217
g1342
tp2003
(dp2004
g423
I1
ss(g1998
g116
tp2005
(dp2006
g154
I1
ss(S'I'
g31
tp2007
(dp2008
g1719
I1
sS','
I1
ss(S','
g614
tp2009
(dp2010
g993
I1
sg331
I1
sg997
I1
ss(g1629
g124
tp2011
(dp2012
g1583
I1
ss(g980
g410
tp2013
(dp2014
g1463
I1
ss(g945
g202
tp2015
(dp2016
g1529
I1
ss(S'I'
g1175
tp2017
(dp2018
g364
I1
ss(S'or'
p2019
g732
tp2020
(dp2021
g834
I1
ss(g1473
g1455
tp2022
(dp2023
g647
I1
ss(g476
g1248
tp2024
(dp2025
g1396
I1
ss(S'and'
p2026
g1376
tp2027
(dp2028
g868
I1
ss(g1052
g359
tp2029
(dp2030
g246
I1
ss(g390
g351
tp2031
(dp2032
g256
I1
ss(g552
g204
tp2033
(dp2034
g419
I1
ss(g420
S','
tp2035
(dp2036
S'Socrates'
p2037
I1
sg621
I1
ss(g468
g432
tp2038
(dp2039
g77
I1
ss(g438
g664
tp2040
(dp2041
S'the'
p2042
I1
ss(g423
S','
tp2043
(dp2044
S'who'
p2045
I1
ss(g460
g945
tp2046
(dp2047
g202
I1
sg1451
I1
ss(g1609
S','
tp2048
(dp2049
S'which'
p2050
I1
ss(S'a'
g316
tp2051
(dp2052
g1114
I1
ss(S'.'
S'I'
tp2053
(dp2054
g232
I1
ss(g160
g1069
tp2055
(dp2056
g738
I2
ss(g342
g1147
tp2057
(dp2058
S'.'
I1
ss(g157
g1405
tp2059
(dp2060
g409
I1
ss(g415
g18
tp2061
(dp2062
g325
I1
ss(g649
g1055
tp2063
(dp2064
g820
I1
ss(g858
g1182
tp2065
(dp2066
g1354
I2
sS','
I1
ss(g50
g596
tp2067
(dp2068
g1316
I1
ss(S','
g612
tp2069
(dp2070
g361
I1
sg383
I1
ss(g731
g12
tp2071
(dp2072
g1327
I1
ss(g175
S';'
tp2073
(dp2074
S'and'
p2075
I1
ss(S'and'
p2076
g1383
tp2077
(dp2078
S'to'
p2079
I1
ss(g1160
g1056
tp2080
(dp2081
S','
I1
ss(g867
g1457
tp2082
(dp2083
g309
I1
ss(g187
g1301
tp2084
(dp2085
g417
I1
ss(S'I'
g232
tp2086
(dp2087
g1213
I1
ss(g1219
S'I'
tp2088
(dp2089
g1177
I1
ss(g153
g1280
tp2090
(dp2091
g479
I1
ss(S'and'
p2092
g1379
tp2093
(dp2094
S','
I1
ss(g1310
g1170
tp2095
(dp2096
g339
I1
ss(S'.'
g382
tp2097
(dp2098
g953
I1
ss(g1454
g9
tp2099
(dp2100
g743
I1
ss(g935
g1163
tp2101
(dp2102
S'of'
p2103
I1
ss(S'are'
p2104
g196
tp2105
(dp2106
g1063
I1
ss(S','
g28
tp2107
(dp2108
S'a'
I1
sg1370
I1
sg38
I1
sg1381
I3
sS'I'
I1
sS'indeed'
p2109
I1
sg1374
I1
sg1383
I1
sg168
I1
sg29
I1
sg1384
I1
sg59
I1
sg1371
I1
sg356
I1
sg193
I1
sS'the'
p2110
I1
sg17
I1
sg396
I1
ss(g426
g1595
tp2111
(dp2112
g422
I1
ss(g163
g445
tp2113
(dp2114
g209
I1
ss(g272
g1602
tp2115
(dp2116
g213
I1
ss(S':'
g1683
tp2117
(dp2118
S','
I1
ss(g929
g384
tp2119
(dp2120
g1269
I1
ss(g72
S','
tp2121
(dp2122
S'and'
p2123
I1
ss(g1532
g43
tp2124
(dp2125
g471
I1
ss(g1365
g323
tp2126
(dp2127
g11
I1
ss(g392
g1395
tp2128
(dp2129
g199
I1
ss(S'and'
p2130
g396
tp2131
(dp2132
g360
I1
ss(g328
S','
tp2133
(dp2134
S'by'
p2135
I1
ss(g1753
g257
tp2136
(dp2137
g363
I1
ss(g69
g1757
tp2138
(dp2139
g130
I1
ss(g95
S','
tp2140
(dp2141
g393
I1
ss(g203
g1143
tp2142
(dp2143
g1310
I1
ss(g58
g399
tp2144
(dp2145
S'I'
I1
ss(S'and'
p2146
g1370
tp2147
(dp2148
g1257
I1
ss(S'same'
p2149
S'.'
tp2150
(dp2151
S'\x00'
I1
ss(g1708
g137
tp2152
(dp2153
S','
I1
ss(g324
g8
tp2154
(dp2155
g128
I1
ss(g1373
g20
tp2156
(dp2157
g769
I1
ss(g1072
g1701
tp2158
(dp2159
g992
I1
ss(S'.'
g147
tp2160
(dp2161
g1518
I1
ss(g263
g1506
tp2162
(dp2163
S':'
I1
ss(g1170
g339
tp2164
(dp2165
g1043
I1
ss(g39
S','
tp2166
(dp2167
g612
I1
ss(S'he'
p2168
g333
tp2169
(dp2170
g965
I1
ss(g262
g1150
tp2171
(dp2172
S'the'
p2173
I1
sg1187
I1
sg1190
I1
ss(g406
g1559
tp2174
(dp2175
g1546
I1
ss(g2110
g98
tp2176
(dp2177
g753
I1
ss(S'a'
g306
tp2178
(dp2179
S','
I1
ss(g789
g465
tp2180
(dp2181
g476
I1
ss(g265
S','
tp2182
(dp2183
g28
I1
ss(g194
g165
tp2184
(dp2185
g82
I1
ss(S','
g302
tp2186
(dp2187
g566
I1
ss(g722
g1473
tp2188
(dp2189
g1455
I1
ss(g100
g380
tp2190
(dp2191
S';'
I1
ss(g1089
g255
tp2192
(dp2193
g326
I1
ss(g239
g278
tp2194
(dp2195
g188
I1
ss(g396
g360
tp2196
(dp2197
g187
I1
ss(S'to'
p2198
g1187
tp2199
(dp2200
g250
I1
ss(g1248
g1396
tp2201
(dp2202
S'into'
p2203
I1
ss(S'him'
p2204
g205
tp2205
(dp2206
g552
I1
sg156
I1
ss(g1150
g1190
tp2207
(dp2208
S';'
I1
ss(g898
g73
tp2209
(dp2210
g1489
I1
sg390
I1
ss(g700
g394
tp2211
(dp2212
g1066
I1
ss(g665
g272
tp2213
(dp2214
g1602
I1
ss(g1066
S'?'
tp2215
(dp2216
S'\x00'
I1
ss(g244
S','
tp2217
(dp2218
S'I'
I1
ss(g368
S'I'
tp2219
(dp2220
g192
I1
ss(S';'
g1424
tp2221
(dp2222
g1372
I1
sg106
I1
sg1375
I1
sg125
I3
sg1376
I1
sg1379
I1
sg1377
I1
ss(S';'
g420
tp2223
(dp2224
S','
I1
ss(g99
S','
tp2225
(dp2226
S'I'
I1
ss(g35
g1612
tp2227
(dp2228
g1385
I1
ss(g389
S','
tp2229
(dp2230
S'-'
I1
ss(g119
g403
tp2231
(dp2232
g756
I1
ss(g2050
g1454
tp2233
(dp2234
g9
I1
ss(g208
g1731
tp2235
(dp2236
S'you'
p2237
I1
ss(g290
g114
tp2238
(dp2239
g358
I1
ss(g834
g294
tp2240
(dp2241
S'?'
I1
ss(g93
g633
tp2242
(dp2243
g406
I1
ss(S','
g618
tp2244
(dp2245
g1577
I1
sg64
I1
sS'are'
p2246
I1
sg83
I1
ss(g930
S','
tp2247
(dp2248
S'and'
p2249
I1
ss(g98
g753
tp2250
(dp2251
g1315
I1
ss(g1701
g992
tp2252
(dp2253
g51
I1
ss(S','
g616
tp2254
(dp2255
S'do'
p2256
I1
sS'suffer'
p2257
I1
ss(S','
g176
tp2258
(dp2259
S'\x00'
I1
sg321
I1
sg847
I1
sg849
I1
sg852
I1
sg853
I1
sg329
I1
sg194
I1
sg854
I1
ss(S','
g621
tp2260
(dp2261
S'the'
p2262
I1
sg365
I1
ss(g201
g277
tp2263
(dp2264
g379
I1
ss(g779
g182
tp2265
(dp2266
g421
I1
ss(g70
g808
tp2267
(dp2268
g146
I1
ss(g1716
g1380
tp2269
(dp2270
g746
I1
ss(g1743
g667
tp2271
(dp2272
S'of'
p2273
I1
ss(g2246
S'a'
tp2274
(dp2275
g206
I1
ss(g1539
g7
tp2276
(dp2277
g1121
I1
ss(g316
g1114
tp2278
(dp2279
g648
I1
ss(g1177
g1082
tp2280
(dp2281
S'be'
p2282
I1
ss(g367
g334
tp2283
(dp2284
g1358
I1
ss(S'the'
p2285
g1161
tp2286
(dp2287
g1111
I1
ss(g833
g127
tp2288
(dp2289
S','
I1
ss(g133
S'.'
tp2290
(dp2291
g911
I1
ss(g348
S','
tp2292
(dp2293
S'or'
p2294
I1
ss(g1205
g160
tp2295
(dp2296
g1069
I1
ss(g356
g689
tp2297
(dp2298
g781
I1
ss(g8
g128
tp2299
(dp2300
S'I'
I1
ss(g26
g79
tp2301
(dp2302
g700
I1
ss(g1175
g364
tp2303
(dp2304
g1666
I1
ss(g614
g997
tp2305
(dp2306
g247
I1
sg391
I1
ss(g584
g350
tp2307
(dp2308
g435
I1
ss(g293
g1748
tp2309
(dp2310
S'the'
p2311
I1
ss(S'is'
p2312
g85
tp2313
(dp2314
g935
I1
ss(S';'
g1429
tp2315
(dp2316
S'would'
p2317
I1
ss(g200
g468
tp2318
(dp2319
g432
I1
ss(g55
g1547
tp2320
(dp2321
S'.'
I1
ss(g309
S'.'
tp2322
(dp2323
g147
I1
ss(g1351
g237
tp2324
(dp2325
g924
I1
ss(g62
g537
tp2326
(dp2327
g158
I1
sg45
I1
ss(g424
g1031
tp2328
(dp2329
g1314
I3
ss(S'I'
g286
tp2330
(dp2331
S'.'
I1
ss(g1602
g213
tp2332
(dp2333
g658
I1
ss(S','
g368
tp2334
(dp2335
S'I'
I1
ss(S'who'
p2336
g552
tp2337
(dp2338
g204
I1
ss(g491
g1206
tp2339
(dp2340
g174
I1
ss(g243
g975
tp2341
(dp2342
g1578
I1
sg1580
I1
ss(S'be'
p2343
g291
tp2344
(dp2345
g1446
I1
ss(S'the'
p2346
g113
tp2347
(dp2348
g401
I1
ss(g1512
g282
tp2349
(dp2350
g408
I1
ss(S' '
g211
tp2351
(dp2352
g397
I1
ss(g199
g1458
tp2353
(dp2354
g242
I1
ss(S'?'
S'('
tp2355
(dp2356
g805
I1
ss(S'the'
p2357
g1158
tp2358
(dp2359
g164
I1
sg418
I1
sg68
I1
ss(g408
g431
tp2360
(dp2361
g244
I1
ss(g226
g833
tp2362
(dp2363
g127
I1
ss(g7
g1121
tp2364
(dp2365
S'he'
p2366
I1
ss(g1498
g869
tp2367
(dp2368
g113
I1
sg189
I1
sg46
I1
ss(S'that'
p2369
g854
tp2370
(dp2371
S'a'
I1
ss(S','
g615
tp2372
(dp2373
g169
I1
ss(g817
g763
tp2374
(dp2375
g62
I1
ss(g633
g406
tp2376
(dp2377
g1559
I1
ss(S'.'
g912
tp2378
(dp2379
g152
I1
ss(g142
g1626
tp2380
(dp2381
g425
I1
ss(g177
g373
tp2382
(dp2383
S'a'
I1
sg229
I1
ss(g1612
g1385
tp2384
(dp2385
g98
I1
sg1156
I1
ss(S'that'
p2386
S'\x00'
tp2387
(dp2388
S'\x00'
I3
ss(g305
g1287
tp2389
(dp2390
g1552
I1
ss(g1384
S'I'
tp2391
(dp2392
g32
I1
ss(S'mean'
p2393
S','
tp2394
(dp2395
S'and'
p2396
I1
ss(S','
g407
tp2397
(dp2398
S'I'
I2
sg317
I1
sg607
I1
ss(g110
g313
tp2399
(dp2400
g1589
I1
ss(g2237
g1576
tp2401
(dp2402
g850
I1
ss(S'that'
p2403
g852
tp2404
(dp2405
g34
I1
ss(g1355
g395
tp2406
(dp2407
S','
I1
ss(g1159
g1632
tp2408
(dp2409
g25
I1
ss(g513
g10
tp2410
(dp2411
g371
I1
ss(g1799
g649
tp2412
(dp2413
g1055
I1
ss(S'a'
g723
tp2414
(dp2415
g925
I1
ss(g1425
g47
tp2416
(dp2417
g1550
I1
sg337
I1
ss(S'for'
p2418
g996
tp2419
(dp2420
S'the'
p2421
I1
ss(g128
S'I'
tp2422
(dp2423
g1175
I1
ss(g102
g584
tp2424
(dp2425
g350
I1
ss(S'I'
g1177
tp2426
(dp2427
g1082
I1
ss(g407
g317
tp2428
(dp2429
g210
I1
ss(g1280
g479
tp2430
(dp2431
S'say'
p2432
I1
ss(S'better'
p2433
g1107
tp2434
(dp2435
g118
I2
ss(S','
g625
tp2436
(dp2437
g1312
I1
ss(g869
g189
tp2438
(dp2439
S'.'
I1
ss(g2037
S'?'
tp2440
(dp2441
S'\x00'
I1
ss(g37
g676
tp2442
(dp2443
g289
I1
ss(g846
g36
tp2444
(dp2445
g1306
I1
ss(g143
g1671
tp2446
(dp2447
S'.'
I1
ss(g114
g358
tp2448
(dp2449
S'a'
I1
ss(S'or'
p2450
g733
tp2451
(dp2452
g416
I1
ss(S','
g610
tp2453
(dp2454
g1695
I1
ss(g510
g318
tp2455
(dp2456
g916
I1
ss(g1293
g218
tp2457
(dp2458
g985
I1
ss(g41
g201
tp2459
(dp2460
g277
I1
ss(g1287
g1552
tp2461
(dp2462
g123
I1
sg267
I1
ss(S'of'
p2463
g45
tp2464
(dp2465
S','
I1
ss(g1083
g245
tp2466
(dp2467
g1023
I1
ss(g1704
g260
tp2468
(dp2469
g1086
I1
ss(g993
g1490
tp2470
(dp2471
g727
I1
ss(g183
S','
tp2472
(dp2473
g212
I1
ss(g1374
g402
tp2474
(dp2475
g1038
I1
ss(g144
g1495
tp2476
(dp2477
S'he'
p2478
I1
ss(S'but'
p2479
g285
tp2480
(dp2481
g799
I1
ss(g651
g1476
tp2482
(dp2483
g341
I1
ss(g167
S','
tp2484
(dp2485
S'he'
p2486
I1
ss(g630
g121
tp2487
(dp2488
S'.'
I1
ss(g101
g1586
tp2489
(dp2490
g851
I1
ss(g323
g11
tp2491
(dp2492
g1621
I1
ss(S'justice'
p2493
S'-'
tp2494
(dp2495
g1442
I1
ss(S'you'
p2496
g153
tp2497
(dp2498
g1280
I1
ss(g1993
g184
tp2499
(dp2500
g880
I1
ss(g212
S'-'
tp2501
(dp2502
g16
I1
ss(g1063
g231
tp2503
(dp2504
g684
I1
ss(g240
g681
tp2505
(dp2506
S'you'
p2507
I1
ss(g1671
S'.'
tp2508
(dp2509
S'\x00'
I1
ss(g92
g858
tp2510
(dp2511
g1182
I2
ss(g40
g1230
tp2512
(dp2513
S'they'
p2514
I1
ss(g1178
g42
tp2515
(dp2516
g587
I1
ss(g372
g636
tp2517
(dp2518
g1736
I1
ss(g1583
g81
tp2519
(dp2520
S';'
I1
sS','
I1
ss(g349
g1330
tp2521
(dp2522
g170
I1
ss(g2514
g576
tp2523
(dp2524
S'the'
p2525
I1
sg972
I1
ss(g1169
g191
tp2526
(dp2527
g1355
I1
sS'.'
I1
ss(g997
g391
tp2528
(dp2529
g220
I1
sg172
I1
ss(g322
S','
tp2530
(dp2531
S'and'
p2532
I1
sS'Chaerephon'
p2533
I1
ss(S':'
g1684
tp2534
(dp2535
g1159
I1
ss(g1126
g697
tp2536
(dp2537
g2357
I1
ss(g1162
g1146
tp2538
(dp2539
g1313
I1
ss(g121
S'.'
tp2540
(dp2541
g426
I1
ss(S':'
g1682
tp2542
(dp2543
S','
I1
ss(g1595
g422
tp2544
(dp2545
S','
I1
ss(g1713
g1164
tp2546
(dp2547
g950
I1
sS','
I1
ss(g258
g968
tp2548
(dp2549
g414
I1
ss(g377
g311
tp2550
(dp2551
g1716
I1
ss(S','
g300
tp2552
(dp2553
S','
I1
ss(g1578
g67
tp2554
(dp2555
g772
I1
ss(S':'
g1681
tp2556
(dp2557
g2496
I1
ss(g2532
S'I'
tp2558
(dp2559
g286
I1
ss(g566
g1365
tp2560
(dp2561
g323
I1
ss(g233
g980
tp2562
(dp2563
g410
I1
ss(g679
g1615
tp2564
(dp2565
g216
I1
ss(g953
g386
tp2566
(dp2567
g186
I1
ss(g1682
S','
tp2568
(dp2569
S'for'
p2570
I1
ss(g74
g1324
tp2571
(dp2572
g2343
I1
ss(g227
S'.'
tp2573
(dp2574
S'\x00'
I1
sS'For'
p2575
I1
ss(g1354
g1171
tp2576
(dp2577
S'thought'
p2578
I1
sg357
I1
ss(g77
S','
tp2579
(dp2580
S'as'
p2581
I1
ss(g174
g824
tp2582
(dp2583
g1935
I1
sS'them'
p2584
I1
ss(g680
g135
tp2585
(dp2586
g540
I1
ss(g218
g985
tp2587
(dp2588
g2204
I1
ss(g623
g1551
tp2589
(dp2590
g866
I1
ss(g613
g353
tp2591
(dp2592
g1293
I1
ss(g46
g1509
tp2593
(dp2594
g1318
I1
ss(g880
g463
tp2595
(dp2596
g1189
I1
ss(g380
S';'
tp2597
(dp2598
S'and'
p2599
I1
ss(g47
g337
tp2600
(dp2601
g320
I1
ss(S';'
S'I'
tp2602
(dp2603
g405
I1
ss(g146
S','
tp2604
(dp2605
S'and'
p2606
I1
ss(g1004
g514
tp2607
(dp2608
g14
I1
sS'is'
p2609
I1
ss(S':'
g141
tp2610
(dp2611
g601
I1
ss(g312
g1432
tp2612
(dp2613
S'a'
I1
ss(S' '
g104
tp2614
(dp2615
g1408
I2
ss(g576
g972
tp2616
(dp2617
g69
I1
ss(g296
g1339
tp2618
(dp2619
g52
I1
ss(g1110
g314
tp2620
(dp2621
g1264
I1
ss(S';'
g1428
tp2622
(dp2623
g48
I1
ss(g330
g1466
tp2624
(dp2625
g89
I1
ss(g393
g126
tp2626
(dp2627
g663
I1
ss(g215
g1193
tp2628
(dp2629
g23
I1
ss(g992
g51
tp2630
(dp2631
g1153
I1
ss(g2294
g731
tp2632
(dp2633
g12
I1
ss(g108
S','
tp2634
(dp2635
S'that'
p2636
I1
ss(g2570
g331
tp2637
(dp2638
S','
I1
ss(g723
g925
tp2639
(dp2640
g60
I1
ss(g617
g1456
tp2641
(dp2642
g974
I1
sg263
I1
ss(g911
g680
tp2643
(dp2644
g1162
I1
sg135
I1
ss(g1521
g1200
tp2645
(dp2646
g505
I1
ss(g1476
g341
tp2647
(dp2648
S','
I3
ss(g435
g37
tp2649
(dp2650
g676
I1
sS'.'
I1
ss(g527
g86
tp2651
(dp2652
g327
I1
ss(S'.'
g913
tp2653
(dp2654
S'me'
p2655
I1
ss(g781
g944
tp2656
(dp2657
S';'
I1
ss(g27
g641
tp2658
(dp2659
S','
I1
ss(g401
g107
tp2660
(dp2661
g928
I1
ss(g123
g1242
tp2662
(dp2663
g347
I2
ss(g155
g1658
tp2664
(dp2665
g1564
I1
ss(g289
g1046
tp2666
(dp2667
g1386
I1
ss(g827
g304
tp2668
(dp2669
g1216
I1
ss(S'be'
p2670
g1665
tp2671
(dp2672
S'and'
p2673
I1
ss(g300
S','
tp2674
(dp2675
g626
I1
ss(g1339
g52
tp2676
(dp2677
S'.'
I1
ss(g249
g1469
tp2678
(dp2679
g388
I1
ss(g170
g44
tp2680
(dp2681
g843
I1
ss(g87
S'?'
tp2682
(dp2683
S'\x00'
I1
ss(S'a'
g177
tp2684
(dp2685
g373
I1
ss(g636
g1736
tp2686
(dp2687
g342
I1
ss(g43
g471
tp2688
(dp2689
g1186
I1
ss(g85
g935
tp2690
(dp2691
g1163
I1
ss(g33
S','
tp2692
(dp2693
g290
I1
ss(g255
g326
tp2694
(dp2695
g630
I1
ss(S'the'
p2696
g119
tp2697
(dp2698
g403
I1
sg308
I1
ss(g51
g1153
tp2699
(dp2700
g1286
I1
ss(g581
g322
tp2701
(dp2702
S','
I2
ss(S'Gorgias'
p2703
g1550
tp2704
(dp2705
g88
I1
ss(S' '
g87
tp2706
(dp2707
S'?'
I1
ss(g1490
g727
tp2708
(dp2709
g1157
I1
ss(g202
g1529
tp2710
(dp2711
g330
I1
ss(S'are'
p2712
g971
tp2713
(dp2714
g412
I1
ss(g335
g307
tp2715
(dp2716
S','
I1
ss(g333
g965
tp2717
(dp2718
g207
I1
ss(g292
g448
tp2719
(dp2720
g644
I1
ss(g260
g1086
tp2721
(dp2722
g281
I1
ss(g268
g1705
tp2723
(dp2724
g1110
I1
ss(g1366
g976
tp2725
(dp2726
g197
I1
sg1161
I1
sg2149
I1
ss(g245
g1023
tp2727
(dp2728
g354
I1
ss(g821
g305
tp2729
(dp2730
g1287
I1
ss(S'I'
g192
tp2731
(dp2732
g1512
I1
ss(g1592
g867
tp2733
(dp2734
g1457
I1
ss(g285
g799
tp2735
(dp2736
g2285
I1
ss(g850
g228
tp2737
(dp2738
g1124
I1
sg1126
I1
ss(g1911
g950
tp2739
(dp2740
S'what'
p2741
I1
ss(S'-'
g1442
tp2742
(dp2743
S'the'
p2744
I1
ss(g1451
g1367
tp2745
(dp2746
S'are'
p2747
I1
ss(g794
S'I'
tp2748
(dp2749
g136
I1
ss(g205
g156
tp2750
(dp2751
g703
I1
ss(g627
g345
tp2752
(dp2753
g1035
I1
ss(g925
g60
tp2754
(dp2755
g1648
I1
ss(g1239
g233
tp2756
(dp2757
g980
I1
ss(S'would'
p2758
g155
tp2759
(dp2760
g1658
I1
ss(g172
g92
tp2761
(dp2762
g858
I2
ss(g1199
g101
tp2763
(dp2764
g1586
I1
ss(g457
g319
tp2765
(dp2766
g1402
I1
ss(S'man'
p2767
g1091
tp2768
(dp2769
g553
I1
ss(g507
g166
tp2770
(dp2771
S':'
I1
ss(g796
g424
tp2772
(dp2773
g1031
I3
ss(S'the'
p2774
g78
tp2775
(dp2776
S';'
I1
ss(g122
g109
tp2777
(dp2778
S','
I1
ss(g319
g1402
tp2779
(dp2780
S'have'
p2781
I1
ss(g152
S','
tp2782
(dp2783
S'as'
p2784
I1
ss(g42
g587
tp2785
(dp2786
g108
I1
ss(g25
g827
tp2787
(dp2788
g304
I1
ss(g14
S'"'
tp2789
(dp2790
g377
I1
ss(S'I'
g161
tp2791
(dp2792
S';'
I1
ss(g261
g222
tp2793
(dp2794
g301
I1
ss(g2533
S','
tp2795
(dp2796
S'is'
p2797
I1
sg368
I1
ss(g921
g1754
tp2798
(dp2799
g63
I1
ss(g1075
g203
tp2800
(dp2801
g1143
I1
ss(g400
g261
tp2802
(dp2803
g222
I1
ss(S','
g413
tp2804
(dp2805
g956
I1
ss(g38
g1169
tp2806
(dp2807
g191
I2
ss(g109
S','
tp2808
(dp2809
S'and'
p2810
I1
ss(S';'
g1427
tp2811
(dp2812
g789
I1
sg786
I1
ss(g274
S'.'
tp2813
(dp2814
g912
I1
ss(g60
g1648
tp2815
(dp2816
g1378
I1
ss(S';'
g328
tp2817
(dp2818
S','
I1
ss(g416
g1007
tp2819
(dp2820
g276
I1
ss(g340
g1674
tp2821
(dp2822
S'they'
p2823
I1
ss(g2797
g651
tp2824
(dp2825
g1476
I1
ss(g1090
g1183
tp2826
(dp2827
g1513
I3
ss(g1408
g655
tp2828
(dp2829
g35
I1
sg183
I1
sg119
I1
sg1158
I1
ss(g361
g1075
tp2830
(dp2831
g203
I1
ss(S'a'
g95
tp2832
(dp2833
S','
I1
ss(g1019
g343
tp2834
(dp2835
g224
I1
ss(S':'
g1680
tp2836
(dp2837
g91
I1
ss(g2317
g415
tp2838
(dp2839
g18
I1
ss(g214
g901
tp2840
(dp2841
g2463
I1
ss(g964
g30
tp2842
(dp2843
g1399
I1
ss(g366
S','
tp2844
(dp2845
g2386
I1
ss(S' '
S'O'
tp2846
(dp2847
g534
I1
ss(g1489
g84
tp2848
(dp2849
g372
I1
ss(g54
g780
tp2850
(dp2851
g270
I1
ss(S'is'
p2852
g653
tp2853
(dp2854
g666
I1
ss(g161
S';'
tp2855
(dp2856
g1427
I1
ss(g68
S'.'
tp2857
(dp2858
S'\x00'
I1
ss(g780
g270
tp2859
(dp2860
g1351
I1
ss(g1298
g796
tp2861
(dp2862
g27
I1
sg424
I2
ss(g294
S'?'
tp2863
(dp2864
g240
I1
ss(g230
g179
tp2865
(dp2866
g1711
I1
ss(g154
g938
tp2867
(dp2868
g387
I1
ss(g298
g1132
tp2869
(dp2870
S','
I2
ss(g276
g1001
tp2871
(dp2872
g274
I1
ss(g339
g1043
tp2873
(dp2874
g1184
I1
ss(g471
g1186
tp2875
(dp2876
g510
I1
ss(g234
S','
tp2877
(dp2878
g1848
I1
sg620
I1
ss(g575
S','
tp2879
(dp2880
S'that'
p2881
I2
ss(g1301
g417
tp2882
(dp2883
g1576
I1
sS'.'
I1
ss(g168
g1245
tp2884
(dp2885
g1198
I1
ss(g78
S';'
tp2886
(dp2887
g2026
I1
ss(g746
g159
tp2888
(dp2889
g861
I1
ss(g625
g1312
tp2890
(dp2891
g1000
I1
ss(S' '
g269
tp2892
(dp2893
S'.'
I3
ss(g1677
g264
tp2894
(dp2895
g1573
I1
ss(g624
S','
tp2896
(dp2897
g613
I1
ss(S' '
g181
tp2898
(dp2899
g378
I1
ss(g650
g846
tp2900
(dp2901
S'better'
p2902
I1
sg36
I1
sg293
I1
ss(g259
S';'
tp2903
(dp2904
S'and'
p2905
I1
ss(g1559
g1546
tp2906
(dp2907
g140
I1
ss(S'but'
p2908
g788
tp2909
(dp2910
g53
I1
ss(g1375
g254
tp2911
(dp2912
g1708
I1
ss(S'mean'
p2913
g548
tp2914
(dp2915
g180
I1
sS'more'
p2916
I1
ss(g743
g157
tp2917
(dp2918
g1405
I1
ss(g59
g299
tp2919
(dp2920
g513
I1
ss(g1381
g855
tp2921
(dp2922
g55
I2
ss(g1432
S'a'
tp2923
(dp2924
g723
I1
ss(g254
g1708
tp2925
(dp2926
g137
I1
ss(g257
g363
tp2927
(dp2928
g348
I1
ss(g1007
g276
tp2929
(dp2930
g1001
I1
ss(g1031
g1314
tp2931
(dp2932
S';'
I2
sS':'
I1
sS','
I2
ss(g417
S'.'
tp2933
(dp2934
S'\x00'
I1
ss(g1754
g63
tp2935
(dp2936
g148
I1
ss(g1621
g312
tp2937
(dp2938
g1432
I1
ss(g115
g717
tp2939
(dp2940
g217
I1
ss(g350
g435
tp2941
(dp2942
g37
I2
ss(S'I'
g405
tp2943
(dp2944
g1743
I1
ss(g71
S','
tp2945
(dp2946
g2130
I1
sS'Socrates'
p2947
I1
sS'Chaerephon'
p2948
I1
ss(g318
g916
tp2949
(dp2950
S'you'
p2951
I1
ss(g299
g513
tp2952
(dp2953
g10
I1
sg1579
I1
ss(S'man'
p2954
g1090
tp2955
(dp2956
g1183
I1
ss(S'greater'
p2957
g308
tp2958
(dp2959
S';'
I1
ss(g24
g1072
tp2960
(dp2961
g1701
I1
ss(g149
S','
tp2962
(dp2963
g268
I1
ss(S','
g611
tp2964
(dp2965
S'he'
p2966
I1
ss(S'and'
p2967
g1377
tp2968
(dp2969
S'he'
p2970
I1
ss(g1424
g106
tp2971
(dp2972
g527
I1
sg529
I1
ss(g2366
g247
tp2973
(dp2974
g821
I1
ss(g1705
g1110
tp2975
(dp2976
g314
I1
ss(g278
g188
tp2977
(dp2978
g100
I1
ss(S'injustice'
p2979
g888
tp2980
(dp2981
g2696
I1
sg85
I1
ss(g267
g369
tp2982
(dp2983
g795
I1
ss(g362
g234
tp2984
(dp2985
S','
I1
ss(g413
g956
tp2986
(dp2987
g178
I1
ss(g197
g1687
tp2988
(dp2989
g554
I1
ss(g248
g236
tp2990
(dp2991
g149
I1
ss(g1736
g342
tp2992
(dp2993
g1147
I1
ss(g20
g769
tp2994
(dp2995
g930
I1
ss(g363
g348
tp2996
(dp2997
S','
I1
ss(g9
g743
tp2998
(dp2999
g157
I1
ss(S'nature'
p3000
S':'
tp3001
(dp3002
g1683
I1
sg1684
I1
ss(S','
g613
tp3003
(dp3004
S'a'
I1
sg353
I1
ss(g2311
g35
tp3005
(dp3006
g1612
I1
ss(S'he'
p3007
g475
tp3008
(dp3009
g190
I1
sg162
I1
sg652
I1
sg251
I1
ss(S'Yes'
p3010
S'.'
tp3011
(dp3012
S'\x00'
I3
ss(g398
S'?'
tp3013
(dp3014
S'('
I1
ss(g97
S','
tp3015
(dp3016
g2908
I1
ss(g137
S','
tp3017
(dp3018
S'as'
p3019
I1
ss(g619
g74
tp3020
(dp3021
g1324
I1
ss(g1455
g647
tp3022
(dp3023
g1963
I1
ss(g1806
g1384
tp3024
(dp3025
S'I'
I1
ss(g1698
S';'
tp3026
(dp3027
g1425
I1
ss(g2951
S';'
tp3028
(dp3029
S'and'
p3030
I1
ss(g1114
g648
tp3031
(dp3032
S'modest'
p3033
I1
ss(g1186
g510
tp3034
(dp3035
g318
I1
ss(g1184
g1663
tp3036
(dp3037
S'?'
I1
ss(g1311
g1753
tp3038
(dp3039
g257
I1
ss(g475
g652
tp3040
(dp3041
S'to'
p3042
I1
ss(S'they'
p3043
g575
tp3044
(dp3045
S','
I1
ss(g422
S','
tp3046
(dp3047
S'Socrates'
p3048
I1
ss(S' '
g163
tp3049
(dp3050
g445
I1
ss(g338
g581
tp3051
(dp3052
g322
I2
ss(g2575
g679
tp3053
(dp3054
g1615
I1
ss(g116
g154
tp3055
(dp3056
g938
I1
ss(g732
g834
tp3057
(dp3058
g294
I1
ss(S'Yes'
p3059
S';'
tp3060
(dp3061
g1428
I1
sg1426
I2
ss(g238
g898
tp3062
(dp3063
g73
I1
ss(g802
g335
tp3064
(dp3065
g307
I1
ss(g1579
g973
tp3066
(dp3067
S'earnest'
p3068
I1
ss(g1187
g250
tp3069
(dp3070
g1609
I1
ss(g402
g1038
tp3071
(dp3072
S','
I1
ss(g104
g1408
tp3073
(dp3074
g655
I1
sg645
I1
ss(g386
g186
tp3075
(dp3076
S'a'
I1
ss(g2747
g263
tp3077
(dp3078
g1506
I1
ss(g529
g1704
tp3079
(dp3080
g260
I1
ss(g269
S'.'
tp3081
(dp3082
S'\x00'
I3
ss(g1236
g994
tp3083
(dp3084
g411
I1
ss(g176
g194
tp3085
(dp3086
g165
I1
ss(S'I'
g32
tp3087
(dp3088
g173
I1
ss(g191
g1355
tp3089
(dp3090
g395
I1
ss(g1463
g929
tp3091
(dp3092
g384
I1
ss(g2947
S','
tp3093
(dp3094
g618
I1
sg243
I2
sS'that'
p3095
I1
ss(g1200
g505
tp3096
(dp3097
g21
I1
ss(g1206
g174
tp3098
(dp3099
g824
I1
ss(g733
g416
tp3100
(dp3101
g1007
I1
ss(S'say'
p3102
S'.'
tp3103
(dp3104
S'\x00'
I1
ss(g303
g287
tp3105
(dp3106
g392
I1
ss(g644
g764
tp3107
(dp3108
g995
I1
ss(g127
S','
tp3109
(dp3110
g176
I1
ss(g118
g1199
tp3111
(dp3112
g101
I1
ss(g1663
S'?'
tp3113
(dp3114
S'\x00'
I1
ss(S'I'
g58
tp3115
(dp3116
g399
I1
ss(S'.'
g426
tp3117
(dp3118
g1595
I1
ss(g1382
g225
tp3119
(dp3120
g1728
I1
ss(S'but'
p3121
g787
tp3122
(dp3123
S'a'
I1
ss(g866
g221
tp3124
(dp3125
g103
I1
ss(g2109
g529
tp3126
(dp3127
g1704
I1
ss(g432
g77
tp3128
(dp3129
S','
I1
ss(g1315
g921
tp3130
(dp3131
S'-'
I1
sg1754
I1
ss(g2966
g474
tp3132
(dp3133
g563
I1
ss(g410
g1463
tp3134
(dp3135
g929
I1
ss(S'a'
g206
tp3136
(dp3137
g404
I1
ss(g1405
g409
tp3138
(dp3139
g145
I1
ss(S'I'
g40
tp3140
(dp3141
g1230
I1
ss(S','
g284
tp3142
(dp3143
g50
I1
ss(g216
g941
tp3144
(dp3145
g1311
I1
ss(g1330
g170
tp3146
(dp3147
g44
I1
ss(g805
g665
tp3148
(dp3149
g272
I1
ss(S'be'
p3150
g120
tp3151
(dp3152
g370
I1
ss(g1576
g850
tp3153
(dp3154
g228
I1
ss(g553
g280
tp3155
(dp3156
g167
I1
ss(g1857
g551
tp3157
(dp3158
g528
I1
ss(g252
S','
tp3159
(dp3160
g627
I1
sg413
I1
sS'for'
p3161
I1
ss(g607
g39
tp3162
(dp3163
S','
I1
ss(g847
g506
tp3164
(dp3165
g486
I1
ss(g141
g601
tp3166
(dp3167
g214
I1
ss(g2599
g1375
tp3168
(dp3169
g254
I1
ss(g231
g684
tp3170
(dp3171
g2433
I2
ss(g1182
g1354
tp3172
(dp3173
g1171
I2
ss(g371
g324
tp3174
(dp3175
g8
I1
ss(g237
g924
tp3176
(dp3177
S'nature'
p3178
I1
ss(S'for'
p3179
g253
tp3180
(dp3181
g1016
I1
ss(g75
g129
tp3182
(dp3183
S','
I1
ss(S'was'
p3184
g172
tp3185
(dp3186
g92
I1
ss(S'you'
p3187
g1577
tp3188
(dp3189
g1020
I1
ss(g3019
g607
tp3190
(dp3191
g39
I1
ss(S'you'
p3192
g64
tp3193
(dp3194
g710
I1
ss(g2135
g365
tp3195
(dp3196
S','
I1
ss(g53
S'.'
tp3197
(dp3198
g295
I1
ss(g1157
g1532
tp3199
(dp3200
g43
I1
ss(g315
g694
tp3201
(dp3202
g93
I1
ss(g11
g1621
tp3203
(dp3204
g312
I1
ss(g421
S','
tp3205
(dp3206
g1767
I1
ss(g329
g1629
tp3207
(dp3208
g124
I1
ss(g145
S','
tp3209
(dp3210
g625
I1
ss(g1658
g1564
tp3211
(dp3212
S','
I1
ss(g166
S':'
tp3213
(dp3214
g1680
I1
ss(g184
g880
tp3215
(dp3216
g463
I1
ss(g1023
g354
tp3217
(dp3218
g1503
I1
ss(g1635
g258
tp3219
(dp3220
g968
I1
ss(g57
S';'
tp3221
(dp3222
g144
I1
ss(S'more'
p3223
g164
tp3224
(dp3225
g830
I1
ss(g228
g1124
tp3226
(dp3227
g61
I1
ss(S'I'
g1178
tp3228
(dp3229
g42
I1
ss(g689
g781
tp3230
(dp3231
g944
I1
ss(S'-'
g66
tp3232
(dp3233
g1521
I1
ss(g140
g1004
tp3234
(dp3235
g514
I1
ss(g1469
g388
tp3236
(dp3237
S':'
I1
ss(g44
g843
tp3238
(dp3239
g381
I1
ss(g2507
g1579
tp3240
(dp3241
S'a'
I1
sg238
I1
sg973
I1
ss(g645
g1233
tp3242
(dp3243
S','
I1
ss(S'not'
p3244
g241
tp3245
(dp3246
S'-'
I1
ss(g364
g1666
tp3247
(dp3248
g273
I1
sg142
I1
ss(g1193
g23
tp3249
(dp3250
g1028
I1
ss(g266
g1411
tp3251
(dp3252
g239
I1
ss(g658
g355
tp3253
(dp3254
g271
I1
ss(g994
g411
tp3255
(dp3256
g195
I1
ss(g17
g1137
tp3257
(dp3258
g2104
I1
ss(g615
g169
tp3259
(dp3260
g1052
I1
ss(g851
g90
tp3261
(dp3262
g438
I1
ss(S'same'
p3263
g134
tp3264
(dp3265
S'.'
I1
ss(g1069
g738
tp3266
(dp3267
g303
I2
ss(g463
g1189
tp3268
(dp3269
g349
I1
sg94
I1
ss(S','
g290
tp3270
(dp3271
g114
I1
sg653
I1
sg651
I1
sg649
I1
sg650
I1
ss(S'them'
p3272
S';'
tp3273
(dp3274
S'and'
p3275
I1
ss(g270
g1351
tp3276
(dp3277
g237
I1
ss(g113
g401
tp3278
(dp3279
g107
I1
ss(S'he'
p3280
g357
tp3281
(dp3282
S','
I1
ss(g130
S'.'
tp3283
(dp3284
S'And'
p3285
I1
ss(g3095
g853
tp3286
(dp3287
S','
I1
ss(g788
g53
tp3288
(dp3289
S'.'
I1
ss(g965
g207
tp3290
(dp3291
g133
I1
ss(S'a'
g132
tp3292
(dp3293
g1698
I1
ss(g250
g1609
tp3294
(dp3295
S','
I1
ss(S'the'
p3296
g22
tp3297
(dp3298
S','
I1
ss(S'be'
p3299
g139
tp3300
(dp3301
g1239
I1
ss(g325
g460
tp3302
(dp3303
g945
I1
ss(g193
g1011
tp3304
(dp3305
S'be'
p3306
I1
ss(g2581
S'I'
tp3307
(dp3308
g31
I1
sg161
I1
ss(g676
g289
tp3309
(dp3310
g1046
I1
ss(g2881
g329
tp3311
(dp3312
g1629
I1
ss(g63
g148
tp3313
(dp3314
S'.'
I1
ss(g2902
g1105
tp3315
(dp3316
g1382
I1
ss(g606
g72
tp3317
(dp3318
S','
I1
ss(g134
S'.'
tp3319
(dp3320
S'I'
I1
ss(g282
g408
tp3321
(dp3322
g431
I1
ss(g1111
g374
tp3323
(dp3324
g262
I1
ss(g2810
g356
tp3325
(dp3326
g689
I1
ss(g352
S'?'
tp3327
(dp3328
S'\x00'
I1
ss(g253
g1016
tp3329
(dp3330
S'own'
p3331
I1
ss(g162
g802
tp3332
(dp3333
g335
I1
ss(g156
g703
tp3334
(dp3335
g75
I1
ss(g412
g367
tp3336
(dp3337
g334
I1
ss(g976
g197
tp3338
(dp3339
g1687
I1
ss(g703
g75
tp3340
(dp3341
g129
I1
ss(g1683
S','
tp3342
(dp3343
g300
I1
ss(g397
g96
tp3344
(dp3345
S','
I1
ss(g327
g883
tp3346
(dp3347
S'a'
I1
ss(g18
g325
tp3348
(dp3349
g460
I1
ss(S','
g243
tp3350
(dp3351
g975
I2
sg184
I1
ss(g414
g1677
tp3352
(dp3353
g264
I1
ss(g852
g34
tp3354
(dp3355
g1140
I1
ss(g1626
g425
tp3356
(dp3357
S','
I1
ss(S'you'
p3358
g1578
tp3359
(dp3360
g241
I1
sg67
I1
ss(S','
g393
tp3361
(dp3362
g126
I1
sg787
I1
sg788
I1
sg285
I1
ss(g222
g301
tp3363
(dp3364
S'.'
I1
ss(g666
g266
tp3365
(dp3366
g1411
I1
ss(g1518
g200
tp3367
(dp3368
g468
I1
ss(g1183
g1513
tp3369
(dp3370
g875
I4
ss(S','
g624
tp3371
(dp3372
S','
I1
ss(g279
g71
tp3373
(dp3374
S','
I1
ss(g1213
g24
tp3375
(dp3376
g1072
I1
ss(g1158
g418
tp3377
(dp3378
S'.'
I1
ss(g83
g249
tp3379
(dp3380
g1469
I1
ss(S'and'
p3381
g38
tp3382
(dp3383
g1169
I1
ss(g404
S','
tp3384
(dp3385
S'and'
p3386
I1
ss(S'?'
S'\x00'
tp3387
(dp3388
S'\x00'
I18
ss(g181
g378
tp3389
(dp3390
g76
I1
ss(g646
S'I'
tp3391
(dp3392
S'conceive'
p3393
I1
sS'was'
p3394
I1
sg2393
I1
ss(S'is'
p3395
g251
tp3396
(dp3397
g1486
I1
ss(g1055
g820
tp3398
(dp3399
g2670
I1
ss(g3306
g310
tp3400
(dp3401
g65
I1
ss(S','
g623
tp3402
(dp3403
g1817
I1
sg1551
I1
ss(S','
S'I'
tp3404
(dp3405
g1174
I1
sg58
I1
sg40
I1
ss(S'himself'
p3406
S';'
tp3407
(dp3408
g2092
I1
ss(S'-'
g1443
tp3409
(dp3410
S'I'
I1
ss(g178
g344
tp3411
(dp3412
g1653
I1
ss(S'the'
p3413
g1162
tp3414
(dp3415
g1146
I1
ss(g730
g654
tp3416
(dp3417
g352
I1
ss(g1314
S';'
tp3418
(dp3419
g2967
I1
sg328
I1
sg2418
I1
ss(S'I'
g1174
tp3420
(dp3421
g1127
I1
ss(g505
g21
tp3422
(dp3423
g1479
I1
ss(g1509
g1318
tp3424
(dp3425
S','
I1
ss(g173
S'.'
tp3426
(dp3427
S'\x00'
I1
ss(g354
g1503
tp3428
(dp3429
g779
I1
ss(g2584
S'.'
tp3430
(dp3431
S'\x00'
I1
ss(g89
S','
tp3432
(dp3433
S'and'
p3434
I1
ss(g409
g145
tp3435
(dp3436
S','
I1
ss(g883
S'a'
tp3437
(dp3438
g177
I1
ss(S'('
g805
tp3439
(dp3440
g665
I1
ss(g284
g50
tp3441
(dp3442
g596
I1
ss(g204
g419
tp3443
(dp3444
S'a'
I1
ss(g3030
g1372
tp3445
(dp3446
S'he'
p3447
I1
ss(g136
g547
tp3448
(dp3449
S':'
I1
ss(S','
g619
tp3450
(dp3451
g551
I1
sg74
I1
sg2712
I1
ss(g283
g1220
tp3452
(dp3453
g464
I1
ss(g1513
g875
tp3454
(dp3455
g1713
I4
sg1712
I1
ss(g381
S','
tp3456
(dp3457
g617
I1
ss(g1143
g1310
tp3458
(dp3459
g1170
I1
ss(g36
g1306
tp3460
(dp3461
g219
I1
ss(g1086
g281
tp3462
(dp3463
S','
I1
ss(g1179
g41
tp3464
(dp3465
g201
I1
ss(g1503
g779
tp3466
(dp3467
g182
I1
ss(g337
g320
tp3468
(dp3469
g275
I1
ss(S'a'
g722
tp3470
(dp3471
g1473
I1
ss(g1327
g398
tp3472
(dp3473
S'?'
I1
ss(g23
g1028
tp3474
(dp3475
g3150
I1
ss(g1269
S'?'
tp3476
(dp3477
g1290
I1
ss(g48
g908
tp3478
(dp3479
S'the'
p3480
I1
ss(g317
g210
tp3481
(dp3482
g33
I1
ss(S'a'
g115
tp3483
(dp3484
g717
I1
ss(S','
g626
tp3485
(dp3486
g2198
I1
ss(g3393
g1719
tp3487
(dp3488
S'be'
p3489
I1
ss(g1458
g242
tp3490
(dp3491
g1539
I1
ss(g868
g248
tp3492
(dp3493
g236
I1
ss(g727
g1157
tp3494
(dp3495
g1532
I1
ss(g304
g1216
tp3496
(dp3497
g1373
I1
ss(S' '
g385
tp3498
(dp3499
g99
I1
ss(g103
g498
tp3500
(dp3501
S'he'
p3502
I1
ss(g15
S';'
tp3503
(dp3504
g3179
I1
ss(g220
g226
tp3505
(dp3506
g833
I1
ss(S';'
g144
tp3507
(dp3508
g1495
I1
ss(g506
g486
tp3509
(dp3510
g70
I1
ss(g1385
g1156
tp3511
(dp3512
S'.'
I1
ss(g3285
g1221
tp3513
(dp3514
g457
I1
ss(S';'
g1425
tp3515
(dp3516
g253
I1
sg996
I1
sg47
I2
ss(g928
g427
tp3517
(dp3518
g1283
I1
ss(g756
g1694
tp3519
(dp3520
g2957
I1
ss(g1802
g1106
tp3521
(dp3522
S'have'
p3523
I1
ss(g3161
g993
tp3524
(dp3525
g1490
I1
ss(g763
g62
tp3526
(dp3527
g537
I1
ss(g405
g1743
tp3528
(dp3529
g667
I1
ss(g1437
g977
tp3530
(dp3531
S'?'
I1
ss(S'the'
p3532
g180
tp3533
(dp3534
S'.'
I1
ss(g186
S'a'
tp3535
(dp3536
g2767
I1
ss(S','
g375
tp3537
(dp3538
g730
I1
sg731
I1
sg732
I1
sg733
I1
ss(g655
g183
tp3539
(dp3540
S','
I1
ss(g275
g235
tp3541
(dp3542
g56
I1
ss(g271
g297
tp3543
(dp3544
S','
I1
ss(S'is'
p3545
g645
tp3546
(dp3547
g1233
I1
ss(g1711
g111
tp3548
(dp3549
g252
I2
ss(g2578
S','
tp3550
(dp3551
g2168
I1
ss(g474
g563
tp3552
(dp3553
g1836
I1
ss(g425
S','
tp3554
(dp3555
g611
I1
ss(g138
S','
tp3556
(dp3557
g117
I1
ss(g738
g303
tp3558
(dp3559
S'.'
I1
sg134
I1
sg287
I1
ss(g1001
g274
tp3560
(dp3561
S'.'
I1
ss(g2609
g190
tp3562
(dp3563
g961
I1
ss(g1380
g746
tp3564
(dp3565
g159
I1
ss(S'they'
p3566
S':'
tp3567
(dp3568
g141
I1
ss(g385
g99
tp3569
(dp3570
S','
I1
ss(g861
g1317
tp3571
(dp3572
g332
I1
ss(S'you'
p3573
g83
tp3574
(dp3575
g249
I1
ss(S'I'
g136
tp3576
(dp3577
g547
I1
sg548
I1
sS','
I1
ss(g346
g362
tp3578
(dp3579
g234
I1
ss(g288
S','
tp3580
(dp3581
g2146
I1
ss(g91
S','
tp3582
(dp3583
S'if'
p3584
I1
ss(g3489
g1664
tp3585
(dp3586
g2493
I1
ss(g198
g1083
tp3587
(dp3588
g245
I1
ss(g2636
g849
tp3589
(dp3590
g794
I1
ss(g486
g70
tp3591
(dp3592
g808
I1
ss(g12
g1327
tp3593
(dp3594
g398
I1
ss(g1161
g1111
tp3595
(dp3596
g374
I1
ss(g19
g1526
tp3597
(dp3598
g1309
I1
ss(S','
S'-'
tp3599
(dp3600
g66
I1
ss(g90
g438
tp3601
(dp3602
g664
I1
ss(g182
g421
tp3603
(dp3604
S','
I1
ss(g1632
g25
tp3605
(dp3606
g827
I1
ss(g3584
S'a'
tp3607
(dp3608
g115
I1
sg316
I1
ss(g67
g772
tp3609
(dp3610
g3299
I1
ss(g427
g1283
tp3611
(dp3612
S'than'
p3613
I1
ss(S'.'
g283
tp3614
(dp3615
g1219
I1
sg1220
I1
sg1221
I1
ss(g394
g1066
tp3616
(dp3617
S'?'
I1
ss(S'.'
S'\x00'
tp3618
(dp3619
S'\x00'
I63
ss(g1427
g789
tp3620
(dp3621
g465
I1
ss(g307
S','
tp3622
(dp3623
S'he'
p3624
I1
ss(g96
S','
tp3625
(dp3626
g407
I1
sg3121
I1
ss(g196
g1063
tp3627
(dp3628
g231
I1
ss(S' '
g298
tp3629
(dp3630
g1132
I1
ss(g710
g54
tp3631
(dp3632
g780
I1
ss(g378
g76
tp3633
(dp3634
g138
I1
ss(g84
g372
tp3635
(dp3636
g636
I1
ss(g1124
g61
tp3637
(dp3638
g230
I1
ss(g941
g1311
tp3639
(dp3640
g1753
I1
ss(g875
g1712
tp3641
(dp3642
g15
I1
ss(g232
g1213
tp3643
(dp3644
g24
I1
ss(g192
g1512
tp3645
(dp3646
g282
I1
ss(g345
g1035
tp3647
(dp3648
S'a'
I1
ss(S' '
g150
tp3649
(dp3650
g1618
I1
ss(S'the'
p3651
g227
tp3652
(dp3653
S'.'
I2
ss(S' '
g338
tp3654
(dp3655
g581
I2
ss(g1586
g851
tp3656
(dp3657
g90
I1
sg576
I2
ss(g369
g795
tp3658
(dp3659
S';'
I1
sS','
I1
ss(g912
g152
tp3660
(dp3661
S','
I1
ss(g1648
g1378
tp3662
(dp3663
g171
I1
ss(g353
g1293
tp3664
(dp3665
g218
I1
ss(g1577
g1020
tp3666
(dp3667
g1868
I1
ss(g210
g33
tp3668
(dp3669
S','
I1
ss(g1774
g650
tp3670
(dp3671
g846
I1
ss(g351
g256
tp3672
(dp3673
g1205
I1
ss(g189
S'.'
tp3674
(dp3675
g283
I1
ss(g370
S','
tp3676
(dp3677
g284
I1
ss(g1712
g15
tp3678
(dp3679
S';'
I1
ss(g514
g14
tp3680
(dp3681
S'"'
I1
ss(g1176
g340
tp3682
(dp3683
g1674
I1
ss(g236
g149
tp3684
(dp3685
S','
I1
ss(S'would'
p3686
g110
tp3687
(dp3688
g313
I1
ss(S' '
g19
tp3689
(dp3690
g1526
I1
ss(g1457
g309
tp3691
(dp3692
S'.'
I1
ss(g180
S'.'
tp3693
(dp3694
S'\x00'
I1
ss(g1816
g29
tp3695
(dp3696
g1019
I1
ss(g311
g1716
tp3697
(dp3698
g1380
I1
ss(g540
S','
tp3699
(dp3700
S'Socrates'
p3701
I1
ss(g302
g566
tp3702
(dp3703
g1365
I1
ss(g16
g26
tp3704
(dp3705
g79
I1
ss(S'and'
p3706
g59
tp3707
(dp3708
g299
I1
ss(g753
g1315
tp3709
(dp3710
g921
I1
ss(g124
g1583
tp3711
(dp3712
g81
I2
ss(g3331
g151
tp3713
(dp3714
S','
I1
ss(g1107
g118
tp3715
(dp3716
S';'
I1
sS'.'
I1
sg1199
I1
ss(g1411
g239
tp3717
(dp3718
g278
I1
ss(g1000
g198
tp3719
(dp3720
g1083
I1
ss(g528
g964
tp3721
(dp3722
g30
I1
ss(g76
g138
tp3723
(dp3724
g116
I1
sS','
I1
ss(g587
g108
tp3725
(dp3726
S','
I1
ss(g1370
g1257
tp3727
(dp3728
g1185
I1
ss(g465
g476
tp3729
(dp3730
g1248
I1
ss(g151
S','
tp3731
(dp3732
S'I'
I1
ss(g2173
g94
tp3733
(dp3734
g893
I1
ss(g1757
g130
tp3735
(dp3736
S'.'
I1
ss(g1687
g554
tp3737
(dp3738
g196
I1
sg259
I1
sg971
I1
ss(S'and'
p3739
g17
tp3740
(dp3741
g1137
I1
ss(g135
g540
tp3742
(dp3743
S','
I1
ss(g326
g630
tp3744
(dp3745
g121
I1
ss(g944
S';'
tp3746
(dp3747
g1429
I1
ss(g45
S','
tp3748
(dp3749
g3739
I1
ss(g81
S';'
tp3750
(dp3751
g420
I1
ss(g855
g55
tp3752
(dp3753
g1547
I1
sg155
I1
sg415
I1
sS','
I1
sg110
I1
ss(g360
g187
tp3754
(dp3755
g1301
I1
ss(g1443
S'I'
tp3756
(dp3757
g1178
I1
ss(g975
g1580
tp3758
(dp3759
S'earnest'
p3760
I1
ss(g73
g390
tp3761
(dp3762
g351
I1
ss(g843
g381
tp3763
(dp3764
S','
I1
ss(g2256
g1126
tp3765
(dp3766
g697
I1
ss(g620
S';'
tp3767
(dp3768
g1424
I1
ss(g596
g1316
tp3769
(dp3770
g2336
I1
ss(S'You'
p3771
g102
tp3772
(dp3773
g584
I1
ss(g387
g1472
tp3774
(dp3775
g1188
I1
ss(g86
g327
tp3776
(dp3777
g883
I1
ss(g219
g1366
tp3778
(dp3779
g976
I1
ss(g251
g1486
tp3780
(dp3781
g105
I1
ss(g185
g1298
tp3782
(dp3783
g796
I1
ss(g273
g223
tp3784
(dp3785
S'.'
I1
ss(S','
g627
tp3786
(dp3787
g345
I1
sg3223
I1
ss(g1589
g122
tp3788
(dp3789
g109
I1
ss(g395
S','
tp3790
(dp3791
g2852
I1
ss(g968
g414
tp3792
(dp3793
g1677
I1
ss(S','
g622
tp3794
(dp3795
g475
I2
sg333
I1
sg2758
I2
ss(g213
g658
tp3796
(dp3797
g355
I1
ss(g374
g262
tp3798
(dp3799
g1150
I1
ss(g3386
g193
tp3800
(dp3801
g1011
I1
ss(g125
S','
tp3802
(dp3803
g302
I1
ss(g1472
g1188
tp3804
(dp3805
g205
I1
sS','
I1
ss(g1615
g216
tp3806
(dp3807
g941
I1
ss(S'our'
p3808
g1451
tp3809
(dp3810
g1367
I1
ss(g1185
S','
tp3811
(dp3812
S'that'
p3813
I1
ss(g1264
g606
tp3814
(dp3815
g72
I1
ss(g974
g97
tp3816
(dp3817
S','
I1
ss(g610
g1695
tp3818
(dp3819
g315
I1
sg3184
I1
ss(g295
g1635
tp3820
(dp3821
g258
I1
ss(g357
S','
tp3822
(dp3823
g3007
I1
ss(g341
S','
tp3824
(dp3825
g3381
I1
sg375
I2
ss(g313
g1589
tp3826
(dp3827
g122
I1
ss(g297
S','
tp3828
(dp3829
g2479
I1
ss(S'unjust'
p3830
S','
tp3831
(dp3832
S'and'
p3833
I1
ss(g190
g961
tp3834
(dp3835
g1319
I1
ss(g2905
g125
tp3836
(dp3837
g575
I1
sS':'
I1
sS','
I1
ss(g1552
g267
tp3838
(dp3839
g369
I1
ss(g225
g1728
tp3840
(dp3841
g1032
I1
ss(g1547
S'.'
tp3842
(dp3843
S'\x00'
I1
ss(S'drinks'
p3844
S'.'
tp3845
(dp3846
S'\x00'
I1
ss(g445
g209
tp3847
(dp3848
g346
I1
ss(S'.'
g911
tp3849
(dp3850
g679
I1
sg680
I2
ss(g399
S'I'
tp3851
(dp3852
g1179
I1
ss(g65
g1498
tp3853
(dp3854
g869
I1
ss(g2262
g27
tp3855
(dp3856
g641
I1
ss(g1056
S','
tp3857
(dp3858
g3192
I1
ss(S';'
g1426
tp3859
(dp3860
g848
I2
ss(g1666
g273
tp3861
(dp3862
g1105
I1
sg1107
I2
sg223
I1
sg1106
I1
ss(g977
S'?'
tp3863
(dp3864
S'\x00'
I1
ss(g336
S','
tp3865
(dp3866
g614
I1
ss(g551
g528
tp3867
(dp3868
g964
I1
ss(g241
S'-'
tp3869
(dp3870
g1443
I1
ss(g1216
g1373
tp3871
(dp3872
g20
I1
ss(g1220
g464
tp3873
(dp3874
S'are'
p3875
I1
ss(g418
S'.'
tp3876
(dp3877
S'For'
p3878
I1
ss(g165
g82
tp3879
(dp3880
g870
I1
ss(g314
g1264
tp3881
(dp3882
g606
I1
ss(S' '
g296
tp3883
(dp3884
g1339
I1
sg102
I1
ss(S'O'
g534
tp3885
(dp3886
S','
I1
ss(S' '
g143
tp3887
(dp3888
g1671
I1
ss(g256
g1205
tp3889
(dp3890
g160
I1
ss(g972
g69
tp3891
(dp3892
g1757
I1
ss(g1466
g89
tp3893
(dp3894
S','
I1
ss(g1221
g457
tp3895
(dp3896
g319
I1
ss(g49
g491
tp3897
(dp3898
g1206
I1
ss(g537
g158
tp3899
(dp3900
g1592
I1
ss(g34
g1140
tp3901
(dp3902
g2346
I1
ss(g281
S','
tp3903
(dp3904
g2403
I1
ss(g3813
g847
tp3905
(dp3906
g506
I1
ss(S'"'
g377
tp3907
(dp3908
g311
I1
ss(g223
S'.'
tp3909
(dp3910
S'\x00'
I1
ss(g1456
g974
tp3911
(dp3912
g97
I1
ss(g1189
g349
tp3913
(dp3914
g1330
I1
ss(g150
g1618
tp3915
(dp3916
g1089
I1
ss(S'.'
g295
tp3917
(dp3918
g1635
I1
ss(g22
S','
tp3919
(dp3920
S'the'
p3921
I1
ss(g808
g146
tp3922
(dp3923
S','
I1
ss(g1785
g383
tp3924
(dp3925
g80
I1
ss(g1395
g199
tp3926
(dp3927
g1458
I1
ss(g1546
g140
tp3928
(dp3929
g1004
I1
ss(g1376
g868
tp3930
(dp3931
g248
I1
ss(S' '
S'I'
tp3932
(dp3933
g1176
I1
sg2913
I1
ss(g310
g65
tp3934
(dp3935
g1498
I1
ss(g3833
g1374
tp3936
(dp3937
g402
I1
ss(g106
g527
tp3938
(dp3939
g86
I1
ss(g1358
g1236
tp3940
(dp3941
g994
I1
ss(g61
g230
tp3942
(dp3943
g179
I1
ss(g88
g279
tp3944
(dp3945
g71
I1
ss(g1049
S','
tp3946
(dp3947
g2450
I1
sS'that'
p3948
I1
ss(g79
g700
tp3949
(dp3950
g394
I1
ss(g347
g1049
tp3951
(dp3952
S';'
I1
sS','
I1
ss(g32
g173
tp3953
(dp3954
S'.'
I1
ss(S','
g212
tp3955
(dp3956
S'-'
I1
sS','
I2
ss(g80
g215
tp3957
(dp3958
g1193
I1
ss(g1342
g423
tp3959
(dp3960
S','
I1
ss(g1153
g1286
tp3961
(dp3962
g1788
I1
sg474
I1
sg208
I1
ss(g112
S','
tp3963
(dp3964
g3706
I1
ss(g277
g379
tp3965
(dp3966
g112
I1
ss(g554
g259
tp3967
(dp3968
S';'
I1
ss(g139
g1239
tp3969
(dp3970
g233
I1
ss(g3434
g1371
tp3971
(dp3972
g3808
I1
ss(S'?'
g240
tp3973
(dp3974
g681
I1
ss(g195
S','
tp3975
(dp3976
g615
I1
ss(g334
g1358
tp3977
(dp3978
g1236
I1
ss(g94
g893
tp3979
(dp3980
g3000
I1
ss(S'nature'
p3981
S','
tp3982
(dp3983
g616
I1
sg3573
I1
ss(S'a'
g131
tp3984
(dp3985
S'.'
I1
ss(g938
g387
tp3986
(dp3987
g1472
I1
ss(g383
g80
tp3988
(dp3989
g215
I1
ss(g1286
g208
tp3990
(dp3991
g1731
I1
ss(g158
g1592
tp3992
(dp3993
g867
I1
ss(g164
g830
tp3994
(dp3995
g2774
I1
ss(g331
S','
tp3996
(dp3997
g3187
I1
ss(g431
g244
tp3998
(dp3999
S','
I1
ss(g235
g56
tp4000
(dp4001
g400
I1
ss(g105
g1096
tp4002
(dp4003
S','
I1
ss(S'And'
p4004
g1219
tp4005
(dp4006
S'I'
I1
ss(g1974
g288
tp4007
(dp4008
S','
I1
ss(g411
g195
tp4009
(dp4010
S','
I1
ss(g221
g103
tp4011
(dp4012
g498
I1
ss(g1290
g1125
tp4013
(dp4014
g3244
I1
sg153
I1
ss(g207
g133
tp4015
(dp4016
S'.'
I1
ss(g1684
g1159
tp4017
(dp4018
g1632
I1
ss(g1043
g1184
tp4019
(dp4020
g1664
I1
sg120
I1
sg1663
I1
sg291
I1
sg310
I1
sg185
I1
sg139
I1
sg1665
I1
sg1946
I1
ss(g547
S':'
tp4021
(dp4022
g1681
I1
ss(g229
g336
tp4023
(dp4024
S','
I1
ss(g148
S'.'
tp4025
(dp4026
g4004
I1
ss(g308
S';'
tp4027
(dp4028
g1949
I1
ss(g107
g928
tp4029
(dp4030
g427
I1
ss(g848
g646
tp4031
(dp4032
S'I'
I3
sS'you'
p4033
I1
ss(g3948
g321
tp4034
(dp4035
g817
I1
ss(g654
g352
tp4036
(dp4037
S'?'
I1
ss(g1174
g1127
tp4038
(dp4039
g3532
I1
ss(g403
g756
tp4040
(dp4041
g1694
I1
ss(g246
g1437
tp4042
(dp4043
g977
I1
ss(g332
S','
tp4044
(dp4045
S'Gorgias'
p4046
I1
ss(g1680
g91
tp4047
(dp4048
S','
I1
ss(g1695
g315
tp4049
(dp4050
S','
I1
sg694
I1
ss(g2103
S'a'
tp4051
(dp4052
g306
I1
sg724
I2
ss(g358
S'a'
tp4053
(dp4054
g131
I1
sg95
I1
ss(g769
g930
tp4055
(dp4056
S','
I1
ss(S','
g620
tp4057
(dp4058
S';'
I1
sS','
I3
sS'?'
I1
ss(g1245
g1198
tp4059
(dp4060
g13
I1
ss(g64
g710
tp4061
(dp4062
g54
I1
ss(g179
g1711
tp4063
(dp4064
g111
I1
ss(g28
S'a'
tp4065
(dp4066
g132
I1
ss(g1242
g347
tp4067
(dp4068
g1049
I2
ss(g66
g1521
tp4069
(dp4070
g1200
I1
ss(g365
S','
tp4071
(dp4072
g2076
I1
ss(g373
g229
tp4073
(dp4074
g336
I1
ss(g1317
g332
tp4075
(dp4076
S','
I1
ss(S'-'
g16
tp4077
(dp4078
g26
I1
ss(g3875
g238
tp4079
(dp4080
g898
I1
ss(g117
S';'
tp4081
(dp4082
S'for'
p4083
I1
ss(g2916
g68
tp4084
(dp4085
S'.'
I1
ss(S'I'
g1179
tp4086
(dp4087
g1803
I1
sg41
I1
ss(g1146
g1313
tp4088
(dp4089
g2312
I1
ss(g291
g1446
tp4090
(dp4091
g1845
I1
ss(g320
g275
tp4092
(dp4093
g235
I1
ss(g1728
g1032
tp4094
(dp4095
S'more'
p4096
I1
ssa(dp4097
(g618
g2246
S'a'
tp4098
(dp4099
g206
I1
ss(S' '
g150
g1618
tp4100
(dp4101
g1089
I1
ss(g925
g60
g1648
tp4102
(dp4103
g1378
I1
ss(g307
S','
g3624
tp4104
(dp4105
g3395
I1
ss(g215
g1193
g23
tp4106
(dp4107
g1028
I1
ss(S';'
g1427
g789
tp4108
(dp4109
g465
I1
ss(g858
g1182
g1354
tp4110
(dp4111
g1171
I2
ss(g351
g256
g1205
tp4112
(dp4113
g160
I1
ss(g596
g1316
g2336
tp4114
(dp4115
g552
I1
ss(g610
g1695
g315
tp4116
(dp4117
g694
I1
ss(S' '
g211
g397
tp4118
(dp4119
g96
I1
ss(g222
g301
S'.'
tp4120
(dp4121
S'\x00'
I1
ss(g1428
g48
g908
tp4122
(dp4123
g3480
I1
ss(g1330
g170
g44
tp4124
(dp4125
g843
I1
ss(g1802
g1106
g3523
tp4126
(dp4127
S'more'
p4128
I1
ss(g140
g1004
g514
tp4129
(dp4130
g14
I1
ss(g505
g21
g1479
tp4131
(dp4132
g1974
I1
ss(g1380
g746
g159
tp4133
(dp4134
g861
I1
ss(g2336
g552
g204
tp4135
(dp4136
g419
I1
ss(g1974
g288
S','
tp4137
(dp4138
g2146
I1
ss(g1028
g3150
g120
tp4139
(dp4140
g370
I1
ss(g2486
g3686
g110
tp4141
(dp4142
g313
I1
ss(g292
g448
g644
tp4143
(dp4144
g764
I1
ss(g1187
g250
g1609
tp4145
(dp4146
S','
I1
ss(g156
g703
g75
tp4147
(dp4148
g129
I1
ss(g54
g780
g270
tp4149
(dp4150
g1351
I1
ss(S','
g616
g2257
tp4151
(dp4152
g2979
I1
ss(g74
g1324
g2343
tp4153
(dp4154
g291
I1
ss(g192
g1512
g282
tp4155
(dp4156
g408
I1
ss(g190
g961
g1319
tp4157
(dp4158
g1912
I1
ss(g710
g54
g780
tp4159
(dp4160
g270
I1
ss(g1107
g118
g1199
tp4161
(dp4162
g101
I1
ss(g1313
g2312
g85
tp4163
(dp4164
g935
I1
ss(g2198
g1187
g250
tp4165
(dp4166
g1609
I1
ss(g407
g317
g210
tp4167
(dp4168
g33
I1
ss(g299
g513
g10
tp4169
(dp4170
g371
I1
ss(g833
g127
S','
tp4171
(dp4172
g176
I1
ss(g3624
g3395
g251
tp4173
(dp4174
g1486
I1
ss(g1648
g1378
g171
tp4175
(dp4176
g376
I1
ss(g321
g817
g763
tp4177
(dp4178
g62
I1
ss(g1110
g314
g1264
tp4179
(dp4180
g606
I1
ss(g2479
g285
g799
tp4181
(dp4182
g2285
I1
ss(g356
g689
g781
tp4183
(dp4184
g944
I1
ss(g19
g1526
g1309
tp4185
(dp4186
g1827
I1
ss(g4046
g1817
g123
tp4187
(dp4188
g1242
I1
ss(g132
g1698
S';'
tp4189
(dp4190
g1425
I1
ss(g309
S'.'
g147
tp4191
(dp4192
g1518
I1
ss(S';'
g2967
g1377
tp4193
(dp4194
g2970
I1
ss(g297
S','
g2479
tp4195
(dp4196
g285
I1
ss(g1705
g1110
g314
tp4197
(dp4198
g1264
I1
ss(g391
g220
g226
tp4199
(dp4200
g833
I1
ss(g1573
g507
g166
tp4201
(dp4202
S':'
I1
ss(g1056
S','
g3192
tp4203
(dp4204
g64
I1
ss(g1457
g309
S'.'
tp4205
(dp4206
g147
I1
ss(g354
g1503
g779
tp4207
(dp4208
g182
I1
ss(g2019
g732
g834
tp4209
(dp4210
g294
I1
ss(g537
g158
g1592
tp4211
(dp4212
g867
I1
ss(g165
g82
g870
tp4213
(dp4214
g1998
I1
ss(S','
g3386
g193
tp4215
(dp4216
g1011
I1
ss(g1174
g1127
g3532
tp4217
(dp4218
g180
I1
ss(g994
g411
g195
tp4219
(dp4220
S','
I1
ss(S';'
g2092
g1379
tp4221
(dp4222
S','
I1
ss(g3059
S';'
g1426
tp4223
(dp4224
g848
I2
ss(g280
g167
S','
tp4225
(dp4226
g2486
I1
ss(g1378
g171
g376
tp4227
(dp4228
g175
I1
ss(g38
g1169
g191
tp4229
(dp4230
g1355
I1
sS'.'
I1
ss(g186
S'a'
g2767
tp4231
(dp4232
g1091
I1
ss(g2075
g3566
S':'
tp4233
(dp4234
g141
I1
ss(g272
g1602
g213
tp4235
(dp4236
g658
I1
ss(g241
S'-'
g1443
tp4237
(dp4238
S'I'
I1
ss(g115
g717
g217
tp4239
(dp4240
g1342
I1
ss(S'I'
g40
g1230
tp4241
(dp4242
g2514
I1
ss(g1799
g649
g1055
tp4243
(dp4244
g820
I1
ss(S'Yes'
p4245
S';'
g1428
tp4246
(dp4247
g48
I1
ss(g781
g944
S';'
tp4248
(dp4249
g1429
I1
ss(g880
g463
g1189
tp4250
(dp4251
g349
I1
ss(S','
g290
g114
tp4252
(dp4253
g358
I1
ss(S'contradict'
p4254
g3406
S';'
tp4255
(dp4256
g2092
I1
ss(g868
g248
g236
tp4257
(dp4258
g149
I1
ss(g743
g157
g1405
tp4259
(dp4260
g409
I1
ss(S'inferior'
p4261
S'.'
S'\x00'
tp4262
(dp4263
S'\x00'
I2
ss(S','
g3434
g1371
tp4264
(dp4265
g3808
I1
ss(S','
g2797
g651
tp4266
(dp4267
g1476
I1
ss(g2249
g2110
g98
tp4268
(dp4269
g753
I1
ss(g1162
g1146
g1313
tp4270
(dp4271
g2312
I1
ss(g883
S'a'
g177
tp4272
(dp4273
g373
I1
ss(g3000
S':'
g1683
tp4274
(dp4275
S','
I1
ss(g2578
S','
g2168
tp4276
(dp4277
g333
I1
ss(g187
g1301
g417
tp4278
(dp4279
S'.'
I1
ss(g491
g1206
g174
tp4280
(dp4281
g824
I1
ss(g475
g652
g3042
tp4282
(dp4283
g4254
I1
ss(S','
g614
g997
tp4284
(dp4285
g391
I1
ss(g44
g843
g381
tp4286
(dp4287
S','
I1
ss(g3393
g1719
g3489
tp4288
(dp4289
g1664
I1
ss(g553
g280
g167
tp4290
(dp4291
S','
I1
ss(g796
g424
g1031
tp4292
(dp4293
g1314
I3
ss(g231
g684
g2433
tp4294
(dp4295
g1107
I2
ss(g30
g1399
g57
tp4296
(dp4297
S';'
I1
ss(g944
S';'
g1429
tp4298
(dp4299
g2317
I1
ss(g834
g294
S'?'
tp4300
(dp4301
g240
I1
ss(g898
g73
g390
tp4302
(dp4303
g351
I1
ss(g1629
g124
g1583
tp4304
(dp4305
g81
I1
ss(g79
g700
g394
tp4306
(dp4307
g1066
I1
ss(g217
g1342
g423
tp4308
(dp4309
S','
I1
ss(S'-'
g16
g26
tp4310
(dp4311
g79
I1
ss(g607
g39
S','
tp4312
(dp4313
g612
I1
ss(g827
g304
g1216
tp4314
(dp4315
g1373
I1
ss(S','
g619
g74
tp4316
(dp4317
g1324
I1
ss(g246
g1437
g977
tp4318
(dp4319
S'?'
I1
ss(g961
g1319
g1912
tp4320
(dp4321
S'of'
p4322
I1
ss(S'more'
p4323
g1954
g1713
tp4324
(dp4325
g1164
I1
sg22
I1
sg227
I2
ss(g330
g1466
g89
tp4326
(dp4327
S','
I1
ss(g795
S','
g624
tp4328
(dp4329
S','
I1
ss(S','
g1848
g1381
tp4330
(dp4331
g1851
I1
sg1852
I1
sg855
I1
ss(g1427
g789
g465
tp4332
(dp4333
g476
I1
ss(g180
S'.'
S'\x00'
tp4334
(dp4335
S'\x00'
I2
ss(g287
g392
g1395
tp4336
(dp4337
g199
I1
ss(g1384
S'I'
g32
tp4338
(dp4339
g173
I1
ss(g624
S','
g613
tp4340
(dp4341
g353
I1
ss(g2273
g2584
S'.'
tp4342
(dp4343
S'\x00'
I1
ss(S'.'
g382
g953
tp4344
(dp4345
g386
I1
ss(g381
S','
g617
tp4346
(dp4347
g1456
I1
ss(g1845
g46
g1509
tp4348
(dp4349
g1318
I1
ss(g2026
g1376
g868
tp4350
(dp4351
g248
I1
ss(S','
g2450
g733
tp4352
(dp4353
g416
I1
ss(g855
g55
g1547
tp4354
(dp4355
S'.'
I1
ss(g612
g361
g1075
tp4356
(dp4357
g203
I1
ss(g1589
g122
g109
tp4358
(dp4359
S','
I1
ss(g468
g432
g77
tp4360
(dp4361
S','
I1
ss(g1031
g1314
S';'
tp4362
(dp4363
g2967
I1
sg2418
I1
ss(g2823
S'are'
p4364
g2525
tp4365
(dp4366
g2149
I1
ss(g843
g381
S','
tp4367
(dp4368
g617
I1
ss(g151
S','
S'I'
tp4369
(dp4370
g40
I1
ss(g1463
g929
g384
tp4371
(dp4372
g1269
I1
ss(S','
g2146
g1370
tp4373
(dp4374
g1257
I1
ss(S'What'
p4375
g3545
g645
tp4376
(dp4377
g1233
I1
ss(S';'
g1424
g106
tp4378
(dp4379
g527
I1
ss(g339
g1043
g1184
tp4380
(dp4381
g1663
I1
ss(g1216
g1373
g20
tp4382
(dp4383
g769
I1
ss(g1454
g9
g743
tp4384
(dp4385
g157
I1
ss(g345
g1035
S'a'
tp4386
(dp4387
g2954
I1
ss(g110
g313
g1589
tp4388
(dp4389
g122
I1
ss(g995
g1802
g1106
tp4390
(dp4391
g3523
I1
ss(g460
g945
g202
tp4392
(dp4393
g1529
I1
ss(S'.'
g4004
g1219
tp4394
(dp4395
S'I'
I1
ss(S','
g2019
g732
tp4396
(dp4397
g834
I1
ss(g221
g103
g498
tp4398
(dp4399
g3502
I1
ss(g149
S','
g268
tp4400
(dp4401
g1705
I1
ss(S','
g1774
g650
tp4402
(dp4403
g846
I1
ss(g929
g384
g1269
tp4404
(dp4405
S'?'
I1
ss(g1774
g650
g846
tp4406
(dp4407
g36
I1
ss(g2606
S'that'
p4408
g1851
tp4409
(dp4410
g293
I1
ss(S','
g611
g2966
tp4411
(dp4412
g474
I1
ss(g2957
g308
S';'
tp4413
(dp4414
g1949
I1
ss(S','
g2050
g1454
tp4415
(dp4416
g9
I1
ss(g1245
g1198
g13
tp4417
(dp4418
g389
I1
ss(g408
g431
g244
tp4419
(dp4420
S','
I1
ss(g763
g62
g537
tp4421
(dp4422
g158
I1
ss(g109
S','
g2810
tp4423
(dp4424
g356
I1
ss(g228
g1124
g61
tp4425
(dp4426
g230
I1
ss(g206
g404
S','
tp4427
(dp4428
g3386
I1
ss(g384
g1269
S'?'
tp4429
(dp4430
g1290
I1
ss(g2463
g45
S','
tp4431
(dp4432
g3739
I1
ss(g3386
g193
g1011
tp4433
(dp4434
g3306
I1
ss(g3296
g22
S','
tp4435
(dp4436
g3921
I1
ss(S'I'
g405
g1743
tp4437
(dp4438
g667
I1
ss(g1160
g1056
S','
tp4439
(dp4440
g3192
I1
ss(S';'
g1425
g47
tp4441
(dp4442
g1550
I1
sg337
I1
ss(g1200
g505
g21
tp4443
(dp4444
g1479
I1
ss(g213
g658
g355
tp4445
(dp4446
g271
I1
ss(g3875
g238
g898
tp4447
(dp4448
g73
I1
ss(g286
S'.'
g913
tp4449
(dp4450
g2655
I1
ss(g1458
g242
g1539
tp4451
(dp4452
g7
I1
ss(g236
g149
S','
tp4453
(dp4454
g268
I1
ss(g1816
g29
g1019
tp4455
(dp4456
g343
I1
ss(g357
S','
g3007
tp4457
(dp4458
g475
I1
ss(S'?'
g240
g681
tp4459
(dp4460
g2507
I1
ss(g290
g114
g358
tp4461
(dp4462
S'a'
I1
ss(g232
g1213
g24
tp4463
(dp4464
g1072
I1
ss(g1385
g1156
S'.'
tp4465
(dp4466
g382
I1
ss(g341
S','
g375
tp4467
(dp4468
g730
I1
sg732
I1
ss(g144
g1495
g2478
tp4469
(dp4470
g1788
I1
ss(g153
g1280
g479
tp4471
(dp4472
g2432
I1
ss(g368
S'I'
g192
tp4473
(dp4474
g1512
I1
ss(g96
S','
g407
tp4475
(dp4476
g317
I1
ss(S' '
g338
g581
tp4477
(dp4478
g322
I2
ss(g56
g400
g261
tp4479
(dp4480
g222
I1
ss(g148
S'.'
g4004
tp4481
(dp4482
g1219
I1
ss(g1963
g185
g1298
tp4483
(dp4484
g796
I1
ss(g554
g259
S';'
tp4485
(dp4486
g2905
I1
ss(g3813
g847
g506
tp4487
(dp4488
g486
I1
ss(S';'
g420
S','
tp4489
(dp4490
g621
I1
ss(g1038
S','
g413
tp4491
(dp4492
g956
I1
ss(g373
g229
g336
tp4493
(dp4494
S','
I1
ss(g291
g1446
g1845
tp4495
(dp4496
g46
I1
ss(g817
g763
g62
tp4497
(dp4498
g537
I1
ss(S','
g407
g317
tp4499
(dp4500
g210
I1
ss(g3981
S','
g3573
tp4501
(dp4502
g83
I1
ss(g256
g1205
g160
tp4503
(dp4504
g1069
I1
ss(g364
g1666
g273
tp4505
(dp4506
g223
I1
ss(g2507
g1579
g973
tp4507
(dp4508
g3068
I1
ss(g2418
g996
g2421
tp4509
(dp4510
S'rule'
p4511
I1
ss(g908
g3480
g1911
tp4512
(dp4513
g950
I1
ss(g1817
g123
g1242
tp4514
(dp4515
g347
I1
ss(g1301
g417
S'.'
tp4516
(dp4517
S'\x00'
I1
ss(g332
S','
g4046
tp4518
(dp4519
g1817
I1
ss(g2478
g1788
g162
tp4520
(dp4521
g802
I1
ss(g181
g378
g76
tp4522
(dp4523
g138
I1
ss(g14
S'"'
g377
tp4524
(dp4525
g311
I1
ss(g1425
g47
g337
tp4526
(dp4527
g320
I1
ss(g1055
g820
g2670
tp4528
(dp4529
g1665
I1
ss(g259
S';'
g2905
tp4530
(dp4531
g125
I1
ss(g867
g1457
g309
tp4532
(dp4533
S'.'
I1
ss(g400
g261
g222
tp4534
(dp4535
g301
I1
ss(g157
g1405
g409
tp4536
(dp4537
g145
I1
ss(g2396
S'that'
p4538
g1852
tp4539
(dp4540
S'what'
p4541
I1
ss(S':'
g1684
g1159
tp4542
(dp4543
g1632
I1
ss(g135
g540
S','
tp4544
(dp4545
g3701
I1
ss(S'-'
g1442
g2744
tp4546
(dp4547
g2902
I1
ss(S','
g2123
g2109
tp4548
(dp4549
g529
I1
ss(g465
g476
g1248
tp4550
(dp4551
g1396
I1
ss(g139
g1239
g233
tp4552
(dp4553
g980
I1
ss(g92
g858
g1182
tp4554
(dp4555
g1354
I2
ss(g412
g367
g334
tp4556
(dp4557
g1358
I1
ss(S';'
g328
S','
tp4558
(dp4559
g2135
I1
ss(g870
g1998
g116
tp4560
(dp4561
g154
I1
ss(g306
S','
g1857
tp4562
(dp4563
g551
I1
ss(g731
g12
g1327
tp4564
(dp4565
g398
I1
ss(S'gods'
p4566
S','
g2532
tp4567
(dp4568
S'I'
I1
ss(g1426
g848
g646
tp4569
(dp4570
S'I'
I3
ss(g2450
g733
g416
tp4571
(dp4572
g1007
I1
ss(g1169
g191
g1355
tp4573
(dp4574
g395
I1
ss(g2317
g415
g18
tp4575
(dp4576
g325
I1
ss(g1684
g1159
g1632
tp4577
(dp4578
g25
I1
ss(S'.'
g49
g491
tp4579
(dp4580
g1206
I1
ss(g382
g953
g386
tp4581
(dp4582
g186
I1
ss(g418
S'.'
g3878
tp4583
(dp4584
g3413
I1
ss(g2343
g291
g1446
tp4585
(dp4586
g1845
I1
ss(g2581
S'I'
g161
tp4587
(dp4588
S';'
I1
ss(g1498
g869
g189
tp4589
(dp4590
S'.'
I1
ss(S','
g1816
g29
tp4591
(dp4592
g1019
I1
ss(g1564
S','
g623
tp4593
(dp4594
g1551
I1
ss(g950
g2741
g4033
tp4595
(dp4596
g3102
I1
ss(S','
g368
S'I'
tp4597
(dp4598
g192
I1
ss(g230
g179
g1711
tp4599
(dp4600
g111
I1
ss(g1532
g43
g471
tp4601
(dp4602
g1186
I1
ss(S'I'
g1176
g340
tp4603
(dp4604
g1674
I1
ss(g265
S','
g28
tp4605
(dp4606
S'a'
I1
ss(g2916
g68
S'.'
tp4607
(dp4608
S'\x00'
I1
ss(g313
g1589
g122
tp4609
(dp4610
g109
I1
ss(g279
g71
S','
tp4611
(dp4612
g2130
I1
ss(S'I'
g31
S','
tp4613
(dp4614
g1774
I1
ss(g432
g77
S','
tp4615
(dp4616
g2581
I1
ss(g733
g416
g1007
tp4617
(dp4618
g276
I1
ss(g431
g244
S','
tp4619
(dp4620
S'I'
I1
ss(g69
g1757
g130
tp4621
(dp4622
S'.'
I1
ss(g250
g1609
S','
tp4623
(dp4624
g2050
I1
ss(S','
g2852
g653
tp4625
(dp4626
g666
I1
ss(S','
g618
g2246
tp4627
(dp4628
S'a'
I1
ss(g3179
g253
g1016
tp4629
(dp4630
g3331
I1
ss(S','
g3706
g59
tp4631
(dp4632
g299
I1
ss(g117
S';'
g4083
tp4633
(dp4634
g2703
I1
ss(g41
g201
g277
tp4635
(dp4636
g379
I1
ss(S','
g3573
g83
tp4637
(dp4638
g249
I1
ss(S','
g284
g50
tp4639
(dp4640
g596
I1
ss(g303
g287
g392
tp4641
(dp4642
g1395
I1
ss(g138
S','
g117
tp4643
(dp4644
S';'
I1
ss(g851
g90
g438
tp4645
(dp4646
g664
I1
ss(S'of'
p4647
g3272
S';'
tp4648
(dp4649
g3275
I1
ss(g97
S','
g2908
tp4650
(dp4651
g788
I1
ss(g614
g997
g391
tp4652
(dp4653
g220
I1
ss(S','
g3161
g993
tp4654
(dp4655
g1490
I1
ss(g1949
g786
S','
tp4656
(dp4657
g1811
I1
ss(g104
g1408
g655
tp4658
(dp4659
g183
I1
ss(g921
g1754
g63
tp4660
(dp4661
g148
I1
ss(g34
g1140
g2346
tp4662
(dp4663
g113
I1
ss(g1546
g140
g1004
tp4664
(dp4665
g514
I1
ss(g1469
g388
S':'
tp4666
(dp4667
g1682
I1
ss(g2168
g333
g965
tp4668
(dp4669
g207
I1
ss(g40
g1230
g2514
tp4670
(dp4671
g576
I1
ss(S'I'
g1177
g1082
tp4672
(dp4673
g2282
I1
ss(g587
g108
S','
tp4674
(dp4675
g2636
I1
ss(g1466
g89
S','
tp4676
(dp4677
g3434
I1
ss(g1185
S','
g3813
tp4678
(dp4679
g847
I1
ss(S' '
g181
g378
tp4680
(dp4681
g76
I1
ss(g938
g387
g1472
tp4682
(dp4683
g1188
I1
ss(g1175
g364
g1666
tp4684
(dp4685
g273
I1
ss(g805
g665
g272
tp4686
(dp4687
g1602
I1
ss(g3244
g241
S'-'
tp4688
(dp4689
g1443
I1
ss(g146
S','
g2606
tp4690
(dp4691
g4408
I1
ss(S','
g302
g566
tp4692
(dp4693
g1365
I1
ss(g124
g1583
g81
tp4694
(dp4695
S';'
I1
sS','
I1
ss(g95
S','
g393
tp4696
(dp4697
g126
I1
ss(g2947
S','
g243
tp4698
(dp4699
g975
I2
ss(g150
g1618
g1089
tp4700
(dp4701
g255
I1
ss(g204
g419
S'a'
tp4702
(dp4703
g722
I1
ss(g390
g351
g256
tp4704
(dp4705
g1205
I1
ss(g317
g210
g33
tp4706
(dp4707
S','
I1
ss(g1666
g273
g223
tp4708
(dp4709
S'.'
I1
ss(g3878
g3413
g1162
tp4710
(dp4711
g1146
I1
ss(g2104
g196
g1063
tp4712
(dp4713
g231
I1
ss(g33
S','
g290
tp4714
(dp4715
g114
I1
ss(S','
g2294
g731
tp4716
(dp4717
g12
I1
ss(S','
g3192
g64
tp4718
(dp4719
g710
I1
ss(g209
g346
g362
tp4720
(dp4721
g234
I1
ss(g173
S'.'
S'\x00'
tp4722
(dp4723
S'\x00'
I2
ss(g394
g1066
S'?'
tp4724
(dp4725
S'\x00'
I1
ss(g1383
g2079
g2173
tp4726
(dp4727
g94
I1
ss(g641
S','
g627
tp4728
(dp4729
g345
I1
ss(g665
g272
g1602
tp4730
(dp4731
g213
I1
ss(g1615
g216
g941
tp4732
(dp4733
g1311
I1
ss(g3434
g1371
g3808
tp4734
(dp4735
g1451
I1
ss(g1788
g162
g802
tp4736
(dp4737
g335
I1
ss(S','
g2881
g329
tp4738
(dp4739
g1629
I1
ss(g1602
g213
g658
tp4740
(dp4741
g355
I1
ss(g220
g226
g833
tp4742
(dp4743
g127
I1
ss(g1609
S','
g2050
tp4744
(dp4745
g1454
I1
ss(g103
g498
g3502
tp4746
(dp4747
g1822
I1
ss(g194
g165
g82
tp4748
(dp4749
g870
I1
ss(g1506
S':'
g1684
tp4750
(dp4751
g1159
I1
ss(g3651
g227
S'.'
tp4752
(dp4753
S'\x00'
I1
sg2575
I1
ss(g2636
g849
g794
tp4754
(dp4755
S'I'
I1
ss(g2366
g247
g821
tp4756
(dp4757
g305
I1
ss(g76
g138
S','
tp4758
(dp4759
g117
I1
ss(g2852
g653
g666
tp4760
(dp4761
g266
I1
ss(g108
S','
g2636
tp4762
(dp4763
g849
I1
ss(g1711
g111
g252
tp4764
(dp4765
g888
I1
sS','
I1
ss(S','
g2636
g849
tp4766
(dp4767
g794
I1
ss(g1868
g1489
g84
tp4768
(dp4769
g372
I1
ss(g402
g1038
S','
tp4770
(dp4771
g413
I1
ss(g255
g326
g630
tp4772
(dp4773
g121
I1
ss(g4364
g2525
g2149
tp4774
(dp4775
S'.'
I1
ss(S'I'
g136
g547
tp4776
(dp4777
S':'
I1
ss(g235
g56
g400
tp4778
(dp4779
g261
I1
ss(g1199
g101
g1586
tp4780
(dp4781
g851
I1
ss(g1552
g267
g369
tp4782
(dp4783
g795
I1
ss(g155
g1658
g1564
tp4784
(dp4785
S','
I1
ss(g1176
g340
g1674
tp4786
(dp4787
g2823
I1
ss(g1592
g867
g1457
tp4788
(dp4789
g309
I1
ss(g1716
g1380
g746
tp4790
(dp4791
g159
I1
ss(g985
g2204
g205
tp4792
(dp4793
g156
I1
ss(g1757
g130
S'.'
tp4794
(dp4795
g3285
I1
ss(g975
g1580
g3760
tp4796
(dp4797
S','
I1
ss(g667
g2273
g2584
tp4798
(dp4799
S'.'
I1
ss(g20
g769
g930
tp4800
(dp4801
S','
I1
ss(g1539
g7
g1121
tp4802
(dp4803
g2366
I1
ss(S','
g2908
g788
tp4804
(dp4805
g53
I1
ss(g651
g1476
g341
tp4806
(dp4807
S','
I1
ss(g1687
g554
g259
tp4808
(dp4809
S';'
I1
ss(g1559
g1546
g140
tp4810
(dp4811
g1004
I1
ss(g22
S','
g3921
tp4812
(dp4813
g3223
I1
ss(g224
S','
g622
tp4814
(dp4815
g2758
I1
ss(g2913
g548
g2916
tp4816
(dp4817
g68
I1
ss(S'?'
g1290
g1125
tp4818
(dp4819
g3244
I1
ss(S'I'
g161
S';'
tp4820
(dp4821
g1427
I1
ss(g3808
g1451
g1367
tp4822
(dp4823
g2747
I1
ss(g1355
g395
S','
tp4824
(dp4825
g2852
I1
ss(S','
g3921
g3223
tp4826
(dp4827
g164
I1
ss(g3948
g321
g817
tp4828
(dp4829
g763
I1
ss(g1269
S'?'
g1290
tp4830
(dp4831
g1125
I1
ss(g1000
g198
g1083
tp4832
(dp4833
g245
I1
ss(g3275
g3043
g575
tp4834
(dp4835
S','
I1
ss(g1743
g667
g2273
tp4836
(dp4837
g2584
I1
ss(g1072
g1701
g992
tp4838
(dp4839
g51
I1
ss(g2493
S'-'
g1442
tp4840
(dp4841
g2744
I1
ss(g1090
g1183
g1513
tp4842
(dp4843
g875
I3
ss(g208
g1731
g2237
tp4844
(dp4845
g1576
I1
ss(g2696
g119
g403
tp4846
(dp4847
g756
I1
ss(g976
g197
g1687
tp4848
(dp4849
g554
I1
ss(g1658
g1564
S','
tp4850
(dp4851
g623
I1
ss(g633
g406
g1559
tp4852
(dp4853
g1546
I1
ss(g506
g486
g70
tp4854
(dp4855
g808
I1
ss(g3068
S','
g3381
tp4856
(dp4857
g38
I1
ss(g300
S','
g626
tp4858
(dp4859
g2198
I1
ss(g3187
g1577
g1020
tp4860
(dp4861
g1868
I1
ss(g182
g421
S','
tp4862
(dp4863
g1767
I1
ss(g3331
g151
S','
tp4864
(dp4865
S'I'
I1
ss(g238
g898
g73
tp4866
(dp4867
g390
I1
ss(g127
S','
g176
tp4868
(dp4869
g194
I1
ss(g1395
g199
g1458
tp4870
(dp4871
g242
I1
ss(g601
g214
g901
tp4872
(dp4873
g2463
I1
ss(g310
g65
g1498
tp4874
(dp4875
g869
I1
ss(g613
g353
g1293
tp4876
(dp4877
g218
I1
ss(g3566
S':'
g141
tp4878
(dp4879
g601
I1
ss(g971
g412
g367
tp4880
(dp4881
g334
I1
ss(g1125
g3244
g241
tp4882
(dp4883
S'-'
I1
ss(g322
S','
g2533
tp4884
(dp4885
S','
I1
ss(g1551
g866
g221
tp4886
(dp4887
g103
I1
ss(S'I'
g192
g1512
tp4888
(dp4889
g282
I1
ss(g953
g386
g186
tp4890
(dp4891
S'a'
I1
ss(g415
g18
g325
tp4892
(dp4893
g460
I1
ss(g717
g217
g1342
tp4894
(dp4895
g423
I1
ss(g3150
g120
g370
tp4896
(dp4897
S','
I1
ss(g1298
g796
g424
tp4898
(dp4899
g1031
I2
ss(g2774
g78
S';'
tp4900
(dp4901
g2026
I1
ss(g808
g146
S','
tp4902
(dp4903
g2606
I1
ss(g2103
S'a'
g724
tp4904
(dp4905
g1090
I1
sS','
I1
ss(g184
g880
g463
tp4906
(dp4907
g1189
I1
ss(S','
g2810
g356
tp4908
(dp4909
g689
I1
ss(g548
g2916
g68
tp4910
(dp4911
S'.'
I1
ss(g229
g336
S','
tp4912
(dp4913
g614
I1
ss(g653
g666
g266
tp4914
(dp4915
g1411
I1
ss(g3833
g1374
g402
tp4916
(dp4917
g1038
I1
ss(S'"'
g377
g311
tp4918
(dp4919
g1716
I1
ss(g1399
g57
S';'
tp4920
(dp4921
g144
I1
ss(g282
g408
g431
tp4922
(dp4923
g244
I1
ss(S'.'
g147
g1518
tp4924
(dp4925
g200
I1
ss(g1521
g1200
g505
tp4926
(dp4927
g21
I1
ss(g1586
g851
g90
tp4928
(dp4929
g438
I1
ss(S','
g3121
g787
tp4930
(dp4931
S'a'
I1
ss(g85
g935
g1163
tp4932
(dp4933
g2103
I1
ss(g43
g471
g1186
tp4934
(dp4935
g510
I1
ss(g1578
g67
g772
tp4936
(dp4937
g3299
I1
ss(g413
g956
g178
tp4938
(dp4939
g344
I1
ss(S','
g1767
g168
tp4940
(dp4941
g1245
I1
ss(g2810
g356
g689
tp4942
(dp4943
g781
I1
ss(g1342
g423
S','
tp4944
(dp4945
g2045
I1
ss(g445
g209
g346
tp4946
(dp4947
g362
I1
ss(g968
g414
g1677
tp4948
(dp4949
g264
I1
ss(g1442
g2744
g2902
tp4950
(dp4951
g1105
I1
ss(g355
g271
g297
tp4952
(dp4953
S','
I1
ss(g70
g808
g146
tp4954
(dp4955
S','
I1
ss(g1230
g2514
g576
tp4956
(dp4957
g2525
I1
sg972
I1
ss(g55
g1547
S'.'
tp4958
(dp4959
S'\x00'
I1
ss(g869
g189
S'.'
tp4960
(dp4961
g283
I1
ss(g1019
g343
g224
tp4962
(dp4963
S','
I1
ss(S','
g3019
g607
tp4964
(dp4965
g39
I1
ss(g2970
g2609
g190
tp4966
(dp4967
g961
I1
ss(g2670
g1665
g2673
tp4968
(dp4969
g3830
I1
ss(g1198
g13
g389
tp4970
(dp4971
S','
I1
ss(g945
g202
g1529
tp4972
(dp4973
g330
I1
ss(g176
g194
g165
tp4974
(dp4975
g82
I1
ss(g1121
g2366
g247
tp4976
(dp4977
g821
I1
ss(g3739
g17
g1137
tp4978
(dp4979
g2104
I1
ss(S','
g212
S'-'
tp4980
(dp4981
g16
I1
ss(g8
g128
S'I'
tp4982
(dp4983
g1175
I1
ss(g340
g1674
g2823
tp4984
(dp4985
g4364
I1
ss(S','
g610
g1695
tp4986
(dp4987
g315
I1
ss(g3771
g102
g584
tp4988
(dp4989
g350
I1
ss(S'the'
p4990
g3263
g134
tp4991
(dp4992
S'.'
I1
ss(g703
g75
g129
tp4993
(dp4994
S','
I1
ss(g207
g133
S'.'
tp4995
(dp4996
g911
I1
ss(S' '
S'I'
g2913
tp4997
(dp4998
g548
I1
ss(g304
g1216
g1373
tp4999
(dp5000
g20
I1
ss(g623
g1551
g866
tp5001
(dp5002
g221
I1
ss(g185
g1298
g796
tp5003
(dp5004
g424
I1
ss(g980
g410
g1463
tp5005
(dp5006
g929
I1
ss(g420
S','
g621
tp5007
(dp5008
g2262
I1
ss(g636
g1736
g342
tp5009
(dp5010
g1147
I1
ss(g1147
S'.'
g49
tp5011
(dp5012
g491
I1
ss(S';'
g1428
g48
tp5013
(dp5014
g908
I1
ss(g143
g1671
S'.'
tp5015
(dp5016
S'\x00'
I1
ss(g1451
g1367
g2747
tp5017
(dp5018
g263
I1
ss(S'a'
g722
g1473
tp5019
(dp5020
g1455
I1
ss(g1372
g3447
g3184
tp5021
(dp5022
g172
I1
ss(g21
g1479
g1974
tp5023
(dp5024
g288
I1
ss(g1312
g1000
g198
tp5025
(dp5026
g1083
I1
ss(g319
g1402
g2781
tp5027
(dp5028
g4323
I1
ss(g3010
S'.'
S'\x00'
tp5029
(dp5030
S'\x00'
I6
ss(g1612
g1385
g1156
tp5031
(dp5032
S'.'
I1
ss(g2256
g1126
g697
tp5033
(dp5034
g2357
I1
ss(g342
g1147
S'.'
tp5035
(dp5036
g49
I1
ss(g257
g363
g348
tp5037
(dp5038
S','
I1
ss(g644
g764
g995
tp5039
(dp5040
g1802
I1
ss(g1004
g514
g14
tp5041
(dp5042
S'"'
I1
ss(g617
g1456
g974
tp5043
(dp5044
g97
I1
ss(g120
g370
S','
tp5045
(dp5046
g284
I1
ss(S'a'
g2767
g1091
tp5047
(dp5048
g553
I1
ss(g724
S','
g3121
tp5049
(dp5050
g787
I1
ss(g861
g1317
g332
tp5051
(dp5052
S','
I1
ss(g1163
g2103
S'a'
tp5053
(dp5054
g724
I1
ss(S' '
g163
g445
tp5055
(dp5056
g209
I1
ss(g64
g710
g54
tp5057
(dp5058
g780
I1
ss(g227
S'.'
g2575
tp5059
(dp5060
g679
I1
ss(g2767
g1091
g553
tp5061
(dp5062
g280
I1
ss(g534
S','
g618
tp5063
(dp5064
g2246
I1
ss(g136
g547
S':'
tp5065
(dp5066
g1681
I1
ss(g360
g187
g1301
tp5067
(dp5068
g417
I1
ss(S','
g625
g1312
tp5069
(dp5070
g1000
I1
ss(g2076
g1383
g2079
tp5071
(dp5072
g2173
I1
ss(g214
g901
g2463
tp5073
(dp5074
g45
I1
ss(g830
g2774
g78
tp5075
(dp5076
S';'
I1
ss(g888
g2696
g119
tp5077
(dp5078
g403
I1
ss(g225
g1728
g1032
tp5079
(dp5080
g4096
I1
ss(g2881
g329
g1629
tp5081
(dp5082
g124
I1
ss(g2533
S','
g368
tp5083
(dp5084
S'I'
I1
ss(g1518
g200
g468
tp5085
(dp5086
g432
I1
ss(g3095
g853
S','
tp5087
(dp5088
g619
I1
ss(g326
g630
g121
tp5089
(dp5090
S'.'
I1
ss(g1579
g973
g3068
tp5091
(dp5092
S','
I1
ss(g1432
S'a'
g723
tp5093
(dp5094
g925
I1
ss(g3043
g575
S','
tp5095
(dp5096
g2881
I1
ss(g275
g235
g56
tp5097
(dp5098
g400
I1
ss(g786
S','
g1811
tp5099
(dp5100
g2256
I1
ss(g107
g928
g427
tp5101
(dp5102
g1283
I1
ss(g3480
g1911
g950
tp5103
(dp5104
g2741
I1
ss(g378
g76
g138
tp5105
(dp5106
S','
I1
ss(g3502
g1822
S','
tp5107
(dp5108
g610
I1
ss(g1069
g738
g303
tp5109
(dp5110
g134
I1
sg287
I1
ss(S','
g2168
g333
tp5111
(dp5112
g965
I1
ss(g1150
g1190
S';'
tp5113
(dp5114
g328
I1
ss(g48
g908
g3480
tp5115
(dp5116
g1911
I1
ss(S';'
g3030
g1372
tp5117
(dp5118
g3447
I1
ss(g254
g1708
g137
tp5119
(dp5120
S','
I1
ss(g172
g92
g858
tp5121
(dp5122
g1182
I2
ss(g141
g601
g214
tp5123
(dp5124
g901
I1
ss(g366
S','
g2386
tp5125
(dp5126
S'\x00'
I1
ss(g645
g1233
S','
tp5127
(dp5128
g2037
I1
ss(g1748
g2311
g35
tp5129
(dp5130
g1612
I1
ss(g28
S'a'
g132
tp5131
(dp5132
g1698
I1
ss(g2403
g852
g34
tp5133
(dp5134
g1140
I1
ss(g1695
g315
g694
tp5135
(dp5136
g93
I1
ss(g66
g1521
g1200
tp5137
(dp5138
g505
I1
ss(g1170
g339
g1043
tp5139
(dp5140
g1184
I1
ss(S'I'
g3393
g1719
tp5141
(dp5142
g3489
I1
ss(S'.'
S'I'
g232
tp5143
(dp5144
g1213
I1
ss(S','
g2386
S'\x00'
tp5145
(dp5146
S'\x00'
I2
ss(g67
g772
g3299
tp5147
(dp5148
g139
I1
ss(g1311
g1753
g257
tp5149
(dp5150
g363
I1
ss(g427
g1283
g3613
tp5151
(dp5152
g3651
I1
ss(g193
g1011
g3306
tp5153
(dp5154
g310
I1
ss(g126
g663
S'a'
tp5155
(dp5156
g131
I1
ss(g1049
S','
g3948
tp5157
(dp5158
g321
I1
ss(g99
S','
S'I'
tp5159
(dp5160
g1174
I1
ss(g251
g1486
g105
tp5161
(dp5162
g1096
I1
ss(g1188
S','
g1848
tp5163
(dp5164
g1381
I1
ss(g288
S','
g2146
tp5165
(dp5166
g1370
I1
ss(g1233
S','
g2037
tp5167
(dp5168
S'?'
I1
ss(g1315
g921
g1754
tp5169
(dp5170
g63
I1
ss(S';'
S'I'
g405
tp5171
(dp5172
g1743
I1
ss(g769
g930
S','
tp5173
(dp5174
g2249
I1
ss(g77
S','
g2581
tp5175
(dp5176
S'I'
I1
ss(g2599
g1375
g254
tp5177
(dp5178
g1708
I1
ss(g353
g1293
g218
tp5179
(dp5180
g985
I1
ss(g175
S';'
g2075
tp5181
(dp5182
g3566
I1
ss(g1911
g950
g2741
tp5183
(dp5184
g4033
I1
ss(S','
g2369
g854
tp5185
(dp5186
S'a'
I1
ss(S';'
g3179
g253
tp5187
(dp5188
g1016
I1
ss(g2149
S'.'
S'\x00'
tp5189
(dp5190
S'\x00'
I2
ss(S','
g627
g345
tp5191
(dp5192
g1035
I1
ss(S' '
g19
g1526
tp5193
(dp5194
g1309
I1
ss(g1371
g3808
g1451
tp5195
(dp5196
g1367
I1
ss(g112
S','
g3706
tp5197
(dp5198
g59
I1
ss(g116
g154
g938
tp5199
(dp5200
g387
I1
ss(g15
S';'
g3179
tp5201
(dp5202
g253
I1
ss(g646
S'I'
g3394
tp5203
(dp5204
g1803
I1
ss(g1164
S','
g1799
tp5205
(dp5206
g649
I1
ss(g72
S','
g2123
tp5207
(dp5208
g2109
I1
ss(g1993
g184
g880
tp5209
(dp5210
g463
I1
ss(S'I'
g1179
g41
tp5211
(dp5212
g201
I1
ss(g277
g379
g112
tp5213
(dp5214
S','
I1
ss(g198
g1083
g245
tp5215
(dp5216
g1023
I1
ss(g723
g925
g60
tp5217
(dp5218
g1648
I1
ss(S';'
g2599
g1375
tp5219
(dp5220
g254
I1
ss(g1105
g1382
g225
tp5221
(dp5222
g1728
I1
ss(g343
g224
S','
tp5223
(dp5224
g622
I1
ss(g121
S'.'
g426
tp5225
(dp5226
g1595
I1
ss(g1848
g1381
g855
tp5227
(dp5228
g55
I1
ss(g244
S','
S'I'
tp5229
(dp5230
g58
I1
ss(S','
g621
g2262
tp5231
(dp5232
g27
I1
ss(g730
g654
g352
tp5233
(dp5234
S'?'
I1
ss(S' '
g296
g1339
tp5235
(dp5236
g52
I1
ss(g1370
g1257
g1185
tp5237
(dp5238
S','
I1
ss(g262
g1150
g1190
tp5239
(dp5240
S';'
I1
ss(g463
g1189
g349
tp5241
(dp5242
g1330
I1
ss(g615
g169
g1052
tp5243
(dp5244
g359
I1
ss(g52
S'.'
S'\x00'
tp5245
(dp5246
S'\x00'
I2
ss(g697
g2357
g1158
tp5247
(dp5248
g418
I1
ss(g129
S','
g1816
tp5249
(dp5250
g29
I1
ss(g510
g318
g916
tp5251
(dp5252
g2951
I1
ss(g113
g401
g107
tp5253
(dp5254
g928
I1
ss(g105
g1096
S','
tp5255
(dp5256
g2450
I1
ss(S'a'
g132
g1698
tp5257
(dp5258
S';'
I1
ss(g581
g322
S','
tp5259
(dp5260
g2532
I1
sg2533
I1
ss(g1577
g1020
g1868
tp5261
(dp5262
g1489
I1
ss(g1257
g1185
S','
tp5263
(dp5264
g3813
I1
ss(g3573
g83
g249
tp5265
(dp5266
g1469
I1
ss(g1827
g3844
S'.'
tp5267
(dp5268
S'\x00'
I1
ss(S':'
g1682
S','
tp5269
(dp5270
g2570
I1
ss(g849
g794
S'I'
tp5271
(dp5272
g136
I1
ss(g1327
g398
S'?'
tp5273
(dp5274
S'('
I1
ss(g901
g2463
g45
tp5275
(dp5276
S','
I1
ss(S','
g2947
S','
tp5277
(dp5278
g243
I2
sg3095
I1
ss(g552
g204
g419
tp5279
(dp5280
S'a'
I1
ss(g846
g36
g1306
tp5281
(dp5282
g219
I1
ss(S'?'
S'('
g805
tp5283
(dp5284
g665
I1
ss(g1189
g349
g1330
tp5285
(dp5286
g170
I1
ss(g2758
g155
g1658
tp5287
(dp5288
g1564
I1
ss(g3121
g787
S'a'
tp5289
(dp5290
g306
I1
ss(g1513
g875
g1712
tp5291
(dp5292
g15
I1
ss(g133
S'.'
g911
tp5293
(dp5294
g680
I1
ss(g1456
g974
g97
tp5295
(dp5296
S','
I1
ss(g331
S','
g3187
tp5297
(dp5298
g1577
I1
ss(g68
S'.'
S'\x00'
tp5299
(dp5300
S'\x00'
I2
ss(g111
g252
S','
tp5301
(dp5302
g3161
I1
ss(g84
g372
g636
tp5303
(dp5304
g1736
I1
ss(g1354
g1171
g2578
tp5305
(dp5306
S','
I1
ss(g169
g1052
g359
tp5307
(dp5308
g246
I1
ss(g202
g1529
g330
tp5309
(dp5310
g1466
I1
ss(g271
g297
S','
tp5311
(dp5312
g2479
I1
ss(g3184
g172
g92
tp5313
(dp5314
g858
I1
ss(S':'
g1683
S','
tp5315
(dp5316
g300
I1
ss(g457
g319
g1402
tp5317
(dp5318
g2781
I1
ss(g3358
g1578
g67
tp5319
(dp5320
g772
I1
ss(g352
S'?'
S'\x00'
tp5321
(dp5322
S'\x00'
I2
ss(g1137
g2104
g196
tp5323
(dp5324
g1063
I1
ss(g211
g397
g96
tp5325
(dp5326
S','
I1
ss(g3030
g1372
g3447
tp5327
(dp5328
g3184
I1
ss(g2130
g396
g360
tp5329
(dp5330
g187
I1
ss(g584
g350
g435
tp5331
(dp5332
g37
I1
ss(g916
g2951
S';'
tp5333
(dp5334
g3030
I1
ss(g2514
g576
g972
tp5335
(dp5336
g69
I1
ss(g1186
g510
g318
tp5337
(dp5338
g916
I1
ss(g1182
g1354
g1171
tp5339
(dp5340
g2578
I1
sg357
I1
ss(g997
g391
g220
tp5341
(dp5342
g226
I1
ss(g4004
g1219
S'I'
tp5343
(dp5344
g1177
I1
ss(g789
g465
g476
tp5345
(dp5346
g1248
I1
ss(g219
g1366
g976
tp5347
(dp5348
g197
I1
ss(g928
g427
g1283
tp5349
(dp5350
g3613
I1
ss(g376
g175
S';'
tp5351
(dp5352
g2075
I1
ss(g392
g1395
g199
tp5353
(dp5354
g1458
I1
ss(g45
S','
g3739
tp5355
(dp5356
g17
I1
ss(g935
g1163
g2103
tp5357
(dp5358
S'a'
I1
ss(g3830
S','
g3833
tp5359
(dp5360
g1374
I1
ss(g1008
S';'
S'I'
tp5361
(dp5362
g405
I1
ss(g274
S'.'
g912
tp5363
(dp5364
g152
I1
ss(g1731
g2237
g1576
tp5365
(dp5366
g850
I1
ss(g1001
g274
S'.'
tp5367
(dp5368
g912
I1
ss(S'I'
g2393
S','
tp5369
(dp5370
g2396
I1
ss(g363
g348
S','
tp5371
(dp5372
g2294
I1
ss(g1091
g553
g280
tp5373
(dp5374
g167
I1
ss(g1236
g994
g411
tp5375
(dp5376
g195
I1
ss(g1374
g402
g1038
tp5377
(dp5378
S','
I1
ss(g89
S','
g3434
tp5379
(dp5380
g1371
I1
ss(g1366
g976
g197
tp5381
(dp5382
g1687
I1
ss(g1358
g1236
g994
tp5383
(dp5384
g411
I1
ss(g2173
g94
g893
tp5385
(dp5386
g3000
I1
ss(S','
g2570
g331
tp5387
(dp5388
S','
I1
ss(g1382
g225
g1728
tp5389
(dp5390
g1032
I1
ss(S','
g1811
g2256
tp5391
(dp5392
g1126
I1
ss(g35
g1612
g1385
tp5393
(dp5394
g1156
I1
ss(g417
S'.'
S'\x00'
tp5395
(dp5396
S'\x00'
I2
ss(S','
g2130
g396
tp5397
(dp5398
g360
I1
ss(g3545
g645
g1233
tp5399
(dp5400
S','
I1
ss(g1618
g1089
g255
tp5401
(dp5402
g326
I1
ss(g2357
g1158
g418
tp5403
(dp5404
S'.'
I1
ss(g1126
g697
g2357
tp5405
(dp5406
g1158
I1
ss(g98
g753
g1315
tp5407
(dp5408
g921
I1
ss(g1664
g2493
S'-'
tp5409
(dp5410
g1442
I1
ss(g421
S','
g1767
tp5411
(dp5412
g168
I1
ss(g278
g188
g100
tp5413
(dp5414
g380
I1
ss(S':'
g141
g601
tp5415
(dp5416
g214
I1
ss(g75
g129
S','
tp5417
(dp5418
g1816
I1
ss(S'than'
p5419
g3296
g22
tp5420
(dp5421
S','
I1
ss(S'.'
g283
g1220
tp5422
(dp5423
g464
I1
ss(g42
g587
g108
tp5424
(dp5425
S','
I1
ss(g16
g26
g79
tp5426
(dp5427
g700
I1
ss(g1836
g366
S','
tp5428
(dp5429
g2386
I1
ss(g2346
g113
g401
tp5430
(dp5431
g107
I1
ss(S'.'
g911
g680
tp5432
(dp5433
g1162
I1
sg135
I1
ss(g189
S'.'
g283
tp5434
(dp5435
g1220
I1
ss(g746
g159
g861
tp5436
(dp5437
g1317
I1
ss(g1351
g237
g924
tp5438
(dp5439
g3178
I1
ss(g1280
g479
g2432
tp5440
(dp5441
S','
I1
ss(g1114
g648
g3033
tp5442
(dp5443
S'to'
p5444
I1
ss(g361
g1075
g203
tp5445
(dp5446
g1143
I1
ss(S','
g28
S'a'
tp5447
(dp5448
g132
I1
ss(g1310
g1170
g339
tp5449
(dp5450
g1043
I1
ss(S','
S'-'
g66
tp5451
(dp5452
g1521
I1
ss(g325
g460
g945
tp5453
(dp5454
g202
I1
ss(g294
S'?'
g240
tp5455
(dp5456
g681
I1
ss(g2744
g2902
g1105
tp5457
(dp5458
g1382
I1
ss(g911
g680
g135
tp5459
(dp5460
g540
I1
ss(g529
g1704
g260
tp5461
(dp5462
g1086
I1
ss(g974
g97
S','
tp5463
(dp5464
g2908
I1
ss(g367
g334
g1358
tp5465
(dp5466
g1236
I1
ss(S'what'
p5467
S'I'
g2393
tp5468
(dp5469
S','
I1
ss(g474
g563
g1836
tp5470
(dp5471
g366
I1
ss(S'a'
g95
S','
tp5472
(dp5473
g393
I1
ss(g1698
S';'
g1425
tp5474
(dp5475
g47
I1
ss(g142
g1626
g425
tp5476
(dp5477
S','
I1
ss(S','
g300
S','
tp5478
(dp5479
g626
I1
ss(g349
g1330
g170
tp5480
(dp5481
g44
I1
ss(S','
g622
g2758
tp5482
(dp5483
g155
I1
sg110
I1
ss(S' '
S'I'
g1176
tp5484
(dp5485
g340
I1
ss(g226
g833
g127
tp5486
(dp5487
S','
I1
ss(g1446
g1845
g46
tp5488
(dp5489
g1509
I1
ss(g264
g1573
g507
tp5490
(dp5491
g166
I1
ss(g622
g2758
g155
tp5492
(dp5493
g1658
I1
ss(g393
g126
g663
tp5494
(dp5495
S'a'
I1
ss(g2282
g1946
g142
tp5496
(dp5497
g1626
I1
ss(g3161
g993
g1490
tp5498
(dp5499
g727
I1
ss(g2951
S';'
g3030
tp5500
(dp5501
g1372
I1
ss(g29
g1019
g343
tp5502
(dp5503
g224
I1
ss(g794
S'I'
g136
tp5504
(dp5505
g547
I1
ss(g237
g924
g3178
tp5506
(dp5507
S';'
I1
ss(g2948
S','
g2797
tp5508
(dp5509
g651
I1
ss(g647
g1963
g185
tp5510
(dp5511
g1298
I1
ss(g1547
S'.'
S'\x00'
tp5512
(dp5513
S'\x00'
I2
ss(g179
g1711
g111
tp5514
(dp5515
g252
I1
ss(S'I'
g286
S'.'
tp5516
(dp5517
g913
I1
ss(g824
g1935
g1160
tp5518
(dp5519
g1056
I1
ss(g335
g307
S','
tp5520
(dp5521
g3624
I1
ss(g1455
g647
g1963
tp5522
(dp5523
g185
I1
ss(g285
g799
g2285
tp5524
(dp5525
g1161
I1
ss(S';'
g1429
g2317
tp5526
(dp5527
g415
I1
ss(g398
S'?'
S'('
tp5528
(dp5529
g805
I1
ss(g1043
g1184
g1663
tp5530
(dp5531
S'?'
I1
ss(S','
g3584
S'a'
tp5532
(dp5533
g316
I1
ss(g802
g335
g307
tp5534
(dp5535
S','
I1
ss(S'a'
g316
g1114
tp5536
(dp5537
g648
I1
ss(g1429
g2317
g415
tp5538
(dp5539
g18
I1
ss(g1146
g1313
g2312
tp5540
(dp5541
g85
I1
ss(g2575
g679
g1615
tp5542
(dp5543
g216
I1
ss(g1479
g1974
g288
tp5544
(dp5545
S','
I1
ss(g3394
g1803
S','
tp5546
(dp5547
g1806
I1
ss(g411
g195
S','
tp5548
(dp5549
g615
I1
ss(g252
S','
g3161
tp5550
(dp5551
g993
I1
ss(g3447
g3184
g172
tp5552
(dp5553
g92
I1
ss(g1177
g1082
g2282
tp5554
(dp5555
g1946
I1
ss(g1293
g218
g985
tp5556
(dp5557
g2204
I1
ss(g3263
g134
S'.'
tp5558
(dp5559
S'I'
I1
ss(g1086
g281
S','
tp5560
(dp5561
g2403
I1
ss(g1526
g1309
g1827
tp5562
(dp5563
g3844
I1
ss(g820
g2670
g1665
tp5564
(dp5565
g2673
I1
ss(g722
g1473
g1455
tp5566
(dp5567
g647
I1
ss(g464
g3875
g238
tp5568
(dp5569
g898
I1
ss(g1529
g330
g1466
tp5570
(dp5571
g89
I1
ss(g479
g2432
S','
tp5572
(dp5573
g2369
I1
ss(S','
g2037
S'?'
tp5574
(dp5575
S'\x00'
I1
ss(g1239
g233
g980
tp5576
(dp5577
g410
I1
ss(g799
g2285
g1161
tp5578
(dp5579
g1111
I1
ss(g2092
g1379
S','
tp5580
(dp5581
g1785
I1
ss(S'I'
g3394
g1803
tp5582
(dp5583
S','
I1
ss(g2584
S'.'
S'\x00'
tp5584
(dp5585
S'\x00'
I2
ss(S'I'
g1174
g1127
tp5586
(dp5587
g3532
I1
ss(g1411
g239
g278
tp5588
(dp5589
g188
I1
ss(g476
g1248
g1396
tp5590
(dp5591
g2203
I1
ss(g1317
g332
S','
tp5592
(dp5593
g4046
I1
ss(g315
g694
g93
tp5594
(dp5595
g633
I1
ss(g649
g1055
g820
tp5596
(dp5597
g2670
I1
ss(g2712
g971
g412
tp5598
(dp5599
g367
I1
ss(g1052
g359
g246
tp5600
(dp5601
g1437
I1
ss(g2966
g474
g563
tp5602
(dp5603
g1836
I1
ss(g3395
g251
g1486
tp5604
(dp5605
g105
I1
ss(g1694
g2957
g308
tp5606
(dp5607
S';'
I1
ss(g2123
g2109
g529
tp5608
(dp5609
g1704
I1
ss(g161
S';'
g1427
tp5610
(dp5611
g789
I1
ss(g893
g3000
S':'
tp5612
(dp5613
g1683
I1
ss(S'('
g805
g665
tp5614
(dp5615
g272
I1
ss(S','
g1993
g184
tp5616
(dp5617
g880
I1
ss(g100
g380
S';'
tp5618
(dp5619
g2599
I1
ss(g619
g74
g1324
tp5620
(dp5621
g2343
I1
ss(g684
g2433
g1107
tp5622
(dp5623
g118
I2
ss(S'I'
g1178
g42
tp5624
(dp5625
g587
I1
ss(g388
S':'
g1682
tp5626
(dp5627
S','
I1
ss(g788
g53
S'.'
tp5628
(dp5629
g295
I1
ss(S';'
g1949
g786
tp5630
(dp5631
S','
I1
ss(g2110
g98
g753
tp5632
(dp5633
g1315
I1
ss(g1306
g219
g1366
tp5634
(dp5635
g976
I1
ss(g1020
g1868
g1489
tp5636
(dp5637
g84
I1
ss(g620
S';'
g1424
tp5638
(dp5639
g106
I1
ss(g992
g51
g1153
tp5640
(dp5641
g1286
I1
ss(g344
g1653
g292
tp5642
(dp5643
g448
I1
ss(g681
g2507
g1579
tp5644
(dp5645
g973
I1
ss(g348
S','
g2294
tp5646
(dp5647
g731
I1
ss(g854
S'a'
g115
tp5648
(dp5649
g717
I1
ss(g1811
g2256
g1126
tp5650
(dp5651
g697
I1
ss(g1124
g61
g230
tp5652
(dp5653
g179
I1
ss(S','
g3381
g38
tp5654
(dp5655
g1169
I1
ss(g404
S','
g3386
tp5656
(dp5657
g193
I1
ss(g3406
S';'
g2092
tp5658
(dp5659
g1379
I1
ss(g2393
S','
g2396
tp5660
(dp5661
g4538
I1
ss(S'a'
g723
g925
tp5662
(dp5663
g60
I1
ss(g267
g369
g795
tp5664
(dp5665
S','
I1
ss(g82
g870
g1998
tp5666
(dp5667
g116
I1
ss(S':'
g1680
g91
tp5668
(dp5669
S','
I1
ss(g1339
g52
S'.'
tp5670
(dp5671
S'\x00'
I1
ss(g1082
g2282
g1946
tp5672
(dp5673
g142
I1
ss(g1728
g1032
g4096
tp5674
(dp5675
S'than'
p5676
I1
ss(g3706
g59
g299
tp5677
(dp5678
g513
I1
ss(S'.'
g295
g1635
tp5679
(dp5680
g258
I1
ss(g178
g344
g1653
tp5681
(dp5682
g292
I1
ss(S','
g624
S','
tp5683
(dp5684
g613
I1
ss(g866
g221
g103
tp5685
(dp5686
g498
I1
ss(g1509
g1318
S','
tp5687
(dp5688
g1993
I1
ss(g337
g320
g275
tp5689
(dp5690
g235
I1
ss(g1316
g2336
g552
tp5691
(dp5692
g204
I1
ss(g3272
S';'
g3275
tp5693
(dp5694
g3043
I1
ss(g626
g2198
g1187
tp5695
(dp5696
g250
I1
ss(g3489
g1664
g2493
tp5697
(dp5698
S'-'
I1
ss(g1221
g457
g319
tp5699
(dp5700
g1402
I1
ss(g336
S','
g614
tp5701
(dp5702
g997
I1
ss(g1365
g323
g11
tp5703
(dp5704
g1621
I1
ss(g1376
g868
g248
tp5705
(dp5706
g236
I1
ss(g852
g34
g1140
tp5707
(dp5708
g2346
I1
ss(g2294
g731
g12
tp5709
(dp5710
g1327
I1
ss(g627
g345
g1035
tp5711
(dp5712
S'a'
I1
ss(g1424
g106
g527
tp5713
(dp5714
g86
I1
ss(g147
g1518
g200
tp5715
(dp5716
g468
I1
ss(g848
g646
S'I'
tp5717
(dp5718
g3393
I1
sg3394
I1
sg2393
I1
ss(g212
S'-'
g16
tp5719
(dp5720
g26
I1
ss(g137
S','
g3019
tp5721
(dp5722
g607
I1
ss(S';'
g2905
g125
tp5723
(dp5724
g575
I1
sS':'
I1
sS','
I1
ss(g395
S','
g2852
tp5725
(dp5726
g653
I1
ss(g1503
g779
g182
tp5727
(dp5728
g421
I1
ss(g91
S','
g3584
tp5729
(dp5730
S'a'
I1
ss(g2703
g1550
g88
tp5731
(dp5732
g279
I1
ss(g295
g1635
g258
tp5733
(dp5734
g968
I1
ss(g1935
g1160
g1056
tp5735
(dp5736
S','
I1
ss(g13
g389
S','
tp5737
(dp5738
S'-'
I1
ss(g575
S','
g2881
tp5739
(dp5740
g329
I1
sg854
I1
ss(g270
g1351
g237
tp5741
(dp5742
g924
I1
ss(g1159
g1632
g25
tp5743
(dp5744
g827
I1
ss(g1785
g383
g80
tp5745
(dp5746
g215
I1
ss(g630
g121
S'.'
tp5747
(dp5748
g426
I1
ss(g1704
g260
g1086
tp5749
(dp5750
g281
I1
ss(g10
g371
g324
tp5751
(dp5752
g8
I1
ss(g276
g1001
g274
tp5753
(dp5754
S'.'
I1
ss(S' '
g298
g1132
tp5755
(dp5756
S','
I1
ss(g266
g1411
g239
tp5757
(dp5758
g278
I1
ss(g700
g394
g1066
tp5759
(dp5760
S'?'
I1
ss(g1954
g1713
g1164
tp5761
(dp5762
S','
I1
ss(g323
g11
g1621
tp5763
(dp5764
g312
I1
ss(g772
g3299
g139
tp5765
(dp5766
g1239
I1
ss(g1857
g551
g528
tp5767
(dp5768
g964
I1
ss(g1089
g255
g326
tp5769
(dp5770
g630
I1
ss(g1373
g20
g769
tp5771
(dp5772
g930
I1
ss(S','
g375
g730
tp5773
(dp5774
g654
I1
ss(g296
g1339
g52
tp5775
(dp5776
S'.'
I1
ss(g2246
S'a'
g206
tp5777
(dp5778
g404
I1
ss(S'a'
g131
S'.'
tp5779
(dp5780
S'\x00'
I1
ss(g847
g506
g486
tp5781
(dp5782
g70
I1
ss(g203
g1143
g1310
tp5783
(dp5784
g1170
I1
ss(g258
g968
g414
tp5785
(dp5786
g1677
I1
ss(g4083
g2703
g1550
tp5787
(dp5788
g88
I1
ss(g200
g468
g432
tp5789
(dp5790
g77
I1
ss(g1178
g42
g587
tp5791
(dp5792
g108
I1
ss(g2311
g35
g1612
tp5793
(dp5794
g1385
I1
ss(g125
S','
g302
tp5795
(dp5796
g566
I1
ss(S','
g626
g2198
tp5797
(dp5798
g1187
I1
ss(g566
g1365
g323
tp5799
(dp5800
g11
I1
ss(g1193
g23
g1028
tp5801
(dp5802
g3150
I1
ss(g4033
g3102
S'.'
tp5803
(dp5804
S'\x00'
I1
ss(g2146
g1370
g1257
tp5805
(dp5806
g1185
I1
ss(g248
g236
g149
tp5807
(dp5808
S','
I1
ss(g1318
S','
g1993
tp5809
(dp5810
g184
I1
ss(g73
g390
g351
tp5811
(dp5812
g256
I1
ss(S','
g617
g1456
tp5813
(dp5814
g974
I1
ss(g60
g1648
g1378
tp5815
(dp5816
g171
I1
ss(S','
g4046
g1817
tp5817
(dp5818
g123
I1
ss(g370
S','
g284
tp5819
(dp5820
g50
I1
ss(g3921
g3223
g164
tp5821
(dp5822
g830
I1
ss(g1381
g855
g55
tp5823
(dp5824
g1547
I1
sS','
I1
ss(g1946
g142
g1626
tp5825
(dp5826
g425
I1
ss(g1713
g1164
S','
tp5827
(dp5828
g1799
I1
ss(g1408
g655
g183
tp5829
(dp5830
S','
I1
ss(S' '
g143
g1671
tp5831
(dp5832
S'.'
I1
ss(g1495
g2478
g1788
tp5833
(dp5834
g162
I1
ss(g2079
g2173
g94
tp5835
(dp5836
g893
I1
ss(g2954
g1090
g1183
tp5837
(dp5838
g1513
I1
ss(g386
g186
S'a'
tp5839
(dp5840
g2767
I1
ss(g242
g1539
g7
tp5841
(dp5842
g1121
I1
ss(g1046
g1386
g1008
tp5843
(dp5844
S';'
I1
ss(g1111
g374
g262
tp5845
(dp5846
g1150
I1
ss(g188
g100
g380
tp5847
(dp5848
S';'
I1
ss(S','
S'I'
g58
tp5849
(dp5850
g399
I1
ss(g9
g743
g157
tp5851
(dp5852
g1405
I1
ss(S'a'
g306
S','
tp5853
(dp5854
g1857
I1
ss(g114
g358
S'a'
tp5855
(dp5856
g95
I1
ss(g80
g215
g1193
tp5857
(dp5858
g23
I1
ss(g1405
g409
g145
tp5859
(dp5860
S','
I1
ss(S'I'
g32
g173
tp5861
(dp5862
S'.'
I1
ss(g205
g156
g703
tp5863
(dp5864
g75
I1
ss(g328
S','
g2135
tp5865
(dp5866
g365
I1
ss(g3306
g310
g65
tp5867
(dp5868
g1498
I1
ss(g383
g80
g215
tp5869
(dp5870
g1193
I1
ss(g164
g830
g2774
tp5871
(dp5872
g78
I1
ss(g4541
S'I'
g3393
tp5873
(dp5874
g1719
I1
ss(g387
g1472
g1188
tp5875
(dp5876
S','
I1
ss(g1472
g1188
S','
tp5877
(dp5878
g1848
I1
ss(g471
g1186
g510
tp5879
(dp5880
g318
I1
ss(g1998
g116
g154
tp5881
(dp5882
g938
I1
ss(S','
g3095
g853
tp5883
(dp5884
S','
I1
ss(g389
S','
S'-'
tp5885
(dp5886
g66
I1
ss(g201
g277
g379
tp5887
(dp5888
g112
I1
ss(g528
g964
g30
tp5889
(dp5890
g1399
I1
ss(S','
g2403
g852
tp5891
(dp5892
g34
I1
ss(g1754
g63
g148
tp5893
(dp5894
S'.'
I1
ss(g438
g664
g2042
tp5895
(dp5896
S'better'
p5897
I1
ss(g312
g1432
S'a'
tp5898
(dp5899
g723
I1
ss(g3844
S'.'
S'\x00'
tp5900
(dp5901
S'\x00'
I2
ss(g1806
g1384
S'I'
tp5902
(dp5903
g32
I1
ss(g305
g1287
g1552
tp5904
(dp5905
g267
I1
ss(S' '
g265
S','
tp5906
(dp5907
g28
I1
ss(g547
S':'
g1681
tp5908
(dp5909
g2496
I1
ss(S'-'
g1443
S'I'
tp5910
(dp5911
g1178
I1
ss(g621
g2262
g27
tp5912
(dp5913
g641
I1
ss(g167
S','
g2486
tp5914
(dp5915
g3686
I1
ss(g853
S','
g619
tp5916
(dp5917
g74
I1
ss(g301
S'.'
S'\x00'
tp5918
(dp5919
S'\x00'
I2
ss(g101
g1586
g851
tp5920
(dp5921
g90
I1
ss(g2525
g2149
S'.'
tp5922
(dp5923
S'\x00'
I1
ss(g423
S','
g2045
tp5924
(dp5925
g2712
I1
ss(g2979
g888
g2696
tp5926
(dp5927
g119
I1
ss(g24
g1072
g1701
tp5928
(dp5929
g992
I1
ss(g1489
g84
g372
tp5930
(dp5931
g636
I1
ss(g1171
g2578
S','
tp5932
(dp5933
g2168
I1
ss(g3178
S';'
g2418
tp5934
(dp5935
g996
I1
ss(g293
g1748
g2311
tp5936
(dp5937
g35
I1
ss(S'.'
g912
g152
tp5938
(dp5939
S','
I1
ss(S','
g243
g975
tp5940
(dp5941
g1578
I1
sg1580
I1
ss(g3280
g357
S','
tp5942
(dp5943
g3007
I1
ss(g409
g145
S','
tp5944
(dp5945
g625
I1
ss(g94
g893
g3000
tp5946
(dp5947
S':'
I1
ss(g576
g972
g69
tp5948
(dp5949
g1757
I1
ss(g1248
g1396
g2203
tp5950
(dp5951
g4990
I1
ss(g727
g1157
g1532
tp5952
(dp5953
g43
I1
ss(g527
g86
g327
tp5954
(dp5955
g883
I1
ss(S' '
g87
S'?'
tp5956
(dp5957
S'\x00'
I1
ss(g329
g1629
g124
tp5958
(dp5959
g1583
I1
ss(g358
S'a'
g95
tp5960
(dp5961
S','
I1
ss(g1822
S','
g610
tp5962
(dp5963
g1695
I1
ss(g625
g1312
g1000
tp5964
(dp5965
g198
I1
ss(g1066
S'?'
S'\x00'
tp5966
(dp5967
S'\x00'
I2
ss(g83
g249
g1469
tp5968
(dp5969
g388
I1
ss(g218
g985
g2204
tp5970
(dp5971
g205
I1
ss(S','
g2581
S'I'
tp5972
(dp5973
g31
I1
sg161
I1
ss(g3686
g110
g313
tp5974
(dp5975
g1589
I1
ss(g507
g166
S':'
tp5976
(dp5977
g1680
I1
ss(g12
g1327
g398
tp5978
(dp5979
S'?'
I1
ss(S','
g2076
g1383
tp5980
(dp5981
g2079
I1
ss(g163
g445
g209
tp5982
(dp5983
g346
I1
ss(g23
g1028
g3150
tp5984
(dp5985
g120
I1
ss(g171
g376
g175
tp5986
(dp5987
S';'
I1
ss(g123
g1242
g347
tp5988
(dp5989
g1049
I2
ss(g1621
g312
g1432
tp5990
(dp5991
S'a'
I1
ss(g196
g1063
g231
tp5992
(dp5993
g684
I1
ss(S','
S'I'
g40
tp5994
(dp5995
g1230
I1
ss(g106
g527
g86
tp5996
(dp5997
g327
I1
ss(S'nature'
p5998
S','
g616
tp5999
(dp6000
g2257
I1
ss(g1767
g168
g1245
tp6001
(dp6002
g1198
I1
ss(g654
g352
S'?'
tp6003
(dp6004
S'\x00'
I1
ss(g1677
g264
g1573
tp6005
(dp6006
g507
I1
ss(g197
g1687
g554
tp6007
(dp6008
g259
I1
ss(g260
g1086
g281
tp6009
(dp6010
S','
I1
ss(g658
g355
g271
tp6011
(dp6012
g297
I1
ss(g779
g182
g421
tp6013
(dp6014
S','
I1
ss(g941
g1311
g1753
tp6015
(dp6016
g257
I1
ss(g2967
g1377
g2970
tp6017
(dp6018
g2609
I1
ss(g90
g438
g664
tp6019
(dp6020
g2042
I1
ss(S'I'
g1175
g364
tp6021
(dp6022
g1666
I1
ss(g1473
g1455
g647
tp6023
(dp6024
g1963
I1
ss(g1437
g977
S'?'
tp6025
(dp6026
S'\x00'
I1
ss(S';'
g144
g1495
tp6027
(dp6028
g2478
I1
ss(g334
g1358
g1236
tp6029
(dp6030
g994
I1
ss(S','
g2479
g285
tp6031
(dp6032
g799
I1
ss(g191
g1355
g395
tp6033
(dp6034
S','
I1
ss(g1161
g1111
g374
tp6035
(dp6036
g262
I1
ss(S','
g3739
g17
tp6037
(dp6038
g1137
I1
ss(g1682
S','
g2570
tp6039
(dp6040
g331
I1
ss(g289
g1046
g1386
tp6041
(dp6042
g1008
I1
ss(g1583
g81
S';'
tp6043
(dp6044
g420
I1
ss(g154
g938
g387
tp6045
(dp6046
g1472
I1
ss(g1220
g464
g3875
tp6047
(dp6048
g238
I1
ss(g2496
g153
g1280
tp6049
(dp6050
g479
I1
ss(g972
g69
g1757
tp6051
(dp6052
g130
I1
ss(S','
g1785
g383
tp6053
(dp6054
g80
I1
ss(g216
g941
g1311
tp6055
(dp6056
g1753
I1
ss(g152
S','
g2784
tp6057
(dp6058
S'I'
I1
ss(g435
g37
g676
tp6059
(dp6060
g289
I1
ss(g964
g30
g1399
tp6061
(dp6062
g57
I1
ss(g650
g846
g36
tp6063
(dp6064
g1306
I1
ss(g1242
g347
g1049
tp6065
(dp6066
S';'
I1
sS','
I1
ss(g102
g584
g350
tp6067
(dp6068
g435
I1
ss(g3532
g180
S'.'
tp6069
(dp6070
S'\x00'
I1
ss(g1184
g1663
S'?'
tp6071
(dp6072
S'\x00'
I1
ss(S'I'
g58
g399
tp6073
(dp6074
S'I'
I1
ss(g3102
S'.'
S'\x00'
tp6075
(dp6076
S'\x00'
I2
ss(S'a'
g115
g717
tp6077
(dp6078
g217
I1
ss(g2905
g125
S','
tp6079
(dp6080
g302
I1
ss(g424
g1031
g1314
tp6081
(dp6082
S';'
I1
sS','
I2
ss(S','
g117
S';'
tp6083
(dp6084
g4083
I1
ss(g71
S','
g2130
tp6085
(dp6086
g396
I1
ss(g47
g337
g320
tp6087
(dp6088
g275
I1
ss(S','
g1799
g649
tp6089
(dp6090
g1055
I1
ss(g1157
g1532
g43
tp6091
(dp6092
g471
I1
ss(g65
g1498
g869
tp6093
(dp6094
g189
I1
ss(g2908
g788
g53
tp6095
(dp6096
S'.'
I1
ss(g1179
g41
g201
tp6097
(dp6098
g277
I1
ss(S'.'
g426
g1595
tp6099
(dp6100
g422
I1
ss(g2532
S'I'
g286
tp6101
(dp6102
S'.'
I1
ss(g281
S','
g2403
tp6103
(dp6104
g852
I1
ss(g426
g1595
g422
tp6105
(dp6106
S','
I1
ss(g3613
g3651
g227
tp6107
(dp6108
S'.'
I2
ss(g380
S';'
g2599
tp6109
(dp6110
g1375
I1
ss(g1377
g2970
g2609
tp6111
(dp6112
g190
I1
ss(S' '
g3771
g102
tp6113
(dp6114
g584
I1
ss(g239
g278
g188
tp6115
(dp6116
g100
I1
ss(S'O'
g534
S','
tp6117
(dp6118
g618
I1
ss(g320
g275
g235
tp6119
(dp6120
g56
I1
ss(S':'
g1681
g2496
tp6121
(dp6122
g153
I1
ss(g2262
g27
g641
tp6123
(dp6124
S','
I1
ss(S','
g3187
g1577
tp6125
(dp6126
g1020
I1
ss(S','
g1857
g551
tp6127
(dp6128
g528
I1
ss(g396
g360
g187
tp6129
(dp6130
g1301
I1
ss(g26
g79
g700
tp6131
(dp6132
g394
I1
ss(g283
g1220
g464
tp6133
(dp6134
g3875
I1
ss(g253
g1016
g3331
tp6135
(dp6136
g151
I1
ss(g4322
g3981
S','
tp6137
(dp6138
g616
I1
sg3573
I1
ss(g159
g861
g1317
tp6139
(dp6140
g332
I1
ss(g930
S','
g2249
tp6141
(dp6142
g2110
I1
ss(g131
S'.'
S'\x00'
tp6143
(dp6144
S'\x00'
I2
ss(g31
S','
g1774
tp6145
(dp6146
g650
I1
ss(g1719
g3489
g1664
tp6147
(dp6148
g2493
I1
ss(g1386
g1008
S';'
tp6149
(dp6150
S'I'
I1
ss(g369
g795
S','
tp6151
(dp6152
g624
I1
ss(g261
g222
g301
tp6153
(dp6154
S'.'
I1
ss(g240
g681
g2507
tp6155
(dp6156
g1579
I1
ss(S'a'
g2954
g1090
tp6157
(dp6158
g1183
I1
ss(g540
S','
g3701
tp6159
(dp6160
S','
I1
ss(S','
g3948
g321
tp6161
(dp6162
g817
I1
ss(g1206
g174
g824
tp6163
(dp6164
g1935
I1
ss(g1681
g2496
g153
tp6165
(dp6166
g1280
I1
ss(g1635
g258
g968
tp6167
(dp6168
g414
I1
ss(g170
g44
g843
tp6169
(dp6170
g381
I1
ss(g1075
g203
g1143
tp6171
(dp6172
g1310
I1
ss(S'.'
g913
g2655
tp6173
(dp6174
S','
I1
ss(g3223
g164
g830
tp6175
(dp6176
g2774
I1
ss(S','
g613
g353
tp6177
(dp6178
g1293
I1
ss(g1708
g137
S','
tp6179
(dp6180
g3019
I1
ss(g611
g2966
g474
tp6181
(dp6182
g563
I1
ss(g2204
g205
g156
tp6183
(dp6184
g703
I1
ss(g298
g1132
S','
tp6185
(dp6186
g2947
I1
sg2948
I1
ss(S','
g623
g1551
tp6187
(dp6188
g866
I1
ss(g2797
g651
g1476
tp6189
(dp6190
g341
I1
ss(g399
S'I'
g1179
tp6191
(dp6192
g41
I1
ss(g1127
g3532
g180
tp6193
(dp6194
S'.'
I1
ss(g1264
g606
g72
tp6195
(dp6196
S','
I1
ss(S'I'
g232
g1213
tp6197
(dp6198
g24
I1
ss(g1736
g342
g1147
tp6199
(dp6200
S'.'
I1
ss(g1490
g727
g1157
tp6201
(dp6202
g1532
I1
ss(S','
g612
g361
tp6203
(dp6204
g1075
I1
ss(g284
g50
g596
tp6205
(dp6206
g1316
I1
ss(g1683
S','
g300
tp6207
(dp6208
S','
I1
ss(g655
g183
S','
tp6209
(dp6210
g212
I1
ss(g1083
g245
g1023
tp6211
(dp6212
g354
I1
ss(g372
g636
g1736
tp6213
(dp6214
g342
I1
ss(g875
g1712
g15
tp6215
(dp6216
S';'
I1
ss(g416
g1007
g276
tp6217
(dp6218
g1001
I1
ss(g689
g781
g944
tp6219
(dp6220
S';'
I1
ss(g3299
g139
g1239
tp6221
(dp6222
g233
I1
ss(g1701
g992
g51
tp6223
(dp6224
g1153
I1
ss(g1443
S'I'
g1178
tp6225
(dp6226
g42
I1
ss(g166
S':'
g1680
tp6227
(dp6228
g91
I1
ss(g397
g96
S','
tp6229
(dp6230
g407
I1
ss(g223
S'.'
S'\x00'
tp6231
(dp6232
S'\x00'
I2
ss(g1671
S'.'
S'\x00'
tp6233
(dp6234
S'\x00'
I2
ss(g318
g916
g2951
tp6235
(dp6236
S';'
I1
ss(g419
S'a'
g722
tp6237
(dp6238
g1473
I1
ss(g88
g279
g71
tp6239
(dp6240
S','
I1
ss(g676
g289
g1046
tp6241
(dp6242
g1386
I1
ss(g160
g1069
g738
tp6243
(dp6244
g303
I2
ss(S','
g620
S';'
tp6245
(dp6246
g1424
I1
ss(g679
g1615
g216
tp6247
(dp6248
g941
I1
ss(g2433
g1107
g118
tp6249
(dp6250
S';'
I1
sg1199
I1
ss(g1653
g292
g448
tp6251
(dp6252
g644
I1
ss(g2050
g1454
g9
tp6253
(dp6254
g743
I1
ss(g333
g965
g207
tp6255
(dp6256
g133
I1
ss(g118
g1199
g101
tp6257
(dp6258
g1586
I1
ss(g2369
g854
S'a'
tp6259
(dp6260
g115
I1
ss(S','
g3833
g1374
tp6261
(dp6262
g402
I1
ss(g273
g223
S'.'
tp6263
(dp6264
S'\x00'
I1
ss(g247
g821
g305
tp6265
(dp6266
g1287
I1
ss(g977
S'?'
S'\x00'
tp6267
(dp6268
S'\x00'
I2
ss(g53
S'.'
g295
tp6269
(dp6270
g1635
I1
ss(g18
g325
g460
tp6271
(dp6272
g945
I1
ss(S','
g3007
g475
tp6273
(dp6274
g251
I1
sg652
I1
ss(g606
g72
S','
tp6275
(dp6276
g2123
I1
ss(g130
S'.'
g3285
tp6277
(dp6278
g1221
I1
ss(S'a'
g206
g404
tp6279
(dp6280
S','
I1
ss(g422
S','
g3048
tp6281
(dp6282
S','
I1
ss(g32
g173
S'.'
tp6283
(dp6284
S'\x00'
I1
ss(g362
g234
S','
tp6285
(dp6286
g620
I1
ss(g3019
g607
g39
tp6287
(dp6288
S','
I1
ss(g1753
g257
g363
tp6289
(dp6290
g348
I1
ss(g1576
g850
g228
tp6291
(dp6292
g1124
I1
ss(g821
g305
g1287
tp6293
(dp6294
g1552
I1
ss(g145
S','
g625
tp6295
(dp6296
g1312
I1
ss(g195
S','
g615
tp6297
(dp6298
g169
I1
ss(g1190
S';'
g328
tp6299
(dp6300
S','
I1
ss(g7
g1121
g2366
tp6301
(dp6302
g247
I1
ss(g377
g311
g1716
tp6303
(dp6304
g1380
I1
ss(g1712
g15
S';'
tp6305
(dp6306
g3179
I1
ss(g134
S'.'
S'I'
tp6307
(dp6308
g232
I1
ss(g210
g33
S','
tp6309
(dp6310
g290
I1
ss(S' '
g104
g1408
tp6311
(dp6312
g655
I1
sg645
I1
ss(g49
g491
g1206
tp6313
(dp6314
g174
I1
ss(g1286
g208
g1731
tp6315
(dp6316
g2237
I1
ss(g371
g324
g8
tp6317
(dp6318
g128
I1
ss(g346
g362
g234
tp6319
(dp6320
S','
I1
ss(g3701
S','
g3095
tp6321
(dp6322
g853
I1
ss(g314
g1264
g606
tp6323
(dp6324
g72
I1
ss(g912
g152
S','
tp6325
(dp6326
g2784
I1
ss(g410
g1463
g929
tp6327
(dp6328
g384
I1
ss(S','
g268
g1705
tp6329
(dp6330
g1110
I1
ss(S'-'
g66
g1521
tp6331
(dp6332
g1200
I1
ss(g365
S','
g2076
tp6333
(dp6334
g1383
I1
ss(S';'
g2026
g1376
tp6335
(dp6336
g868
I1
ss(g1550
g88
g279
tp6337
(dp6338
g71
I1
ss(g551
g528
g964
tp6339
(dp6340
g30
I1
ss(g1632
g25
g827
tp6341
(dp6342
g304
I1
ss(g63
g148
S'.'
tp6343
(dp6344
g4004
I1
ss(g850
g228
g1124
tp6345
(dp6346
g61
I1
ss(g1096
S','
g2450
tp6347
(dp6348
g733
I1
ss(g338
g581
g322
tp6349
(dp6350
S','
I2
ss(g1851
g293
g1748
tp6351
(dp6352
g2311
I1
ss(g1011
g3306
g310
tp6353
(dp6354
g65
I1
ss(g347
g1049
S','
tp6355
(dp6356
g3948
I1
ss(g1140
g2346
g113
tp6357
(dp6358
g401
I1
ss(g1595
g422
S','
tp6359
(dp6360
g3048
I1
ss(g1153
g1286
g208
tp6361
(dp6362
g1731
I1
ss(S'.'
g3285
g1221
tp6363
(dp6364
g457
I1
ss(g36
g1306
g219
tp6365
(dp6366
g1366
I1
ss(g993
g1490
g727
tp6367
(dp6368
g1157
I1
ss(g327
g883
S'a'
tp6369
(dp6370
g177
I1
ss(S','
g2532
S'I'
tp6371
(dp6372
g286
I1
ss(g1143
g1310
g1170
tp6373
(dp6374
g339
I1
ss(g58
g399
S'I'
tp6375
(dp6376
g1179
I1
ss(S','
g2249
g2110
tp6377
(dp6378
g98
I1
ss(g374
g262
g1150
tp6379
(dp6380
g1190
I1
ss(S' '
g3010
S'.'
tp6381
(dp6382
S'\x00'
I3
ss(g2312
g85
g935
tp6383
(dp6384
g1163
I1
ss(g1132
S','
g2948
tp6385
(dp6386
S','
I1
ss(S','
g2533
S','
tp6387
(dp6388
g2797
I1
sg368
I1
ss(S','
g3813
g847
tp6389
(dp6390
g506
I1
ss(g666
g266
g1411
tp6391
(dp6392
g239
I1
ss(g199
g1458
g242
tp6393
(dp6394
g1539
I1
ss(g732
g834
g294
tp6395
(dp6396
S'?'
I1
ss(g359
g246
g1437
tp6397
(dp6398
g977
I1
ss(g563
g1836
g366
tp6399
(dp6400
S','
I1
ss(g245
g1023
g354
tp6401
(dp6402
g1503
I1
ss(g1156
S'.'
g382
tp6403
(dp6404
g953
I1
ss(g62
g537
g158
tp6405
(dp6406
g1592
I1
ss(g385
g99
S','
tp6407
(dp6408
S'I'
I1
ss(S','
g1806
g1384
tp6409
(dp6410
S'I'
I1
ss(g1476
g341
S','
tp6411
(dp6412
g3381
I1
sg375
I2
ss(g177
g373
g229
tp6413
(dp6414
g336
I1
ss(S','
S'I'
g1174
tp6415
(dp6416
g1127
I1
ss(g379
g112
S','
tp6417
(dp6418
g3706
I1
ss(g1183
g1513
g875
tp6419
(dp6420
g1713
I3
sg1712
I1
ss(g764
g995
g1802
tp6421
(dp6422
g1106
I1
ss(g39
S','
g612
tp6423
(dp6424
g361
I1
ss(g680
g135
g540
tp6425
(dp6426
S','
I1
ss(S'a'
g177
g373
tp6427
(dp6428
g229
I1
ss(g3007
g475
g652
tp6429
(dp6430
g3042
I1
ss(g128
S'I'
g1175
tp6431
(dp6432
g364
I1
ss(S','
g2045
g2712
tp6433
(dp6434
g971
I1
ss(g1379
S','
g1785
tp6435
(dp6436
g383
I1
ss(g965
g207
g133
tp6437
(dp6438
S'.'
I1
ss(g243
g975
g1580
tp6439
(dp6440
g3760
I1
ss(g2673
g3830
S','
tp6441
(dp6442
g3833
I1
ss(g2570
g331
S','
tp6443
(dp6444
g3187
I1
ss(g311
g1716
g1380
tp6445
(dp6446
g746
I1
ss(g2257
g2979
g888
tp6447
(dp6448
g2696
I1
ss(g302
g566
g1365
tp6449
(dp6450
g323
I1
ss(g4408
g1851
g293
tp6451
(dp6452
g1748
I1
ss(g59
g299
g513
tp6453
(dp6454
g10
I1
ss(S' '
g385
g99
tp6455
(dp6456
S','
I1
ss(g375
g730
g654
tp6457
(dp6458
g352
I1
ss(g448
g644
g764
tp6459
(dp6460
g995
I1
ss(g514
g14
S'"'
tp6461
(dp6462
g377
I1
ss(g956
g178
g344
tp6463
(dp6464
g1653
I1
ss(g513
g10
g371
tp6465
(dp6466
g324
I1
ss(S','
g176
g194
tp6467
(dp6468
g165
I1
ss(S','
g413
g956
tp6469
(dp6470
g178
I1
ss(g122
g109
S','
tp6471
(dp6472
g2810
I1
ss(g158
g1592
g867
tp6473
(dp6474
g1457
I1
ss(S'what'
p6475
g3280
g357
tp6476
(dp6477
S','
I1
ss(g25
g827
g304
tp6478
(dp6479
g1216
I1
ss(g308
S';'
g1949
tp6480
(dp6481
g786
I1
ss(g183
S','
g212
tp6482
(dp6483
S'-'
I1
ss(g1803
S','
g1806
tp6484
(dp6485
g1384
I1
ss(g1290
g1125
g3244
tp6486
(dp6487
g241
I1
ss(g50
g596
g1316
tp6488
(dp6489
g2336
I1
ss(g403
g756
g1694
tp6490
(dp6491
g2957
I1
ss(g1063
g231
g684
tp6492
(dp6493
g2433
I1
ss(g119
g403
g756
tp6494
(dp6495
g1694
I1
ss(g57
S';'
g144
tp6496
(dp6497
g1495
I1
ss(g46
g1509
g1318
tp6498
(dp6499
S','
I1
ss(S' '
S'O'
g534
tp6500
(dp6501
S','
I1
ss(g2285
g1161
g1111
tp6502
(dp6503
g374
I1
ss(g2109
g529
g1704
tp6504
(dp6505
g260
I1
ss(g2747
g263
g1506
tp6506
(dp6507
S':'
I1
ss(g401
g107
g928
tp6508
(dp6509
g427
I1
ss(g234
S','
g620
tp6510
(dp6511
S';'
I1
ss(g2135
g365
S','
tp6512
(dp6513
g2076
I1
ss(g3285
g1221
g457
tp6514
(dp6515
g319
I1
ss(S','
g615
g169
tp6516
(dp6517
g1052
I1
ss(g1287
g1552
g267
tp6518
(dp6519
g369
I1
ss(S';'
g2418
g996
tp6520
(dp6521
g2421
I1
ss(S'a'
g724
S','
tp6522
(dp6523
g3121
I1
ss(g1367
g2747
g263
tp6524
(dp6525
g1506
I1
ss(g1205
g160
g1069
tp6526
(dp6527
g738
I1
ss(g1324
g2343
g291
tp6528
(dp6529
g1446
I1
ss(S'.'
g2575
g679
tp6530
(dp6531
g1615
I1
ss(g3413
g1162
g1146
tp6532
(dp6533
g1313
I1
ss(g249
g1469
g388
tp6534
(dp6535
S':'
I1
ss(g87
S'?'
S'\x00'
tp6536
(dp6537
S'\x00'
I2
ss(g2784
S'I'
g31
tp6538
(dp6539
S','
I1
ss(g268
g1705
g1110
tp6540
(dp6541
g314
I1
ss(g2045
g2712
g971
tp6542
(dp6543
g412
I1
ss(g263
g1506
S':'
tp6544
(dp6545
g1684
I1
ss(g1512
g282
g408
tp6546
(dp6547
g431
I1
ss(g316
g1114
g648
tp6548
(dp6549
g3033
I1
ss(g11
g1621
g312
tp6550
(dp6551
g1432
I1
ss(S' '
g3059
S';'
tp6552
(dp6553
g1428
I1
sg1426
I2
ss(g2655
S','
g2947
tp6554
(dp6555
S','
I1
ss(g405
g1743
g667
tp6556
(dp6557
g2273
I1
ss(S'I'
g2913
g548
tp6558
(dp6559
g2916
I1
ss(g350
g435
g37
tp6560
(dp6561
g676
I1
sS'.'
I1
ss(S','
g2135
g365
tp6562
(dp6563
S','
I1
ss(g738
g303
g287
tp6564
(dp6565
g392
I1
ss(S' '
g269
S'.'
tp6566
(dp6567
S'\x00'
I3
ss(g2037
S'?'
S'\x00'
tp6568
(dp6569
S'\x00'
I2
ss(g486
g70
g808
tp6570
(dp6571
g146
I1
ss(g1663
S'?'
S'\x00'
tp6572
(dp6573
S'\x00'
I2
ss(g406
g1559
g1546
tp6574
(dp6575
g140
I1
ss(g2237
g1576
g850
tp6576
(dp6577
g228
I1
ss(S','
g393
g126
tp6578
(dp6579
g663
I1
ss(g787
S'a'
g306
tp6580
(dp6581
S','
I1
ss(g2902
g1105
g1382
tp6582
(dp6583
g225
I1
ss(g269
S'.'
S'\x00'
tp6584
(dp6585
S'\x00'
I6
ss(g780
g270
g1351
tp6586
(dp6587
g237
I1
ss(g93
g633
g406
tp6588
(dp6589
g1559
I1
ss(g756
g1694
g2957
tp6590
(dp6591
g308
I1
ss(g1158
g418
S'.'
tp6592
(dp6593
g3878
I1
ss(g3192
g64
g710
tp6594
(dp6595
g54
I1
ss(g51
g1153
g1286
tp6596
(dp6597
g208
I1
ss(g1007
g276
g1001
tp6598
(dp6599
g274
I1
ss(g61
g230
g179
tp6600
(dp6601
g1711
I1
ss(g1314
S';'
g2967
tp6602
(dp6603
g1377
I1
ss(g1023
g354
g1503
tp6604
(dp6605
g779
I1
ss(g233
g980
g410
tp6606
(dp6607
g1463
I1
ss(g1626
g425
S','
tp6608
(dp6609
g611
I1
ss(g1219
S'I'
g1177
tp6610
(dp6611
g1082
I1
ss(g1016
g3331
g151
tp6612
(dp6613
S','
I1
ss(g1213
g24
g1072
tp6614
(dp6615
g1701
I1
ss(g1486
g105
g1096
tp6616
(dp6617
S','
I1
ss(g663
S'a'
g131
tp6618
(dp6619
S'.'
I1
ss(g168
g1245
g1198
tp6620
(dp6621
g13
I1
ss(g414
g1677
g264
tp6622
(dp6623
g1573
I1
ss(g86
g327
g883
tp6624
(dp6625
S'a'
I1
ss(S'are'
p6626
g3358
g1578
tp6627
(dp6628
g67
I1
ss(g425
S','
g611
tp6629
(dp6630
g2966
I1
ss(g3584
S'a'
g316
tp6631
(dp6632
g1114
I1
ss(g174
g824
g1935
tp6633
(dp6634
g1160
I1
ss(g1375
g254
g1708
tp6635
(dp6636
g137
I1
ss(g3381
g38
g1169
tp6637
(dp6638
g191
I1
ss(S';'
g1426
g848
tp6639
(dp6640
g646
I2
ss(g324
g8
g128
tp6641
(dp6642
S'I'
I1
ss(g2609
g190
g961
tp6643
(dp6644
g1319
I1
ss(g694
g93
g633
tp6645
(dp6646
g406
I1
ss(g27
g641
S','
tp6647
(dp6648
g627
I1
ss(g1680
g91
S','
tp6649
(dp6650
g3584
I1
ss(g78
S';'
g2026
tp6651
(dp6652
g1376
I1
ss(g37
g676
g289
tp6653
(dp6654
g1046
I1
ss(g162
g802
g335
tp6655
(dp6656
g307
I1
ss(g81
S';'
g420
tp6657
(dp6658
S','
I1
ss(g753
g1315
g921
tp6659
(dp6660
g1754
I1
ss(g17
g1137
g2104
tp6661
(dp6662
g196
I1
ssa(dp6663
(g2173
g94
g893
g3000
tp6664
(dp6665
S':'
I1
ss(g548
g2916
g68
S'.'
tp6666
(dp6667
S'\x00'
I1
ss(g2249
g2110
g98
g753
tp6668
(dp6669
g1315
I1
ss(g27
g641
S','
g627
tp6670
(dp6671
g345
I1
ss(S'.'
g912
g152
S','
tp6672
(dp6673
g2784
I1
ss(g537
g158
g1592
g867
tp6674
(dp6675
g1457
I1
ss(g310
g65
g1498
g869
tp6676
(dp6677
g189
I1
ss(g534
S','
g618
g2246
tp6678
(dp6679
S'a'
I1
ss(g295
g1635
g258
g968
tp6680
(dp6681
g414
I1
ss(g2076
g1383
g2079
g2173
tp6682
(dp6683
g94
I1
ss(g658
g355
g271
g297
tp6684
(dp6685
S','
I1
ss(g318
g916
g2951
S';'
tp6686
(dp6687
g3030
I1
ss(g359
g246
g1437
g977
tp6688
(dp6689
S'?'
I1
ss(g24
g1072
g1701
g992
tp6690
(dp6691
g51
I1
ss(g215
g1193
g23
g1028
tp6692
(dp6693
g3150
I1
ss(g1767
g168
g1245
g1198
tp6694
(dp6695
g13
I1
ss(g697
g2357
g1158
g418
tp6696
(dp6697
S'.'
I1
ss(g1179
g41
g201
g277
tp6698
(dp6699
g379
I1
ss(g3179
g253
g1016
g3331
tp6700
(dp6701
g151
I1
ss(g145
S','
g625
g1312
tp6702
(dp6703
g1000
I1
ss(g174
g824
g1935
g1160
tp6704
(dp6705
g1056
I1
ss(g554
g259
S';'
g2905
tp6706
(dp6707
g125
I1
ss(g993
g1490
g727
g1157
tp6708
(dp6709
g1532
I1
ss(g1822
S','
g610
g1695
tp6710
(dp6711
g315
I1
ss(g286
S'.'
g913
g2655
tp6712
(dp6713
S','
I1
ss(S'I'
g3394
g1803
S','
tp6714
(dp6715
g1806
I1
ss(g916
g2951
S';'
g3030
tp6716
(dp6717
g1372
I1
ss(g474
g563
g1836
g366
tp6718
(dp6719
S','
I1
ss(g2655
S','
g2947
S','
tp6720
(dp6721
g243
I1
ss(g510
g318
g916
g2951
tp6722
(dp6723
S';'
I1
ss(g85
g935
g1163
g2103
tp6724
(dp6725
S'a'
I1
ss(g1736
g342
g1147
S'.'
tp6726
(dp6727
g49
I1
ss(g1551
g866
g221
g103
tp6728
(dp6729
g498
I1
ss(g3030
g1372
g3447
g3184
tp6730
(dp6731
g172
I1
ss(S','
g2168
g333
g965
tp6732
(dp6733
g207
I1
ss(g911
g680
g135
g540
tp6734
(dp6735
S','
I1
ss(g3613
g3651
g227
S'.'
tp6736
(dp6737
S'\x00'
I1
sg2575
I1
ss(g303
g287
g392
g1395
tp6738
(dp6739
g199
I1
ss(g3447
g3184
g172
g92
tp6740
(dp6741
g858
I1
ss(g528
g964
g30
g1399
tp6742
(dp6743
g57
I1
ss(S';'
g2418
g996
g2421
tp6744
(dp6745
g4511
I1
ss(g319
g1402
g2781
g4323
tp6746
(dp6747
g1954
I1
ss(S' '
g87
S'?'
S'\x00'
tp6748
(dp6749
S'\x00'
I1
ss(g2246
S'a'
g206
g404
tp6750
(dp6751
S','
I1
ss(g1848
g1381
g855
g55
tp6752
(dp6753
g1547
I1
ss(S'of'
p6754
g5998
S','
g616
tp6755
(dp6756
g2257
I1
ss(g853
S','
g619
g74
tp6757
(dp6758
g1324
I1
ss(g57
S';'
g144
g1495
tp6759
(dp6760
g2478
I1
ss(g3489
g1664
g2493
S'-'
tp6761
(dp6762
g1442
I1
ss(S','
S'-'
g66
g1521
tp6763
(dp6764
g1200
I1
ss(S' '
g150
g1618
g1089
tp6765
(dp6766
g255
I1
ss(g529
g1704
g260
g1086
tp6767
(dp6768
g281
I1
ss(g273
g223
S'.'
S'\x00'
tp6769
(dp6770
S'\x00'
I1
ss(g2881
g329
g1629
g124
tp6771
(dp6772
g1583
I1
ss(g1318
S','
g1993
g184
tp6773
(dp6774
g880
I1
ss(g396
g360
g187
g1301
tp6775
(dp6776
g417
I1
ss(g2130
g396
g360
g187
tp6777
(dp6778
g1301
I1
ss(g1632
g25
g827
g304
tp6779
(dp6780
g1216
I1
ss(g4033
g3102
S'.'
S'\x00'
tp6781
(dp6782
S'\x00'
I1
ss(g684
g2433
g1107
g118
tp6783
(dp6784
S';'
I1
sg1199
I1
ss(g167
S','
g2486
g3686
tp6785
(dp6786
g110
I1
ss(g867
g1457
g309
S'.'
tp6787
(dp6788
g147
I1
ss(g162
g802
g335
g307
tp6789
(dp6790
S','
I1
ss(g607
g39
S','
g612
tp6791
(dp6792
g361
I1
ss(g3019
g607
g39
S','
tp6793
(dp6794
g612
I1
ss(g3000
S':'
g1683
S','
tp6795
(dp6796
g300
I1
ss(g2951
S';'
g3030
g1372
tp6797
(dp6798
g3447
I1
ss(g98
g753
g1315
g921
tp6799
(dp6800
g1754
I1
ss(g3921
g3223
g164
g830
tp6801
(dp6802
g2774
I1
ss(S','
g2019
g732
g834
tp6803
(dp6804
g294
I1
ss(S','
g2908
g788
g53
tp6805
(dp6806
S'.'
I1
ss(S'a'
g115
g717
g217
tp6807
(dp6808
g1342
I1
ss(S','
g393
g126
g663
tp6809
(dp6810
S'a'
I1
ss(g91
S','
g3584
S'a'
tp6811
(dp6812
g316
I1
ss(g388
S':'
g1682
S','
tp6813
(dp6814
g2570
I1
ss(g641
S','
g627
g345
tp6815
(dp6816
g1035
I1
ss(S'-'
g16
g26
g79
tp6817
(dp6818
g700
I1
ss(S'.'
g382
g953
g386
tp6819
(dp6820
g186
I1
ss(g618
g2246
S'a'
g206
tp6821
(dp6822
g404
I1
ss(g323
g11
g1621
g312
tp6823
(dp6824
g1432
I1
ss(S','
g3813
g847
g506
tp6825
(dp6826
g486
I1
ss(g1503
g779
g182
g421
tp6827
(dp6828
S','
I1
ss(g1564
S','
g623
g1551
tp6829
(dp6830
g866
I1
ss(g1381
g855
g55
g1547
tp6831
(dp6832
S'.'
I1
ss(S','
g268
g1705
g1110
tp6833
(dp6834
g314
I1
ss(g128
S'I'
g1175
g364
tp6835
(dp6836
g1666
I1
ss(g8
g128
S'I'
g1175
tp6837
(dp6838
g364
I1
ss(g123
g1242
g347
g1049
tp6839
(dp6840
S';'
I1
sS','
I1
ss(g681
g2507
g1579
g973
tp6841
(dp6842
g3068
I1
ss(g1385
g1156
S'.'
g382
tp6843
(dp6844
g953
I1
ss(g1290
g1125
g3244
g241
tp6845
(dp6846
S'-'
I1
ss(g4083
g2703
g1550
g88
tp6847
(dp6848
g279
I1
ss(g348
S','
g2294
g731
tp6849
(dp6850
g12
I1
ss(g3184
g172
g92
g858
tp6851
(dp6852
g1182
I1
ss(g576
g972
g69
g1757
tp6853
(dp6854
g130
I1
ss(g2514
g576
g972
g69
tp6855
(dp6856
g1757
I1
ss(g222
g301
S'.'
S'\x00'
tp6857
(dp6858
S'\x00'
I1
ss(S','
g3161
g993
g1490
tp6859
(dp6860
g727
I1
ss(S','
g3573
g83
g249
tp6861
(dp6862
g1469
I1
ss(S','
g616
g2257
g2979
tp6863
(dp6864
g888
I1
ss(g361
g1075
g203
g1143
tp6865
(dp6866
g1310
I1
ss(S','
g626
g2198
g1187
tp6867
(dp6868
g250
I1
ss(g149
S','
g268
g1705
tp6869
(dp6870
g1110
I1
ss(g266
g1411
g239
g278
tp6871
(dp6872
g188
I1
ss(g349
g1330
g170
g44
tp6873
(dp6874
g843
I1
ss(S';'
g420
S','
g621
tp6875
(dp6876
g2262
I1
ss(g849
g794
S'I'
g136
tp6877
(dp6878
g547
I1
ss(g1370
g1257
g1185
S','
tp6879
(dp6880
g3813
I1
ss(g122
g109
S','
g2810
tp6881
(dp6882
g356
I1
ss(g244
S','
S'I'
g58
tp6883
(dp6884
g399
I1
ss(g150
g1618
g1089
g255
tp6885
(dp6886
g326
I1
ss(S','
g3187
g1577
g1020
tp6887
(dp6888
g1868
I1
ss(g341
S','
g375
g730
tp6889
(dp6890
g654
I1
ss(g854
S'a'
g115
g717
tp6891
(dp6892
g217
I1
ss(g654
g352
S'?'
S'\x00'
tp6893
(dp6894
S'\x00'
I1
ss(g165
g82
g870
g1998
tp6895
(dp6896
g116
I1
ss(g407
g317
g210
g33
tp6897
(dp6898
S','
I1
ss(g476
g1248
g1396
g2203
tp6899
(dp6900
g4990
I1
ss(g59
g299
g513
g10
tp6901
(dp6902
g371
I1
ss(S'I'
g1175
g364
g1666
tp6903
(dp6904
g273
I1
ss(g479
g2432
S','
g2369
tp6905
(dp6906
g854
I1
ss(g551
g528
g964
g30
tp6907
(dp6908
g1399
I1
ss(g2758
g155
g1658
g1564
tp6909
(dp6910
S','
I1
ss(g3434
g1371
g3808
g1451
tp6911
(dp6912
g1367
I1
ss(g1160
g1056
S','
g3192
tp6913
(dp6914
g64
I1
ss(g2346
g113
g401
g107
tp6915
(dp6916
g928
I1
ss(S','
g2479
g285
g799
tp6917
(dp6918
g2285
I1
ss(g92
g858
g1182
g1354
tp6919
(dp6920
g1171
I2
ss(g41
g201
g277
g379
tp6921
(dp6922
g112
I1
ss(g438
g664
g2042
g5897
tp6923
(dp6924
g4647
I1
ss(g236
g149
S','
g268
tp6925
(dp6926
g1705
I1
ss(g2273
g2584
S'.'
S'\x00'
tp6927
(dp6928
S'\x00'
I1
ss(g1681
g2496
g153
g1280
tp6929
(dp6930
g479
I1
ss(g1748
g2311
g35
g1612
tp6931
(dp6932
g1385
I1
ss(S','
S'I'
g58
g399
tp6933
(dp6934
S'I'
I1
ss(g214
g901
g2463
g45
tp6935
(dp6936
S','
I1
ss(g1377
g2970
g2609
g190
tp6937
(dp6938
g961
I1
ss(g1132
S','
g2948
S','
tp6939
(dp6940
g2797
I1
ss(g312
g1432
S'a'
g723
tp6941
(dp6942
g925
I1
ss(g763
g62
g537
g158
tp6943
(dp6944
g1592
I1
ss(g357
S','
g3007
g475
tp6945
(dp6946
g652
I1
ss(g1171
g2578
S','
g2168
tp6947
(dp6948
g333
I1
ss(g1629
g124
g1583
g81
tp6949
(dp6950
S';'
I1
ss(g4128
g5419
g3296
g22
tp6951
(dp6952
S','
I1
ss(g2797
g651
g1476
g341
tp6953
(dp6954
S','
I1
ss(S';'
g3275
g3043
g575
tp6955
(dp6956
S','
I1
ss(g3192
g64
g710
g54
tp6957
(dp6958
g780
I1
ss(g1428
g48
g908
g3480
tp6959
(dp6960
g1911
I1
ss(g2957
g308
S';'
g1949
tp6961
(dp6962
g786
I1
ss(g1096
S','
g2450
g733
tp6963
(dp6964
g416
I1
ss(g132
g1698
S';'
g1425
tp6965
(dp6966
g47
I1
ss(g14
S'"'
g377
g311
tp6967
(dp6968
g1716
I1
ss(g1602
g213
g658
g355
tp6969
(dp6970
g271
I1
ss(g320
g275
g235
g56
tp6971
(dp6972
g400
I1
ss(g581
g322
S','
g2533
tp6973
(dp6974
S','
I1
ss(g25
g827
g304
g1216
tp6975
(dp6976
g1373
I1
ss(g1513
g875
g1712
g15
tp6977
(dp6978
S';'
I1
ss(g252
S','
g3161
g993
tp6979
(dp6980
g1490
I1
ss(g308
S';'
g1949
g786
tp6981
(dp6982
S','
I1
ss(g32
g173
S'.'
S'\x00'
tp6983
(dp6984
S'\x00'
I1
ss(S'?'
g240
g681
g2507
tp6985
(dp6986
g1579
I1
ss(g1028
g3150
g120
g370
tp6987
(dp6988
S','
I1
ss(g1355
g395
S','
g2852
tp6989
(dp6990
g653
I1
ss(g2670
g1665
g2673
g3830
tp6991
(dp6992
S','
I1
ss(g787
S'a'
g306
S','
tp6993
(dp6994
g1857
I1
ss(g2486
g3686
g110
g313
tp6995
(dp6996
g1589
I1
ss(g1315
g921
g1754
g63
tp6997
(dp6998
g148
I1
ss(g62
g537
g158
g1592
tp6999
(dp7000
g867
I1
ss(g278
g188
g100
g380
tp7001
(dp7002
S';'
I1
ss(S' '
g181
g378
g76
tp7003
(dp7004
g138
I1
ss(g363
g348
S','
g2294
tp7005
(dp7006
g731
I1
ss(g209
g346
g362
g234
tp7007
(dp7008
S','
I1
ss(g409
g145
S','
g625
tp7009
(dp7010
g1312
I1
ss(S'I'
g31
S','
g1774
tp7011
(dp7012
g650
I1
ss(g96
S','
g407
g317
tp7013
(dp7014
g210
I1
ss(g1687
g554
g259
S';'
tp7015
(dp7016
g2905
I1
ss(g2079
g2173
g94
g893
tp7017
(dp7018
g3000
I1
ss(S' '
g3010
S'.'
S'\x00'
tp7019
(dp7020
S'\x00'
I3
ss(S';'
g1425
g47
g337
tp7021
(dp7022
g320
I1
ss(g491
g1206
g174
g824
tp7023
(dp7024
g1935
I1
ss(g344
g1653
g292
g448
tp7025
(dp7026
g644
I1
ss(S';'
g2599
g1375
g254
tp7027
(dp7028
g1708
I1
ss(g1425
g47
g337
g320
tp7029
(dp7030
g275
I1
ss(g850
g228
g1124
g61
tp7031
(dp7032
g230
I1
ss(g1264
g606
g72
S','
tp7033
(dp7034
g2123
I1
ss(g206
g404
S','
g3386
tp7035
(dp7036
g193
I1
ss(g339
g1043
g1184
g1663
tp7037
(dp7038
S'?'
I1
ss(g613
g353
g1293
g218
tp7039
(dp7040
g985
I1
ss(S'.'
g3878
g3413
g1162
tp7041
(dp7042
g1146
I1
ss(S'I'
g286
S'.'
g913
tp7043
(dp7044
g2655
I1
ss(g3739
g17
g1137
g2104
tp7045
(dp7046
g196
I1
ss(g217
g1342
g423
S','
tp7047
(dp7048
g2045
I1
ss(g49
g491
g1206
g174
tp7049
(dp7050
g824
I1
ss(g666
g266
g1411
g239
tp7051
(dp7052
g278
I1
ss(g1190
S';'
g328
S','
tp7053
(dp7054
g2135
I1
ss(g268
g1705
g1110
g314
tp7055
(dp7056
g1264
I1
ss(g1816
g29
g1019
g343
tp7057
(dp7058
g224
I1
ss(g40
g1230
g2514
g576
tp7059
(dp7060
g972
I1
ss(g1577
g1020
g1868
g1489
tp7061
(dp7062
g84
I1
ss(g116
g154
g938
g387
tp7063
(dp7064
g1472
I1
ss(g961
g1319
g1912
g4322
tp7065
(dp7066
g3981
I1
ss(S','
g3095
g853
S','
tp7067
(dp7068
g619
I1
ss(S','
g3624
g3395
g251
tp7069
(dp7070
g1486
I1
ss(g86
g327
g883
S'a'
tp7071
(dp7072
g177
I1
ss(S'('
g805
g665
g272
tp7073
(dp7074
g1602
I1
ss(g506
g486
g70
g808
tp7075
(dp7076
g146
I1
ss(g354
g1503
g779
g182
tp7077
(dp7078
g421
I1
ss(S';'
g1949
g786
S','
tp7079
(dp7080
g1811
I1
ss(g211
g397
g96
S','
tp7081
(dp7082
g407
I1
ss(g254
g1708
g137
S','
tp7083
(dp7084
g3019
I1
ss(S','
g117
S';'
g4083
tp7085
(dp7086
g2703
I1
ss(g72
S','
g2123
g2109
tp7087
(dp7088
g529
I1
ss(g306
S','
g1857
g551
tp7089
(dp7090
g528
I1
ss(g1595
g422
S','
g3048
tp7091
(dp7092
S','
I1
ss(g945
g202
g1529
g330
tp7093
(dp7094
g1466
I1
ss(g424
g1031
g1314
S';'
tp7095
(dp7096
g2967
I1
ss(g468
g432
g77
S','
tp7097
(dp7098
g2581
I1
ss(g1803
S','
g1806
g1384
tp7099
(dp7100
S'I'
I1
ss(g322
S','
g2533
S','
tp7101
(dp7102
g368
I1
ss(g1324
g2343
g291
g1446
tp7103
(dp7104
g1845
I1
ss(g1666
g273
g223
S'.'
tp7105
(dp7106
S'\x00'
I1
ss(S'I'
g58
g399
S'I'
tp7107
(dp7108
g1179
I1
ss(g1016
g3331
g151
S','
tp7109
(dp7110
S'I'
I1
ss(g1446
g1845
g46
g1509
tp7111
(dp7112
g1318
I1
ss(S' '
g163
g445
g209
tp7113
(dp7114
g346
I1
ss(g67
g772
g3299
g139
tp7115
(dp7116
g1239
I1
ss(g383
g80
g215
g1193
tp7117
(dp7118
g23
I1
ss(g1188
S','
g1848
g1381
tp7119
(dp7120
g855
I1
ss(g746
g159
g861
g1317
tp7121
(dp7122
g332
I1
ss(g189
S'.'
g283
g1220
tp7123
(dp7124
g464
I1
ss(g630
g121
S'.'
g426
tp7125
(dp7126
g1595
I1
ss(g1827
g3844
S'.'
S'\x00'
tp7127
(dp7128
S'\x00'
I1
ss(g345
g1035
S'a'
g2954
tp7129
(dp7130
g1090
I1
ss(g423
S','
g2045
g2712
tp7131
(dp7132
g971
I1
ss(g3095
g853
S','
g619
tp7133
(dp7134
g74
I1
ss(g140
g1004
g514
g14
tp7135
(dp7136
S'"'
I1
ss(g1405
g409
g145
S','
tp7137
(dp7138
g625
I1
ss(g178
g344
g1653
g292
tp7139
(dp7140
g448
I1
ss(g260
g1086
g281
S','
tp7141
(dp7142
g2403
I1
ss(g1174
g1127
g3532
g180
tp7143
(dp7144
S'.'
I1
ss(g1311
g1753
g257
g363
tp7145
(dp7146
g348
I1
ss(g2599
g1375
g254
g1708
tp7147
(dp7148
g137
I1
ss(g566
g1365
g323
g11
tp7149
(dp7150
g1621
I1
ss(g786
S','
g1811
g2256
tp7151
(dp7152
g1126
I1
ss(g621
g2262
g27
g641
tp7153
(dp7154
S','
I1
ss(g415
g18
g325
g460
tp7155
(dp7156
g945
I1
ss(g1111
g374
g262
g1150
tp7157
(dp7158
g1190
I1
ss(g108
S','
g2636
g849
tp7159
(dp7160
g794
I1
ss(g665
g272
g1602
g213
tp7161
(dp7162
g658
I1
ss(g313
g1589
g122
g109
tp7163
(dp7164
S','
I1
ss(S';'
g3030
g1372
g3447
tp7165
(dp7166
g3184
I1
ss(S'I'
g161
S';'
g1427
tp7167
(dp7168
g789
I1
ss(g3413
g1162
g1146
g1313
tp7169
(dp7170
g2312
I1
ss(g3878
g3413
g1162
g1146
tp7171
(dp7172
g1313
I1
ss(S'.'
g3285
g1221
g457
tp7173
(dp7174
g319
I1
ss(g1495
g2478
g1788
g162
tp7175
(dp7176
g802
I1
ss(g1506
S':'
g1684
g1159
tp7177
(dp7178
g1632
I1
ss(g181
g378
g76
g138
tp7179
(dp7180
S','
I1
ss(S'-'
g1443
S'I'
g1178
tp7181
(dp7182
g42
I1
ss(g2256
g1126
g697
g2357
tp7183
(dp7184
g1158
I1
ss(g326
g630
g121
S'.'
tp7185
(dp7186
g426
I1
ss(g1716
g1380
g746
g159
tp7187
(dp7188
g861
I1
ss(g230
g179
g1711
g111
tp7189
(dp7190
g252
I1
ss(g794
S'I'
g136
g547
tp7191
(dp7192
S':'
I1
ss(g134
S'.'
S'I'
g232
tp7193
(dp7194
g1213
I1
ss(g75
g129
S','
g1816
tp7195
(dp7196
g29
I1
ss(g610
g1695
g315
g694
tp7197
(dp7198
g93
I1
ss(g394
g1066
S'?'
S'\x00'
tp7199
(dp7200
S'\x00'
I1
ss(g2104
g196
g1063
g231
tp7201
(dp7202
g684
I1
ss(g1518
g200
g468
g432
tp7203
(dp7204
g77
I1
ss(S'I'
g136
g547
S':'
tp7205
(dp7206
g1681
I1
ss(S','
g3386
g193
g1011
tp7207
(dp7208
g3306
I1
ss(g1411
g239
g278
g188
tp7209
(dp7210
g100
I1
ss(g247
g821
g305
g1287
tp7211
(dp7212
g1552
I1
ss(g3068
S','
g3381
g38
tp7213
(dp7214
g1169
I1
ss(g1526
g1309
g1827
g3844
tp7215
(dp7216
S'.'
I1
ss(S'?'
S'('
g805
g665
tp7217
(dp7218
g272
I1
ss(g188
g100
g380
S';'
tp7219
(dp7220
g2599
I1
ss(g1090
g1183
g1513
g875
tp7221
(dp7222
g1713
I2
sg1712
I1
ss(g1020
g1868
g1489
g84
tp7223
(dp7224
g372
I1
ss(g221
g103
g498
g3502
tp7225
(dp7226
g1822
I1
ss(g626
g2198
g1187
g250
tp7227
(dp7228
g1609
I1
ss(g207
g133
S'.'
g911
tp7229
(dp7230
g680
I1
ss(S','
g3706
g59
g299
tp7231
(dp7232
g513
I1
ss(g1532
g43
g471
g1186
tp7233
(dp7234
g510
I1
ss(S','
g2130
g396
g360
tp7235
(dp7236
g187
I1
ss(g282
g408
g431
g244
tp7237
(dp7238
S','
I1
ss(S','
g1785
g383
g80
tp7239
(dp7240
g215
I1
ss(g2774
g78
S';'
g2026
tp7241
(dp7242
g1376
I1
ss(g1382
g225
g1728
g1032
tp7243
(dp7244
g4096
I1
ss(g858
g1182
g1354
g1171
tp7245
(dp7246
g2578
I1
sg357
I1
ss(g2970
g2609
g190
g961
tp7247
(dp7248
g1319
I1
ss(g1043
g1184
g1663
S'?'
tp7249
(dp7250
S'\x00'
I1
ss(g1456
g974
g97
S','
tp7251
(dp7252
g2908
I1
ss(S','
g618
g2246
S'a'
tp7253
(dp7254
g206
I1
ss(g3406
S';'
g2092
g1379
tp7255
(dp7256
S','
I1
ss(g121
S'.'
g426
g1595
tp7257
(dp7258
g422
I1
ss(g824
g1935
g1160
g1056
tp7259
(dp7260
S','
I1
ss(g29
g1019
g343
g224
tp7261
(dp7262
S','
I1
ss(g3875
g238
g898
g73
tp7263
(dp7264
g390
I1
ss(g624
S','
g613
g353
tp7265
(dp7266
g1293
I1
ss(g717
g217
g1342
g423
tp7267
(dp7268
S','
I1
ss(S'a'
g316
g1114
g648
tp7269
(dp7270
g3033
I1
ss(g1091
g553
g280
g167
tp7271
(dp7272
S','
I1
ss(g4566
S','
g2532
S'I'
tp7273
(dp7274
g286
I1
ss(S'.'
g147
g1518
g200
tp7275
(dp7276
g468
I1
ss(g427
g1283
g3613
g3651
tp7277
(dp7278
g227
I1
ss(g663
S'a'
g131
S'.'
tp7279
(dp7280
S'\x00'
I1
ss(g1351
g237
g924
g3178
tp7281
(dp7282
S';'
I1
ss(g119
g403
g756
g1694
tp7283
(dp7284
g2957
I1
ss(g1466
g89
S','
g3434
tp7285
(dp7286
g1371
I1
ss(S';'
g328
S','
g2135
tp7287
(dp7288
g365
I1
ss(g1371
g3808
g1451
g1367
tp7289
(dp7290
g2747
I1
ss(g243
g975
g1580
g3760
tp7291
(dp7292
S','
I1
ss(g1140
g2346
g113
g401
tp7293
(dp7294
g107
I1
ss(g2784
S'I'
g31
S','
tp7295
(dp7296
g1774
I1
ss(g324
g8
g128
S'I'
tp7297
(dp7298
g1175
I1
ss(g63
g148
S'.'
g4004
tp7299
(dp7300
g1219
I1
ss(g619
g74
g1324
g2343
tp7301
(dp7302
g291
I1
ss(g2311
g35
g1612
g1385
tp7303
(dp7304
g1156
I1
ss(S':'
g1683
S','
g300
tp7305
(dp7306
S','
I1
ss(S','
g2369
g854
S'a'
tp7307
(dp7308
g115
I1
ss(g1158
g418
S'.'
g3878
tp7309
(dp7310
g3413
I1
ss(g2609
g190
g961
g1319
tp7311
(dp7312
g1912
I1
ss(g3771
g102
g584
g350
tp7313
(dp7314
g435
I1
ss(g615
g169
g1052
g359
tp7315
(dp7316
g246
I1
ss(g1427
g789
g465
g476
tp7317
(dp7318
g1248
I1
ss(g2123
g2109
g529
g1704
tp7319
(dp7320
g260
I1
ss(g229
g336
S','
g614
tp7321
(dp7322
g997
I1
ss(g710
g54
g780
g270
tp7323
(dp7324
g1351
I1
ss(g802
g335
g307
S','
tp7325
(dp7326
g3624
I1
ss(g1372
g3447
g3184
g172
tp7327
(dp7328
g92
I1
ss(g1216
g1373
g20
g769
tp7329
(dp7330
g930
I1
ss(g3830
S','
g3833
g1374
tp7331
(dp7332
g402
I1
ss(g1476
g341
S','
g375
tp7333
(dp7334
g730
I1
sg732
I1
ss(g834
g294
S'?'
g240
tp7335
(dp7336
g681
I1
ss(g1175
g364
g1666
g273
tp7337
(dp7338
g223
I1
ss(g311
g1716
g1380
g746
tp7339
(dp7340
g159
I1
ss(g299
g513
g10
g371
tp7341
(dp7342
g324
I1
ss(g2741
g4033
g3102
S'.'
tp7343
(dp7344
S'\x00'
I1
ss(g1373
g20
g769
g930
tp7345
(dp7346
S','
I1
ss(g280
g167
S','
g2486
tp7347
(dp7348
g3686
I1
ss(g124
g1583
g81
S';'
tp7349
(dp7350
g420
I1
ss(g912
g152
S','
g2784
tp7351
(dp7352
S'I'
I1
ss(g1082
g2282
g1946
g142
tp7353
(dp7354
g1626
I1
ss(g373
g229
g336
S','
tp7355
(dp7356
g614
I1
ss(g1257
g1185
S','
g3813
tp7357
(dp7358
g847
I1
ss(g1713
g1164
S','
g1799
tp7359
(dp7360
g649
I1
ss(g1974
g288
S','
g2146
tp7361
(dp7362
g1370
I1
ss(g2168
g333
g965
g207
tp7363
(dp7364
g133
I1
ss(g218
g985
g2204
g205
tp7365
(dp7366
g156
I1
ss(g1442
g2744
g2902
g1105
tp7367
(dp7368
g1382
I1
ss(g257
g363
g348
S','
tp7369
(dp7370
g2294
I1
ss(g724
S','
g3121
g787
tp7371
(dp7372
S'a'
I1
ss(g445
g209
g346
g362
tp7373
(dp7374
g234
I1
ss(g1954
g1713
g1164
S','
tp7375
(dp7376
g1799
I1
ss(S' '
g3059
S';'
g1426
tp7377
(dp7378
g848
I2
ss(S','
g2581
S'I'
g161
tp7379
(dp7380
S';'
I1
ss(g232
g1213
g24
g1072
tp7381
(dp7382
g1701
I1
ss(g627
g345
g1035
S'a'
tp7383
(dp7384
g2954
I1
ss(S','
g28
S'a'
g132
tp7385
(dp7386
g1698
I1
ss(g2396
g4538
g1852
g4541
tp7387
(dp7388
S'I'
I1
ss(g142
g1626
g425
S','
tp7389
(dp7390
g611
I1
ss(g1490
g727
g1157
g1532
tp7391
(dp7392
g43
I1
ss(g171
g376
g175
S';'
tp7393
(dp7394
g2075
I1
ss(g356
g689
g781
g944
tp7395
(dp7396
S';'
I1
ss(S'a'
g131
S'.'
S'\x00'
tp7397
(dp7398
S'\x00'
I1
ss(S';'
S'I'
g405
g1743
tp7399
(dp7400
g667
I1
ss(g1463
g929
g384
g1269
tp7401
(dp7402
S'?'
I1
ss(g3121
g787
S'a'
g306
tp7403
(dp7404
S','
I1
ss(g39
S','
g612
g361
tp7405
(dp7406
g1075
I1
ss(g380
S';'
g2599
g1375
tp7407
(dp7408
g254
I1
ss(g781
g944
S';'
g1429
tp7409
(dp7410
g2317
I1
ss(g3187
g1577
g1020
g1868
tp7411
(dp7412
g1489
I1
ss(g2357
g1158
g418
S'.'
tp7413
(dp7414
g3878
I1
ss(g292
g448
g644
g764
tp7415
(dp7416
g995
I1
ss(g16
g26
g79
g700
tp7417
(dp7418
g394
I1
ss(g994
g411
g195
S','
tp7419
(dp7420
g615
I1
ss(g1153
g1286
g208
g1731
tp7421
(dp7422
g2237
I1
ss(g143
g1671
S'.'
S'\x00'
tp7423
(dp7424
S'\x00'
I1
ss(g368
S'I'
g192
g1512
tp7425
(dp7426
g282
I1
ss(g649
g1055
g820
g2670
tp7427
(dp7428
g1665
I1
ss(g253
g1016
g3331
g151
tp7429
(dp7430
S','
I1
ss(g125
S','
g302
g566
tp7431
(dp7432
g1365
I1
ss(g870
g1998
g116
g154
tp7433
(dp7434
g938
I1
ss(g3981
S','
g3573
g83
tp7435
(dp7436
g249
I1
ss(g880
g463
g1189
g349
tp7437
(dp7438
g1330
I1
ss(S','
g3833
g1374
g402
tp7439
(dp7440
g1038
I1
ss(g1127
g3532
g180
S'.'
tp7441
(dp7442
S'\x00'
I1
ss(g3275
g3043
g575
S','
tp7443
(dp7444
g2881
I1
ss(g2369
g854
S'a'
g115
tp7445
(dp7446
g717
I1
ss(g1395
g199
g1458
g242
tp7447
(dp7448
g1539
I1
ss(S'I'
g1174
g1127
g3532
tp7449
(dp7450
g180
I1
ss(S','
g2570
g331
S','
tp7451
(dp7452
g3187
I1
ss(g23
g1028
g3150
g120
tp7453
(dp7454
g370
I1
ss(g601
g214
g901
g2463
tp7455
(dp7456
g45
I1
ss(g2393
S','
g2396
g4538
tp7457
(dp7458
g1852
I1
ss(g852
g34
g1140
g2346
tp7459
(dp7460
g113
I1
ss(g1206
g174
g824
g1935
tp7461
(dp7462
g1160
I1
ss(g233
g980
g410
g1463
tp7463
(dp7464
g929
I1
ss(g1075
g203
g1143
g1310
tp7465
(dp7466
g1170
I1
ss(g722
g1473
g1455
g647
tp7467
(dp7468
g1963
I1
ss(g2852
g653
g666
g266
tp7469
(dp7470
g1411
I1
ss(g148
S'.'
g4004
g1219
tp7471
(dp7472
S'I'
I1
ss(g112
S','
g3706
g59
tp7473
(dp7474
g299
I1
ss(g2947
S','
g243
g975
tp7475
(dp7476
g1578
I1
sg1580
I1
ss(g505
g21
g1479
g1974
tp7477
(dp7478
g288
I1
ss(g1426
g848
g646
S'I'
tp7479
(dp7480
g3393
I1
sg3394
I1
sg2393
I1
ss(S','
g375
g730
g654
tp7481
(dp7482
g352
I1
ss(g1451
g1367
g2747
g263
tp7483
(dp7484
g1506
I1
ss(g3395
g251
g1486
g105
tp7485
(dp7486
g1096
I1
ss(g1457
g309
S'.'
g147
tp7487
(dp7488
g1518
I1
ss(S','
g2403
g852
g34
tp7489
(dp7490
g1140
I1
ss(g120
g370
S','
g284
tp7491
(dp7492
g50
I1
ss(g176
g194
g165
g82
tp7493
(dp7494
g870
I1
ss(S','
g2532
S'I'
g286
tp7495
(dp7496
S'.'
I1
ss(g36
g1306
g219
g1366
tp7497
(dp7498
g976
I1
ss(g1205
g160
g1069
g738
tp7499
(dp7500
g303
I1
ss(g1317
g332
S','
g4046
tp7501
(dp7502
g1817
I1
ss(g2913
g548
g2916
g68
tp7503
(dp7504
S'.'
I1
ss(S'.'
g913
g2655
S','
tp7505
(dp7506
g2947
I1
ss(g133
S'.'
g911
g680
tp7507
(dp7508
g135
I1
ss(g4990
g3263
g134
S'.'
tp7509
(dp7510
S'I'
I1
ss(S','
g624
S','
g613
tp7511
(dp7512
g353
I1
ss(g277
g379
g112
S','
tp7513
(dp7514
g3706
I1
ss(S';'
g1424
g106
g527
tp7515
(dp7516
g86
I1
ss(S','
g3921
g3223
g164
tp7517
(dp7518
g830
I1
ss(g2496
g153
g1280
g479
tp7519
(dp7520
g2432
I1
ss(g130
S'.'
g3285
g1221
tp7521
(dp7522
g457
I1
ss(g1178
g42
g587
g108
tp7523
(dp7524
S','
I1
ss(g913
g2655
S','
g2947
tp7525
(dp7526
S','
I1
ss(g1306
g219
g1366
g976
tp7527
(dp7528
g197
I1
ss(g1380
g746
g159
g861
tp7529
(dp7530
g1317
I1
ss(g1845
g46
g1509
g1318
tp7531
(dp7532
S','
I1
ss(g48
g908
g3480
g1911
tp7533
(dp7534
g950
I1
ss(g861
g1317
g332
S','
tp7535
(dp7536
g4046
I1
ss(g1011
g3306
g310
g65
tp7537
(dp7538
g1498
I1
ss(g3573
g83
g249
g1469
tp7539
(dp7540
g388
I1
ss(S'is'
g5467
S'I'
g2393
tp7541
(dp7542
S','
I1
ss(S','
g3434
g1371
g3808
tp7543
(dp7544
g1451
I1
ss(S'.'
g426
g1595
g422
tp7545
(dp7546
S','
I1
ss(g1069
g738
g303
g287
tp7547
(dp7548
g392
I1
ss(g329
g1629
g124
g1583
tp7549
(dp7550
g81
I1
ss(g76
g138
S','
g117
tp7551
(dp7552
S';'
I1
ss(g56
g400
g261
g222
tp7553
(dp7554
g301
I1
ss(S'I'
g2913
g548
g2916
tp7555
(dp7556
g68
I1
ss(g93
g633
g406
g1559
tp7557
(dp7558
g1546
I1
ss(g84
g372
g636
g1736
tp7559
(dp7560
g342
I1
ss(g1176
g340
g1674
g2823
tp7561
(dp7562
g4364
I1
ss(S','
g2396
g4538
g1852
tp7563
(dp7564
g4541
I1
ss(g144
g1495
g2478
g1788
tp7565
(dp7566
g162
I1
ss(S' '
g385
g99
S','
tp7567
(dp7568
S'I'
I1
ss(g1126
g697
g2357
g1158
tp7569
(dp7570
g418
I1
ss(g789
g465
g476
g1248
tp7571
(dp7572
g1396
I1
ss(g1774
g650
g846
g36
tp7573
(dp7574
g1306
I1
ss(g527
g86
g327
g883
tp7575
(dp7576
S'a'
I1
ss(g1086
g281
S','
g2403
tp7577
(dp7578
g852
I1
ss(g653
g666
g266
g1411
tp7579
(dp7580
g239
I1
ss(g47
g337
g320
g275
tp7581
(dp7582
g235
I1
ss(g64
g710
g54
g780
tp7583
(dp7584
g270
I1
ss(S';'
g2967
g1377
g2970
tp7585
(dp7586
g2609
I1
ss(g420
S','
g621
g2262
tp7587
(dp7588
g27
I1
ss(g94
g893
g3000
S':'
tp7589
(dp7590
g1683
I1
ss(g1583
g81
S';'
g420
tp7591
(dp7592
S','
I1
ss(g375
g730
g654
g352
tp7593
(dp7594
S'?'
I1
ss(g284
g50
g596
g1316
tp7595
(dp7596
g2336
I1
ss(g7
g1121
g2366
g247
tp7597
(dp7598
g821
I1
ss(S','
g2135
g365
S','
tp7599
(dp7600
g2076
I1
ss(g1664
g2493
S'-'
g1442
tp7601
(dp7602
g2744
I1
ss(g514
g14
S'"'
g377
tp7603
(dp7604
g311
I1
ss(g226
g833
g127
S','
tp7605
(dp7606
g176
I1
ss(g2463
g45
S','
g3739
tp7607
(dp7608
g17
I1
ss(S','
g2249
g2110
g98
tp7609
(dp7610
g753
I1
ss(g727
g1157
g1532
g43
tp7611
(dp7612
g471
I1
ss(g330
g1466
g89
S','
tp7613
(dp7614
g3434
I1
ss(g400
g261
g222
g301
tp7615
(dp7616
S'.'
I1
ss(g379
g112
S','
g3706
tp7617
(dp7618
g59
I1
ss(g364
g1666
g273
g223
tp7619
(dp7620
S'.'
I1
ss(g192
g1512
g282
g408
tp7621
(dp7622
g431
I1
ss(g1458
g242
g1539
g7
tp7623
(dp7624
g1121
I1
ss(g66
g1521
g1200
g505
tp7625
(dp7626
g21
I1
ss(g55
g1547
S'.'
S'\x00'
tp7627
(dp7628
S'\x00'
I1
ss(g2966
g474
g563
g1836
tp7629
(dp7630
g366
I1
ss(g435
g37
g676
g289
tp7631
(dp7632
g1046
I1
ss(S','
g2076
g1383
g2079
tp7633
(dp7634
g2173
I1
ss(g251
g1486
g105
g1096
tp7635
(dp7636
S','
I1
ss(g17
g1137
g2104
g196
tp7637
(dp7638
g1063
I1
ss(g1635
g258
g968
g414
tp7639
(dp7640
g1677
I1
ss(g1857
g551
g528
g964
tp7641
(dp7642
g30
I1
ss(g414
g1677
g264
g1573
tp7643
(dp7644
g507
I1
ss(g1107
g118
g1199
g101
tp7645
(dp7646
g1586
I1
ss(g1198
g13
g389
S','
tp7647
(dp7648
S'-'
I1
ss(g1339
g52
S'.'
S'\x00'
tp7649
(dp7650
S'\x00'
I1
ss(g50
g596
g1316
g2336
tp7651
(dp7652
g552
I1
ss(g285
g799
g2285
g1161
tp7653
(dp7654
g1111
I1
ss(g732
g834
g294
S'?'
tp7655
(dp7656
g240
I1
ss(g1757
g130
S'.'
g3285
tp7657
(dp7658
g1221
I1
ss(g2916
g68
S'.'
S'\x00'
tp7659
(dp7660
S'\x00'
I1
ss(g325
g460
g945
g202
tp7661
(dp7662
g1529
I1
ss(g115
g717
g217
g1342
tp7663
(dp7664
g423
I1
ss(g1083
g245
g1023
g354
tp7665
(dp7666
g1503
I1
ss(g848
g646
S'I'
g3394
tp7667
(dp7668
g1803
I1
ss(g843
g381
S','
g617
tp7669
(dp7670
g1456
I1
ss(g3566
S':'
g141
g601
tp7671
(dp7672
g214
I1
ss(g1089
g255
g326
g630
tp7673
(dp7674
g121
I1
ss(S','
g617
g1456
g974
tp7675
(dp7676
g97
I1
ss(g3833
g1374
g402
g1038
tp7677
(dp7678
S','
I1
ss(g2744
g2902
g1105
g1382
tp7679
(dp7680
g225
I1
ss(g381
S','
g617
g1456
tp7681
(dp7682
g974
I1
ss(g1379
S','
g1785
g383
tp7683
(dp7684
g80
I1
ss(g2606
g4408
g1851
g293
tp7685
(dp7686
g1748
I1
ss(g971
g412
g367
g334
tp7687
(dp7688
g1358
I1
ss(g274
S'.'
g912
g152
tp7689
(dp7690
S','
I1
ss(g679
g1615
g216
g941
tp7691
(dp7692
g1311
I1
ss(g51
g1153
g1286
g208
tp7693
(dp7694
g1731
I1
ss(g109
S','
g2810
g356
tp7695
(dp7696
g689
I1
ss(g956
g178
g344
g1653
tp7697
(dp7698
g292
I1
ss(S','
g2123
g2109
g529
tp7699
(dp7700
g1704
I1
ss(g5998
S','
g616
g2257
tp7701
(dp7702
g2979
I1
ss(g152
S','
g2784
S'I'
tp7703
(dp7704
g31
I1
ss(g216
g941
g1311
g1753
tp7705
(dp7706
g257
I1
ss(g351
g256
g1205
g160
tp7707
(dp7708
g1069
I1
ss(g2810
g356
g689
g781
tp7709
(dp7710
g944
I1
ss(S','
g620
S';'
g1424
tp7711
(dp7712
g106
I1
ss(g2317
g415
g18
g325
tp7713
(dp7714
g460
I1
ss(g486
g70
g808
g146
tp7715
(dp7716
S','
I1
ss(S' '
g211
g397
g96
tp7717
(dp7718
S','
I1
ss(g1658
g1564
S','
g623
tp7719
(dp7720
g1551
I1
ss(g3161
g993
g1490
g727
tp7721
(dp7722
g1157
I1
ss(g3042
g4254
g3406
S';'
tp7723
(dp7724
g2092
I1
ss(g15
S';'
g3179
g253
tp7725
(dp7726
g1016
I1
ss(g1424
g106
g527
g86
tp7727
(dp7728
g327
I1
ss(g980
g410
g1463
g929
tp7729
(dp7730
g384
I1
ss(S','
g3007
g475
g652
tp7731
(dp7732
g3042
I1
ss(S' '
S'I'
g1176
g340
tp7733
(dp7734
g1674
I1
ss(g1046
g1386
g1008
S';'
tp7735
(dp7736
S'I'
I1
ss(g498
g3502
g1822
S','
tp7737
(dp7738
g610
I1
ss(S','
g621
g2262
g27
tp7739
(dp7740
g641
I1
ss(g146
S','
g2606
g4408
tp7741
(dp7742
g1851
I1
ss(g1802
g1106
g3523
g4128
tp7743
(dp7744
g5419
I1
ss(g4046
g1817
g123
g1242
tp7745
(dp7746
g347
I1
ss(g808
g146
S','
g2606
tp7747
(dp7748
g4408
I1
ss(g2294
g731
g12
g1327
tp7749
(dp7750
g398
I1
ss(g1186
g510
g318
g916
tp7751
(dp7752
g2951
I1
ss(g617
g1456
g974
g97
tp7753
(dp7754
S','
I1
ss(S','
g619
g74
g1324
tp7755
(dp7756
g2343
I1
ss(g753
g1315
g921
g1754
tp7757
(dp7758
g63
I1
ss(g1851
g293
g1748
g2311
tp7759
(dp7760
g35
I1
ss(g1161
g1111
g374
g262
tp7761
(dp7762
g1150
I1
ss(g457
g319
g1402
g2781
tp7763
(dp7764
g4323
I1
ss(S','
g2050
g1454
g9
tp7765
(dp7766
g743
I1
ss(g1998
g116
g154
g938
tp7767
(dp7768
g387
I1
ss(g730
g654
g352
S'?'
tp7769
(dp7770
S'\x00'
I1
ss(g2581
S'I'
g161
S';'
tp7771
(dp7772
g1427
I1
ss(g255
g326
g630
g121
tp7773
(dp7774
S'.'
I1
ss(S' '
S'I'
g2913
g548
tp7775
(dp7776
g2916
I1
ss(g1376
g868
g248
g236
tp7777
(dp7778
g149
I1
ss(g3263
g134
S'.'
S'I'
tp7779
(dp7780
g232
I1
ss(g2979
g888
g2696
g119
tp7781
(dp7782
g403
I1
ss(g1618
g1089
g255
g326
tp7783
(dp7784
g630
I1
ss(g3280
g357
S','
g3007
tp7785
(dp7786
g475
I1
ss(g1576
g850
g228
g1124
tp7787
(dp7788
g61
I1
ss(g997
g391
g220
g226
tp7789
(dp7790
g833
I1
ss(g332
S','
g4046
g1817
tp7791
(dp7792
g123
I1
ss(g1704
g260
g1086
g281
tp7793
(dp7794
S','
I1
ss(g100
g380
S';'
g2599
tp7795
(dp7796
g1375
I1
ss(g3651
g227
S'.'
g2575
tp7797
(dp7798
g679
I1
ss(g182
g421
S','
g1767
tp7799
(dp7800
g168
I1
ss(g2204
g205
g156
g703
tp7801
(dp7802
g75
I1
ss(g1399
g57
S';'
g144
tp7803
(dp7804
g1495
I1
ss(S','
g1848
g1381
g855
tp7805
(dp7806
g55
I1
ss(g731
g12
g1327
g398
tp7807
(dp7808
S'?'
I1
ss(g2312
g85
g935
g1163
tp7809
(dp7810
g2103
I1
ss(g175
S';'
g2075
g3566
tp7811
(dp7812
S':'
I1
ss(g425
S','
g611
g2966
tp7813
(dp7814
g474
I1
ss(S','
g1993
g184
g880
tp7815
(dp7816
g463
I1
ss(S' '
g19
g1526
g1309
tp7817
(dp7818
g1827
I1
ss(g31
S','
g1774
g650
tp7819
(dp7820
g846
I1
ss(g2432
S','
g2369
g854
tp7821
(dp7822
S'a'
I1
ss(S'.'
g2575
g679
g1615
tp7823
(dp7824
g216
I1
ss(g1489
g84
g372
g636
tp7825
(dp7826
g1736
I1
ss(g33
S','
g290
g114
tp7827
(dp7828
g358
I1
ss(g404
S','
g3386
g193
tp7829
(dp7830
g1011
I1
ss(g1187
g250
g1609
S','
tp7831
(dp7832
g2050
I1
ss(g157
g1405
g409
g145
tp7833
(dp7834
S','
I1
ss(g1177
g1082
g2282
g1946
tp7835
(dp7836
g142
I1
ss(S'I'
g40
g1230
g2514
tp7837
(dp7838
g576
I1
ss(g9
g743
g157
g1405
tp7839
(dp7840
g409
I1
ss(g1386
g1008
S';'
S'I'
tp7841
(dp7842
g405
I1
ss(g1063
g231
g684
g2433
tp7843
(dp7844
g1107
I1
ss(g82
g870
g1998
g116
tp7845
(dp7846
g154
I1
ss(g1711
g111
g252
S','
tp7847
(dp7848
g3161
I1
ss(S';'
g144
g1495
g2478
tp7849
(dp7850
g1788
I1
ss(g347
g1049
S','
g3948
tp7851
(dp7852
g321
I1
ss(g1677
g264
g1573
g507
tp7853
(dp7854
g166
I1
ss(S','
g3192
g64
g710
tp7855
(dp7856
g54
I1
ss(g4647
g3272
S';'
g3275
tp7857
(dp7858
g3043
I1
ss(g3624
g3395
g251
g1486
tp7859
(dp7860
g105
I1
ss(g2146
g1370
g1257
g1185
tp7861
(dp7862
S','
I1
ss(g392
g1395
g199
g1458
tp7863
(dp7864
g242
I1
ss(g1163
g2103
S'a'
g724
tp7865
(dp7866
S','
I1
ss(S' '
g4245
S';'
g1428
tp7867
(dp7868
g48
I1
ss(g426
g1595
g422
S','
tp7869
(dp7870
g3048
I1
ss(g2366
g247
g821
g305
tp7871
(dp7872
g1287
I1
ss(S'I'
g192
g1512
g282
tp7873
(dp7874
g408
I1
ss(S','
g2606
g4408
g1851
tp7875
(dp7876
g293
I1
ss(g102
g584
g350
g435
tp7877
(dp7878
g37
I1
ss(g239
g278
g188
g100
tp7879
(dp7880
g380
I1
ss(g779
g182
g421
S','
tp7881
(dp7882
g1767
I1
ss(S':'
g141
g601
g214
tp7883
(dp7884
g901
I1
ss(S'.'
g283
g1220
g464
tp7885
(dp7886
g3875
I1
ss(g2343
g291
g1446
g1845
tp7887
(dp7888
g46
I1
ss(g1589
g122
g109
S','
tp7889
(dp7890
g2810
I1
ss(g279
g71
S','
g2130
tp7891
(dp7892
g396
I1
ss(g141
g601
g214
g901
tp7893
(dp7894
g2463
I1
ss(g2948
S','
g2797
g651
tp7895
(dp7896
g1476
I1
ss(S'a'
g724
S','
g3121
tp7897
(dp7898
g787
I1
ss(g202
g1529
g330
g1466
tp7899
(dp7900
g89
I1
ss(g104
g1408
g655
g183
tp7901
(dp7902
S','
I1
ss(g2285
g1161
g1111
g374
tp7903
(dp7904
g262
I1
ss(S'I'
g232
g1213
g24
tp7905
(dp7906
g1072
I1
ss(S' '
g265
S','
g28
tp7907
(dp7908
S'a'
I1
ss(g408
g431
g244
S','
tp7909
(dp7910
S'I'
I1
ss(g1443
S'I'
g1178
g42
tp7911
(dp7912
g587
I1
ss(g296
g1339
g52
S'.'
tp7913
(dp7914
S'\x00'
I1
ss(g398
S'?'
S'('
g805
tp7915
(dp7916
g665
I1
ss(g1546
g140
g1004
g514
tp7917
(dp7918
g14
I1
ss(g1935
g1160
g1056
S','
tp7919
(dp7920
g3192
I1
ss(g1788
g162
g802
g335
tp7921
(dp7922
g307
I1
ss(S','
g6626
g3358
g1578
tp7923
(dp7924
g67
I1
ss(g80
g215
g1193
g23
tp7925
(dp7926
g1028
I1
ss(g71
S','
g2130
g396
tp7927
(dp7928
g360
I1
ss(g1055
g820
g2670
g1665
tp7929
(dp7930
g2673
I1
ss(g219
g1366
g976
g197
tp7931
(dp7932
g1687
I1
ss(S','
g3584
S'a'
g316
tp7933
(dp7934
g1114
I1
ss(g2262
g27
g641
S','
tp7935
(dp7936
g627
I1
ss(g335
g307
S','
g3624
tp7937
(dp7938
g3395
I1
ss(g256
g1205
g160
g1069
tp7939
(dp7940
g738
I1
ss(g136
g547
S':'
g1681
tp7941
(dp7942
g2496
I1
ss(g612
g361
g1075
g203
tp7943
(dp7944
g1143
I1
ss(g369
g795
S','
g624
tp7945
(dp7946
S','
I1
ss(g1799
g649
g1055
g820
tp7947
(dp7948
g2670
I1
ss(S'the'
g4566
S','
g2532
tp7949
(dp7950
S'I'
I1
ss(g258
g968
g414
g1677
tp7951
(dp7952
g264
I1
ss(g105
g1096
S','
g2450
tp7953
(dp7954
g733
I1
ss(g3299
g139
g1239
g233
tp7955
(dp7956
g980
I1
ss(g240
g681
g2507
g1579
tp7957
(dp7958
g973
I1
ss(g1469
g388
S':'
g1682
tp7959
(dp7960
S','
I1
ss(g1038
S','
g413
g956
tp7961
(dp7962
g178
I1
ss(g19
g1526
g1309
g1827
tp7963
(dp7964
g3844
I1
ss(g1743
g667
g2273
g2584
tp7965
(dp7966
S'.'
I1
ss(g1049
S','
g3948
g321
tp7967
(dp7968
g817
I1
ss(g513
g10
g371
g324
tp7969
(dp7970
g8
I1
ss(g73
g390
g351
g256
tp7971
(dp7972
g1205
I1
ss(g127
S','
g176
g194
tp7973
(dp7974
g165
I1
ss(g575
S','
g2881
g329
tp7975
(dp7976
g1629
I1
ss(g968
g414
g1677
g264
tp7977
(dp7978
g1573
I1
ss(S';'
g2905
g125
S','
tp7979
(dp7980
g302
I1
ss(S','
g212
S'-'
g16
tp7981
(dp7982
g26
I1
ss(g177
g373
g229
g336
tp7983
(dp7984
S','
I1
ss(S','
g413
g956
g178
tp7985
(dp7986
g344
I1
ss(g160
g1069
g738
g303
tp7987
(dp7988
g134
I1
sg287
I1
ss(g4375
g3545
g645
g1233
tp7989
(dp7990
S','
I1
ss(g855
g55
g1547
S'.'
tp7991
(dp7992
S'\x00'
I1
ss(g53
S'.'
g295
g1635
tp7993
(dp7994
g258
I1
ss(g391
g220
g226
g833
tp7995
(dp7996
g127
I1
ss(g1004
g514
g14
S'"'
tp7997
(dp7998
g377
I1
ss(g4254
g3406
S';'
g2092
tp7999
(dp8000
g1379
I1
ss(g4408
g1851
g293
g1748
tp8001
(dp8002
g2311
I1
ss(g3285
g1221
g457
g319
tp8003
(dp8004
g1402
I1
ss(g1280
g479
g2432
S','
tp8005
(dp8006
g2369
I1
ss(g616
g2257
g2979
g888
tp8007
(dp8008
g2696
I1
ss(g139
g1239
g233
g980
tp8009
(dp8010
g410
I1
ss(S','
g2486
g3686
g110
tp8011
(dp8012
g313
I1
ss(g847
g506
g486
g70
tp8013
(dp8014
g808
I1
ss(g403
g756
g1694
g2957
tp8015
(dp8016
g308
I1
ss(S','
g613
g353
g1293
tp8017
(dp8018
g218
I1
ss(g2198
g1187
g250
g1609
tp8019
(dp8020
S','
I1
ss(S';'
g1428
g48
g908
tp8021
(dp8022
g3480
I1
ss(g3043
g575
S','
g2881
tp8023
(dp8024
g329
I1
ss(g201
g277
g379
g112
tp8025
(dp8026
S','
I1
ss(g170
g44
g843
g381
tp8027
(dp8028
S','
I1
ss(g12
g1327
g398
S'?'
tp8029
(dp8030
S'('
I1
ss(g460
g945
g202
g1529
tp8031
(dp8032
g330
I1
ss(g471
g1186
g510
g318
tp8033
(dp8034
g916
I1
ss(g413
g956
g178
g344
tp8035
(dp8036
g1653
I1
ss(g1269
S'?'
g1290
g1125
tp8037
(dp8038
g3244
I1
ss(g1550
g88
g279
g71
tp8039
(dp8040
S','
I1
ss(g2075
g3566
S':'
g141
tp8041
(dp8042
g601
I1
ss(g307
S','
g3624
g3395
tp8043
(dp8044
g251
I1
ss(g197
g1687
g554
g259
tp8045
(dp8046
S';'
I1
ss(g1621
g312
g1432
S'a'
tp8047
(dp8048
g723
I1
ss(g250
g1609
S','
g2050
tp8049
(dp8050
g1454
I1
ss(g2575
g679
g1615
g216
tp8051
(dp8052
g941
I1
ss(g623
g1551
g866
g221
tp8053
(dp8054
g103
I1
ss(g227
S'.'
g2575
g679
tp8055
(dp8056
g1615
I1
ss(g2636
g849
g794
S'I'
tp8057
(dp8058
g136
I1
ss(g234
S','
g620
S';'
tp8059
(dp8060
g1424
I1
ss(g2103
S'a'
g724
S','
tp8061
(dp8062
g3121
I1
ss(S'a'
g2954
g1090
g1183
tp8063
(dp8064
g1513
I1
ss(g1754
g63
g148
S'.'
tp8065
(dp8066
g4004
I1
ss(g213
g658
g355
g271
tp8067
(dp8068
g297
I1
ss(g18
g325
g460
g945
tp8069
(dp8070
g202
I1
ss(g772
g3299
g139
g1239
tp8071
(dp8072
g233
I1
ss(g769
g930
S','
g2249
tp8073
(dp8074
g2110
I1
ss(g563
g1836
g366
S','
tp8075
(dp8076
g2386
I1
ss(g271
g297
S','
g2479
tp8077
(dp8078
g285
I1
ss(g276
g1001
g274
S'.'
tp8079
(dp8080
g912
I1
ss(g2203
g4990
g3263
g134
tp8081
(dp8082
S'.'
I1
ss(g2026
g1376
g868
g248
tp8083
(dp8084
g236
I1
ss(g5419
g3296
g22
S','
tp8085
(dp8086
g3921
I1
ss(S'I'
g405
g1743
g667
tp8087
(dp8088
g2273
I1
ss(g1313
g2312
g85
g935
tp8089
(dp8090
g1163
I1
ss(g238
g898
g73
g390
tp8091
(dp8092
g351
I1
ss(g972
g69
g1757
g130
tp8093
(dp8094
S'.'
I1
ss(g2403
g852
g34
g1140
tp8095
(dp8096
g2346
I1
ss(g241
S'-'
g1443
S'I'
tp8097
(dp8098
g1178
I1
ss(g908
g3480
g1911
g950
tp8099
(dp8100
g2741
I1
ss(S','
g3948
g321
g817
tp8101
(dp8102
g763
I1
ss(g169
g1052
g359
g246
tp8103
(dp8104
g1437
I1
ss(g1472
g1188
S','
g1848
tp8105
(dp8106
g1381
I1
ss(g304
g1216
g1373
g20
tp8107
(dp8108
g769
I1
ss(g1220
g464
g3875
g238
tp8109
(dp8110
g898
I1
ss(g161
S';'
g1427
g789
tp8111
(dp8112
g465
I1
ss(S','
g2784
S'I'
g31
tp8113
(dp8114
S','
I1
ss(g13
g389
S','
S'-'
tp8115
(dp8116
g66
I1
ss(g74
g1324
g2343
g291
tp8117
(dp8118
g1446
I1
ss(g1354
g1171
g2578
S','
tp8119
(dp8120
g2168
I1
ss(g153
g1280
g479
g2432
tp8121
(dp8122
S','
I1
ss(g795
S','
g624
S','
tp8123
(dp8124
g613
I1
ss(g26
g79
g700
g394
tp8125
(dp8126
g1066
I1
ss(g399
S'I'
g1179
g41
tp8127
(dp8128
g201
I1
ss(g30
g1399
g57
S';'
tp8129
(dp8130
g144
I1
ss(g620
S';'
g1424
g106
tp8131
(dp8132
g527
I1
ss(g830
g2774
g78
S';'
tp8133
(dp8134
g2026
I1
ss(g35
g1612
g1385
g1156
tp8135
(dp8136
S'.'
I1
ss(g419
S'a'
g722
g1473
tp8137
(dp8138
g1455
I1
ss(g1007
g276
g1001
g274
tp8139
(dp8140
S'.'
I1
ss(g1785
g383
g80
g215
tp8141
(dp8142
g1193
I1
ss(g1911
g950
g2741
g4033
tp8143
(dp8144
g3102
I1
ss(g154
g938
g387
g1472
tp8145
(dp8146
g1188
I1
ss(g410
g1463
g929
g384
tp8147
(dp8148
g1269
I1
ss(S';'
g3179
g253
g1016
tp8149
(dp8150
g3331
I1
ss(S','
g1774
g650
g846
tp8151
(dp8152
g36
I1
ss(g1731
g2237
g1576
g850
tp8153
(dp8154
g228
I1
ss(S'.'
S'I'
g232
g1213
tp8155
(dp8156
g24
I1
ss(g703
g75
g129
S','
tp8157
(dp8158
g1816
I1
ss(g2045
g2712
g971
g412
tp8159
(dp8160
g367
I1
ss(g97
S','
g2908
g788
tp8161
(dp8162
g53
I1
ss(g3244
g241
S'-'
g1443
tp8163
(dp8164
S'I'
I1
ss(g1023
g354
g1503
g779
tp8165
(dp8166
g182
I1
ss(g99
S','
S'I'
g1174
tp8167
(dp8168
g1127
I1
ss(S','
g2810
g356
g689
tp8169
(dp8170
g781
I1
ss(g1110
g314
g1264
g606
tp8171
(dp8172
g72
I1
ss(g259
S';'
g2905
g125
tp8173
(dp8174
S','
I1
ss(g636
g1736
g342
g1147
tp8175
(dp8176
S'.'
I1
ss(g3386
g193
g1011
g3306
tp8177
(dp8178
g310
I1
ss(g179
g1711
g111
g252
tp8179
(dp8180
S','
I1
ss(g2781
g4323
g1954
g1713
tp8181
(dp8182
g1164
I1
sg22
I1
sg4261
I1
ss(g738
g303
g287
g392
tp8183
(dp8184
g1395
I1
ss(S','
g243
g975
g1580
tp8185
(dp8186
g3760
I1
ss(S','
g1799
g649
g1055
tp8187
(dp8188
g820
I1
ss(g6626
g3358
g1578
g67
tp8189
(dp8190
g772
I1
ss(g42
g587
g108
S','
tp8191
(dp8192
g2636
I1
ss(g265
S','
g28
S'a'
tp8193
(dp8194
g132
I1
ss(g151
S','
S'I'
g40
tp8195
(dp8196
g1230
I1
ss(g2019
g732
g834
g294
tp8197
(dp8198
S'?'
I1
ss(g1665
g2673
g3830
S','
tp8199
(dp8200
g3833
I1
ss(g965
g207
g133
S'.'
tp8201
(dp8202
g911
I1
ss(g90
g438
g664
g2042
tp8203
(dp8204
g5897
I1
ss(g1579
g973
g3068
S','
tp8205
(dp8206
g3381
I1
ss(g159
g861
g1317
g332
tp8207
(dp8208
S','
I1
ss(S','
g176
g194
g165
tp8209
(dp8210
g82
I1
ss(g3331
g151
S','
S'I'
tp8211
(dp8212
g40
I1
ss(g2478
g1788
g162
g802
tp8213
(dp8214
g335
I1
ss(g4364
g2525
g2149
S'.'
tp8215
(dp8216
S'\x00'
I1
ss(g1455
g647
g1963
g185
tp8217
(dp8218
g1298
I1
ss(S','
g2947
S','
g243
tp8219
(dp8220
g975
I2
ss(g5897
g4647
g3272
S';'
tp8221
(dp8222
g3275
I1
ss(g384
g1269
S'?'
g1290
tp8223
(dp8224
g1125
I1
ss(g70
g808
g146
S','
tp8225
(dp8226
g2606
I1
ss(g107
g928
g427
g1283
tp8227
(dp8228
g3613
I1
ss(g1683
S','
g300
S','
tp8229
(dp8230
g626
I1
ss(g237
g924
g3178
S';'
tp8231
(dp8232
g2418
I1
ss(g203
g1143
g1310
g1170
tp8233
(dp8234
g339
I1
ss(S'.'
g911
g680
g135
tp8235
(dp8236
g540
I1
ss(g346
g362
g234
S','
tp8237
(dp8238
g620
I1
ss(g262
g1150
g1190
S';'
tp8239
(dp8240
g328
I1
ss(g3150
g120
g370
S','
tp8241
(dp8242
g284
I1
ss(g126
g663
S'a'
g131
tp8243
(dp8244
S'.'
I1
ss(g924
g3178
S';'
g2418
tp8245
(dp8246
g996
I1
ss(g198
g1083
g245
g1023
tp8247
(dp8248
g354
I1
ss(S','
g1857
g551
g528
tp8249
(dp8250
g964
I1
ss(g193
g1011
g3306
g310
tp8251
(dp8252
g65
I1
ss(g1183
g1513
g875
g1712
tp8253
(dp8254
g15
I1
ss(g888
g2696
g119
g403
tp8255
(dp8256
g756
I1
ss(g1498
g869
g189
S'.'
tp8257
(dp8258
g283
I1
ss(g2823
g4364
g2525
g2149
tp8259
(dp8260
S'.'
I1
ss(g402
g1038
S','
g413
tp8261
(dp8262
g956
I1
ss(S','
S'I'
g40
g1230
tp8263
(dp8264
g2514
I1
ss(g3394
g1803
S','
g1806
tp8265
(dp8266
g1384
I1
ss(g101
g1586
g851
g90
tp8267
(dp8268
g438
I1
ss(g416
g1007
g276
g1001
tp8269
(dp8270
g274
I1
ss(g689
g781
g944
S';'
tp8271
(dp8272
g1429
I1
ss(g118
g1199
g101
g1586
tp8273
(dp8274
g851
I1
ss(S' '
g3771
g102
g584
tp8275
(dp8276
g350
I1
ss(g3178
S';'
g2418
g996
tp8277
(dp8278
g2421
I1
ss(g1753
g257
g363
g348
tp8279
(dp8280
S','
I1
ss(g1375
g254
g1708
g137
tp8281
(dp8282
S','
I1
ss(g2570
g331
S','
g3187
tp8283
(dp8284
g1577
I1
ss(g1121
g2366
g247
g821
tp8285
(dp8286
g305
I1
ss(g1150
g1190
S';'
g328
tp8287
(dp8288
S','
I1
ss(g1200
g505
g21
g1479
tp8289
(dp8290
g1974
I1
ss(g587
g108
S','
g2636
tp8291
(dp8292
g849
I1
ss(g58
g399
S'I'
g1179
tp8293
(dp8294
g41
I1
ss(g2696
g119
g403
g756
tp8295
(dp8296
g1694
I1
ss(g1031
g1314
S';'
g2967
tp8297
(dp8298
g1377
I1
ss(g401
g107
g928
g427
tp8299
(dp8300
g1283
I1
ss(g135
g540
S','
g3701
tp8301
(dp8302
S','
I1
ss(g723
g925
g60
g1648
tp8303
(dp8304
g1378
I1
ss(g1143
g1310
g1170
g339
tp8305
(dp8306
g1043
I1
ss(g372
g636
g1736
g342
tp8307
(dp8308
g1147
I1
ss(g1330
g170
g44
g843
tp8309
(dp8310
g381
I1
ss(g302
g566
g1365
g323
tp8311
(dp8312
g11
I1
ss(g1314
S';'
g2967
g1377
tp8313
(dp8314
g2970
I1
ss(S','
g3121
g787
S'a'
tp8315
(dp8316
g306
I1
ss(g3948
g321
g817
g763
tp8317
(dp8318
g62
I1
ss(g833
g127
S','
g176
tp8319
(dp8320
g194
I1
ss(g4245
S';'
g1428
g48
tp8321
(dp8322
g908
I1
ss(g1125
g3244
g241
S'-'
tp8323
(dp8324
g1443
I1
ss(g421
S','
g1767
g168
tp8325
(dp8326
g1245
I1
ss(g267
g369
g795
S','
tp8327
(dp8328
g624
I1
ss(g3584
S'a'
g316
g1114
tp8329
(dp8330
g648
I1
ss(g1164
S','
g1799
g649
tp8331
(dp8332
g1055
I1
ss(g552
g204
g419
S'a'
tp8333
(dp8334
g722
I1
ss(S' '
S'O'
g534
S','
tp8335
(dp8336
g618
I1
ss(S','
g1811
g2256
g1126
tp8337
(dp8338
g697
I1
ss(S'I'
g32
g173
S'.'
tp8339
(dp8340
S'\x00'
I1
ss(g950
g2741
g4033
g3102
tp8341
(dp8342
S'.'
I1
ss(g1705
g1110
g314
g1264
tp8343
(dp8344
g606
I1
ss(g61
g230
g179
g1711
tp8345
(dp8346
g111
I1
ss(g651
g1476
g341
S','
tp8347
(dp8348
g375
I1
ss(g224
S','
g622
g2758
tp8349
(dp8350
g155
I1
ss(g921
g1754
g63
g148
tp8351
(dp8352
S'.'
I1
ss(g622
g2758
g155
g1658
tp8353
(dp8354
g1564
I1
ss(g1293
g218
g985
g2204
tp8355
(dp8356
g205
I1
ss(S'.'
g295
g1635
g258
tp8357
(dp8358
g968
I1
ss(g1615
g216
g941
g1311
tp8359
(dp8360
g1753
I1
ss(g331
S','
g3187
g1577
tp8361
(dp8362
g1020
I1
ss(g406
g1559
g1546
g140
tp8363
(dp8364
g1004
I1
ss(g2507
g1579
g973
g3068
tp8365
(dp8366
S','
I1
ss(g113
g401
g107
g928
tp8367
(dp8368
g427
I1
ss(g1230
g2514
g576
g972
tp8369
(dp8370
g69
I1
ss(g465
g476
g1248
g1396
tp8371
(dp8372
g2203
I1
ss(g1185
S','
g3813
g847
tp8373
(dp8374
g506
I1
ss(g225
g1728
g1032
g4096
tp8375
(dp8376
g5676
I1
ss(g898
g73
g390
g351
tp8377
(dp8378
g256
I1
ss(S';'
g1429
g2317
g415
tp8379
(dp8380
g18
I1
ss(g875
g1712
g15
S';'
tp8381
(dp8382
g3179
I1
ss(g606
g72
S','
g2123
tp8383
(dp8384
g2109
I1
ss(g1124
g61
g230
g179
tp8385
(dp8386
g1711
I1
ss(g37
g676
g289
g1046
tp8387
(dp8388
g1386
I1
ss(S','
g3739
g17
g1137
tp8389
(dp8390
g2104
I1
ss(g4323
g1954
g1713
g1164
tp8391
(dp8392
S','
I1
ss(g743
g157
g1405
g409
tp8393
(dp8394
g145
I1
ss(S'-'
g66
g1521
g1200
tp8395
(dp8396
g505
I1
ss(S','
g2450
g733
g416
tp8397
(dp8398
g1007
I1
ss(g298
g1132
S','
g2948
tp8399
(dp8400
S','
I1
ss(g20
g769
g930
S','
tp8401
(dp8402
g2249
I1
ss(g1189
g349
g1330
g170
tp8403
(dp8404
g44
I1
ss(g869
g189
S'.'
g283
tp8405
(dp8406
g1220
I1
ss(g432
g77
S','
g2581
tp8407
(dp8408
S'I'
I1
ss(g10
g371
g324
g8
tp8409
(dp8410
g128
I1
ss(g941
g1311
g1753
g257
tp8411
(dp8412
g363
I1
ss(g1949
g786
S','
g1811
tp8413
(dp8414
g2256
I1
ss(g1612
g1385
g1156
S'.'
tp8415
(dp8416
g382
I1
ss(g353
g1293
g218
g985
tp8417
(dp8418
g2204
I1
ss(g1674
g2823
g4364
g2525
tp8419
(dp8420
g2149
I1
ss(g231
g684
g2433
g1107
tp8421
(dp8422
g118
I2
ss(g976
g197
g1687
g554
tp8423
(dp8424
g259
I1
ss(g1684
g1159
g1632
g25
tp8425
(dp8426
g827
I1
ss(g147
g1518
g200
g468
tp8427
(dp8428
g432
I1
ss(g46
g1509
g1318
S','
tp8429
(dp8430
g1993
I1
ss(g1233
S','
g2037
S'?'
tp8431
(dp8432
S'\x00'
I1
ss(g187
g1301
g417
S'.'
tp8433
(dp8434
S'\x00'
I1
ss(g235
g56
g400
g261
tp8435
(dp8436
g222
I1
ss(g1552
g267
g369
g795
tp8437
(dp8438
S','
I1
ss(S','
g2533
S','
g368
tp8439
(dp8440
S'I'
I1
ss(g827
g304
g1216
g1373
tp8441
(dp8442
g20
I1
ss(g821
g305
g1287
g1552
tp8443
(dp8444
g267
I1
ss(g2433
g1107
g118
g1199
tp8445
(dp8446
g101
I1
ss(g1366
g976
g197
g1687
tp8447
(dp8448
g554
I1
ss(g1105
g1382
g225
g1728
tp8449
(dp8450
g1032
I1
ss(g1817
g123
g1242
g347
tp8451
(dp8452
g1049
I1
ss(g249
g1469
g388
S':'
tp8453
(dp8454
g1682
I1
ss(g796
g424
g1031
g1314
tp8455
(dp8456
S';'
I1
sS','
I2
ss(S'I'
g1178
g42
g587
tp8457
(dp8458
g108
I1
ss(g210
g33
S','
g290
tp8459
(dp8460
g114
I1
ss(g65
g1498
g869
g189
tp8461
(dp8462
S'.'
I1
ss(S';'
g2026
g1376
g868
tp8463
(dp8464
g248
I1
ss(g1836
g366
S','
g2386
tp8465
(dp8466
S'\x00'
I1
ss(g1437
g977
S'?'
S'\x00'
tp8467
(dp8468
S'\x00'
I1
ss(g3358
g1578
g67
g772
tp8469
(dp8470
g3299
I1
ss(g611
g2966
g474
g563
tp8471
(dp8472
g1836
I1
ss(g1993
g184
g880
g463
tp8473
(dp8474
g1189
I1
ss(g95
S','
g393
g126
tp8475
(dp8476
g663
I1
ss(g270
g1351
g237
g924
tp8477
(dp8478
g3178
I1
ss(S'say'
p8479
g6475
g3280
g357
tp8480
(dp8481
S','
I1
ss(g1287
g1552
g267
g369
tp8482
(dp8483
g795
I1
ss(g883
S'a'
g177
g373
tp8484
(dp8485
g229
I1
ss(g362
g234
S','
g620
tp8486
(dp8487
S';'
I1
ss(g4004
g1219
S'I'
g1177
tp8488
(dp8489
g1082
I1
ss(g2905
g125
S','
g302
tp8490
(dp8491
g566
I1
ss(g200
g468
g432
g77
tp8492
(dp8493
S','
I1
ss(S':'
g1681
g2496
g153
tp8494
(dp8495
g1280
I1
ss(S'I'
g1177
g1082
g2282
tp8496
(dp8497
g1946
I1
ss(g393
g126
g663
S'a'
tp8498
(dp8499
g131
I1
ss(g2902
g1105
g1382
g225
tp8500
(dp8501
g1728
I1
ss(g212
S'-'
g16
g26
tp8502
(dp8503
g79
I1
ss(g2967
g1377
g2970
g2609
tp8504
(dp8505
g190
I1
ss(g1236
g994
g411
g195
tp8506
(dp8507
S','
I1
ss(S'a'
g132
g1698
S';'
tp8508
(dp8509
g1425
I1
ss(g333
g965
g207
g133
tp8510
(dp8511
S'.'
I1
ss(g935
g1163
g2103
S'a'
tp8512
(dp8513
g724
I1
ss(g1698
S';'
g1425
g47
tp8514
(dp8515
g337
I1
ss(g316
g1114
g648
g3033
tp8516
(dp8517
g5444
I1
ss(g1708
g137
S','
g3019
tp8518
(dp8519
g607
I1
ss(g3381
g38
g1169
g191
tp8520
(dp8521
g1355
I1
ss(g291
g1446
g1845
g46
tp8522
(dp8523
g1509
I1
ss(g1592
g867
g1457
g309
tp8524
(dp8525
S'.'
I1
ss(g1728
g1032
g4096
g5676
tp8526
(dp8527
S'the'
p8528
I1
ss(g2533
S','
g368
S'I'
tp8529
(dp8530
g192
I1
ss(g79
g700
g394
g1066
tp8531
(dp8532
S'?'
I1
ss(S','
g290
g114
g358
tp8533
(dp8534
S'a'
I1
ss(g1327
g398
S'?'
S'('
tp8535
(dp8536
g805
I1
ss(g475
g652
g3042
g4254
tp8537
(dp8538
g3406
I1
ss(g1712
g15
S';'
g3179
tp8539
(dp8540
g253
I1
ss(g378
g76
g138
S','
tp8541
(dp8542
g117
I1
ss(g300
S','
g626
g2198
tp8543
(dp8544
g1187
I1
ss(g540
S','
g3701
S','
tp8545
(dp8546
g3095
I1
ss(g263
g1506
S':'
g1684
tp8547
(dp8548
g1159
I1
ss(g1432
S'a'
g723
g925
tp8549
(dp8550
g60
I1
ss(S'?'
g1290
g1125
g3244
tp8551
(dp8552
g241
I1
ss(g974
g97
S','
g2908
tp8553
(dp8554
g788
I1
ss(g1374
g402
g1038
S','
tp8555
(dp8556
g413
I1
ss(g89
S','
g3434
g1371
tp8557
(dp8558
g3808
I1
ss(S','
g4046
g1817
g123
tp8559
(dp8560
g1242
I1
ss(g3532
g180
S'.'
S'\x00'
tp8561
(dp8562
S'\x00'
I1
ss(g2525
g2149
S'.'
S'\x00'
tp8563
(dp8564
S'\x00'
I1
ss(g1137
g2104
g196
g1063
tp8565
(dp8566
g231
I1
ss(g5467
S'I'
g2393
S','
tp8567
(dp8568
g2396
I1
ss(S','
g300
S','
g626
tp8569
(dp8570
g2198
I1
ss(g431
g244
S','
S'I'
tp8571
(dp8572
g58
I1
ss(S'-'
g1442
g2744
g2902
tp8573
(dp8574
g1105
I1
ss(g1578
g67
g772
g3299
tp8575
(dp8576
g139
I1
ss(g83
g249
g1469
g388
tp8577
(dp8578
S':'
I1
ss(S'I'
g2393
S','
g2396
tp8579
(dp8580
g4538
I1
ss(g925
g60
g1648
g1378
tp8581
(dp8582
g171
I1
ss(g327
g883
S'a'
g177
tp8583
(dp8584
g373
I1
ss(g3545
g645
g1233
S','
tp8585
(dp8586
g2037
I1
ss(g387
g1472
g1188
S','
tp8587
(dp8588
g1848
I1
ss(g44
g843
g381
S','
tp8589
(dp8590
g617
I1
ss(S','
g368
S'I'
g192
tp8591
(dp8592
g1512
I1
ss(g3272
S';'
g3275
g3043
tp8593
(dp8594
g575
I1
ss(g138
S','
g117
S';'
tp8595
(dp8596
g4083
I1
ss(S'a'
g2767
g1091
g553
tp8597
(dp8598
g280
I1
ss(g1114
g648
g3033
g5444
tp8599
(dp8600
g8479
I1
ss(g1159
g1632
g25
g827
tp8601
(dp8602
g304
I1
ss(g646
S'I'
g3394
g1803
tp8603
(dp8604
S','
I1
ss(g220
g226
g833
g127
tp8605
(dp8606
S','
I1
ss(g2450
g733
g416
g1007
tp8607
(dp8608
g276
I1
ss(g21
g1479
g1974
g288
tp8609
(dp8610
S','
I1
ss(S','
g407
g317
g210
tp8611
(dp8612
g33
I1
ss(S','
g623
g1551
g866
tp8613
(dp8614
g221
I1
ss(g1301
g417
S'.'
S'\x00'
tp8615
(dp8616
S'\x00'
I1
ss(g1378
g171
g376
g175
tp8617
(dp8618
S';'
I1
ss(g54
g780
g270
g1351
tp8619
(dp8620
g237
I1
ss(g1001
g274
S'.'
g912
tp8621
(dp8622
g152
I1
ss(g1169
g191
g1355
g395
tp8623
(dp8624
S','
I1
ss(g1184
g1663
S'?'
S'\x00'
tp8625
(dp8626
S'\x00'
I1
ss(g1586
g851
g90
g438
tp8627
(dp8628
g664
I1
ss(g418
S'.'
g3878
g3413
tp8629
(dp8630
g1162
I1
ss(g2703
g1550
g88
g279
tp8631
(dp8632
g71
I1
ss(S'I'
g1179
g41
g201
tp8633
(dp8634
g277
I1
ss(S','
g615
g169
g1052
tp8635
(dp8636
g359
I1
ss(g547
S':'
g1681
g2496
tp8637
(dp8638
g153
I1
ss(S','
g610
g1695
g315
tp8639
(dp8640
g694
I1
ss(S'a'
g306
S','
g1857
tp8641
(dp8642
g551
I1
ss(S','
g1816
g29
g1019
tp8643
(dp8644
g343
I1
ss(g1529
g330
g1466
g89
tp8645
(dp8646
S','
I1
ss(S','
g2948
S','
g2797
tp8647
(dp8648
g651
I1
ss(g43
g471
g1186
g510
tp8649
(dp8650
g318
I1
ss(g242
g1539
g7
g1121
tp8651
(dp8652
g2366
I1
ss(g1653
g292
g448
g644
tp8653
(dp8654
g764
I1
ss(S','
g625
g1312
g1000
tp8655
(dp8656
g198
I1
ss(S','
g2636
g849
g794
tp8657
(dp8658
S'I'
I1
ss(g28
S'a'
g132
g1698
tp8659
(dp8660
S';'
I1
ss(g799
g2285
g1161
g1111
tp8661
(dp8662
g374
I1
ss(g77
S','
g2581
S'I'
tp8663
(dp8664
g161
I1
ss(g163
g445
g209
g346
tp8665
(dp8666
g362
I1
ss(g1868
g1489
g84
g372
tp8667
(dp8668
g636
I1
ss(S'"'
g377
g311
g1716
tp8669
(dp8670
g1380
I1
ss(g2257
g2979
g888
g2696
tp8671
(dp8672
g119
I1
ss(g1521
g1200
g505
g21
tp8673
(dp8674
g1479
I1
ss(g680
g135
g540
S','
tp8675
(dp8676
g3701
I1
ss(g69
g1757
g130
S'.'
tp8677
(dp8678
g3285
I1
ss(g676
g289
g1046
g1386
tp8679
(dp8680
g1008
I1
ss(g315
g694
g93
g633
tp8681
(dp8682
g406
I1
ss(g1852
g4541
S'I'
g3393
tp8683
(dp8684
g1719
I1
ss(g1429
g2317
g415
g18
tp8685
(dp8686
g325
I1
ss(S','
g302
g566
g1365
tp8687
(dp8688
g323
I1
ss(S':'
g1682
S','
g2570
tp8689
(dp8690
g331
I1
ss(g2532
S'I'
g286
S'.'
tp8691
(dp8692
g913
I1
ss(S'I'
g1176
g340
g1674
tp8693
(dp8694
g2823
I1
ss(g975
g1580
g3760
S','
tp8695
(dp8696
g2019
I1
ss(S','
g284
g50
g596
tp8697
(dp8698
g1316
I1
ss(g817
g763
g62
g537
tp8699
(dp8700
g158
I1
ss(g733
g416
g1007
g276
tp8701
(dp8702
g1001
I1
ss(S' '
g296
g1339
g52
tp8703
(dp8704
S'.'
I1
ss(g3480
g1911
g950
g2741
tp8705
(dp8706
g4033
I1
ss(g45
S','
g3739
g17
tp8707
(dp8708
g1137
I1
ss(S';'
g4083
g2703
g1550
tp8709
(dp8710
g88
I1
ss(S' '
g269
S'.'
S'\x00'
tp8711
(dp8712
S'\x00'
I3
ss(g625
g1312
g1000
g198
tp8713
(dp8714
g1083
I1
ss(g1963
g185
g1298
g796
tp8715
(dp8716
g424
I1
ss(g2767
g1091
g553
g280
tp8717
(dp8718
g167
I1
ss(g194
g165
g82
g870
tp8719
(dp8720
g1998
I1
ss(g868
g248
g236
g149
tp8721
(dp8722
S','
I1
ss(g851
g90
g438
g664
tp8723
(dp8724
g2042
I1
ss(g1694
g2957
g308
S';'
tp8725
(dp8726
g1949
I1
ss(g22
S','
g3921
g3223
tp8727
(dp8728
g164
I1
ss(g1626
g425
S','
g611
tp8729
(dp8730
g2966
I1
ss(g287
g392
g1395
g199
tp8731
(dp8732
g1458
I1
ss(g1147
S'.'
g49
g491
tp8733
(dp8734
g1206
I1
ss(g1283
g3613
g3651
g227
tp8735
(dp8736
S'.'
I2
ss(g992
g51
g1153
g1286
tp8737
(dp8738
g208
I1
ss(g1156
S'.'
g382
g953
tp8739
(dp8740
g386
I1
ss(g1213
g24
g1072
g1701
tp8741
(dp8742
g992
I1
ss(g644
g764
g995
g1802
tp8743
(dp8744
g1106
I1
ss(g953
g386
g186
S'a'
tp8745
(dp8746
g2767
I1
ss(g389
S','
S'-'
g66
tp8747
(dp8748
g1521
I1
ss(g334
g1358
g1236
g994
tp8749
(dp8750
g411
I1
ss(g196
g1063
g231
g684
tp8751
(dp8752
g2433
I1
ss(g1000
g198
g1083
g245
tp8753
(dp8754
g1023
I1
ss(g186
S'a'
g2767
g1091
tp8755
(dp8756
g553
I1
ss(S';'
g1426
g848
g646
tp8757
(dp8758
S'I'
I2
ss(g1408
g655
g183
S','
tp8759
(dp8760
g212
I1
ss(g1648
g1378
g171
g376
tp8761
(dp8762
g175
I1
ss(g805
g665
g272
g1602
tp8763
(dp8764
g213
I1
ss(g290
g114
g358
S'a'
tp8765
(dp8766
g95
I1
ss(g2712
g971
g412
g367
tp8767
(dp8768
g334
I1
ss(g3007
g475
g652
g3042
tp8769
(dp8770
g4254
I1
ss(g463
g1189
g349
g1330
tp8771
(dp8772
g170
I1
ss(S','
g2797
g651
g1476
tp8773
(dp8774
g341
I1
ss(g1342
g423
S','
g2045
tp8775
(dp8776
g2712
I1
ss(g1912
g4322
g3981
S','
tp8777
(dp8778
g616
I1
sg3573
I1
ss(g1219
S'I'
g1177
g1082
tp8779
(dp8780
g2282
I1
ss(g1312
g1000
g198
g1083
tp8781
(dp8782
g245
I1
ss(g3813
g847
g506
g486
tp8783
(dp8784
g70
I1
ss(g289
g1046
g1386
g1008
tp8785
(dp8786
S';'
I1
ss(g645
g1233
S','
g2037
tp8787
(dp8788
S'?'
I1
ss(g1309
g1827
g3844
S'.'
tp8789
(dp8790
S'\x00'
I1
ss(g275
g235
g56
g400
tp8791
(dp8792
g261
I1
ss(g3059
S';'
g1426
g848
tp8793
(dp8794
g646
I2
ss(g164
g830
g2774
g78
tp8795
(dp8796
S';'
I1
ss(S','
g2294
g731
g12
tp8797
(dp8798
g1327
I1
ss(S'I'
g3393
g1719
g3489
tp8799
(dp8800
g1664
I1
ss(g764
g995
g1802
g1106
tp8801
(dp8802
g3523
I1
ss(g1019
g343
g224
S','
tp8803
(dp8804
g622
I1
ss(g355
g271
g297
S','
tp8805
(dp8806
g2479
I1
ss(g866
g221
g103
g498
tp8807
(dp8808
g3502
I1
ss(g2050
g1454
g9
g743
tp8809
(dp8810
g157
I1
ss(g370
S','
g284
g50
tp8811
(dp8812
g596
I1
ss(g1170
g339
g1043
g1184
tp8813
(dp8814
g1663
I1
ss(g1056
S','
g3192
g64
tp8815
(dp8816
g710
I1
ss(g11
g1621
g312
g1432
tp8817
(dp8818
S'a'
I1
ss(g1298
g796
g424
g1031
tp8819
(dp8820
g1314
I2
ss(g2109
g529
g1704
g260
tp8821
(dp8822
g1086
I1
ss(g3808
g1451
g1367
g2747
tp8823
(dp8824
g263
I1
ss(g1682
S','
g2570
g331
tp8825
(dp8826
S','
I1
ss(g938
g387
g1472
g1188
tp8827
(dp8828
S','
I1
ss(g191
g1355
g395
S','
tp8829
(dp8830
g2852
I1
ss(g184
g880
g463
g1189
tp8831
(dp8832
g349
I1
ss(g647
g1963
g185
g1298
tp8833
(dp8834
g796
I1
ss(g103
g498
g3502
g1822
tp8835
(dp8836
S','
I1
ss(g328
S','
g2135
g365
tp8837
(dp8838
S','
I1
ss(g38
g1169
g191
g1355
tp8839
(dp8840
g395
I1
ss(g183
S','
g212
S'-'
tp8841
(dp8842
g16
I1
ss(S','
g2045
g2712
g971
tp8843
(dp8844
g412
I1
ss(g1239
g233
g980
g410
tp8845
(dp8846
g1463
I1
ss(g2135
g365
S','
g2076
tp8847
(dp8848
g1383
I1
ss(g2418
g996
g2421
g4511
tp8849
(dp8850
g6754
I1
ss(g1146
g1313
g2312
g85
tp8851
(dp8852
g935
I1
ss(g288
S','
g2146
g1370
tp8853
(dp8854
g1257
I1
ss(g397
g96
S','
g407
tp8855
(dp8856
g317
I1
ss(g1248
g1396
g2203
g4990
tp8857
(dp8858
g3263
I1
ss(g1008
S';'
S'I'
g405
tp8859
(dp8860
g1743
I1
ss(g928
g427
g1283
g3613
tp8861
(dp8862
g3651
I1
ss(g1035
S'a'
g2954
g1090
tp8863
(dp8864
g1183
I1
ss(g1539
g7
g1121
g2366
tp8865
(dp8866
g247
I1
ss(S','
g622
g2758
g155
tp8867
(dp8868
g1658
I1
ss(g377
g311
g1716
g1380
tp8869
(dp8870
g746
I1
ss(g395
S','
g2852
g653
tp8871
(dp8872
g666
I1
ss(S'a'
g723
g925
g60
tp8873
(dp8874
g1648
I1
ss(S','
g1806
g1384
S'I'
tp8875
(dp8876
g32
I1
ss(g365
S','
g2076
g1383
tp8877
(dp8878
g2079
I1
ss(g3296
g22
S','
g3921
tp8879
(dp8880
g3223
I1
ss(g820
g2670
g1665
g2673
tp8881
(dp8882
g3830
I1
ss(g261
g222
g301
S'.'
tp8883
(dp8884
S'\x00'
I1
ss(g596
g1316
g2336
g552
tp8885
(dp8886
g204
I1
ss(g846
g36
g1306
g219
tp8887
(dp8888
g1366
I1
ss(g1365
g323
g11
g1621
tp8889
(dp8890
g312
I1
ss(S','
g1767
g168
g1245
tp8891
(dp8892
g1198
I1
ss(g228
g1124
g61
g230
tp8893
(dp8894
g179
I1
ss(g944
S';'
g1429
g2317
tp8895
(dp8896
g415
I1
ss(g3393
g1719
g3489
g1664
tp8897
(dp8898
g2493
I1
ss(g1946
g142
g1626
g425
tp8899
(dp8900
S','
I1
ss(g584
g350
g435
g37
tp8901
(dp8902
g676
I1
ss(g172
g92
g858
g1182
tp8903
(dp8904
g1354
I2
ss(g60
g1648
g1378
g171
tp8905
(dp8906
g376
I1
ss(S'a'
g177
g373
g229
tp8907
(dp8908
g336
I1
ss(g929
g384
g1269
S'?'
tp8909
(dp8910
g1290
I1
ss(g281
S','
g2403
g852
tp8911
(dp8912
g34
I1
ss(g110
g313
g1589
g122
tp8913
(dp8914
g109
I1
ss(g3686
g110
g313
g1589
tp8915
(dp8916
g122
I1
ss(S' '
g143
g1671
S'.'
tp8917
(dp8918
S'\x00'
I1
ss(S','
g3381
g38
g1169
tp8919
(dp8920
g191
I1
ss(g1245
g1198
g13
g389
tp8921
(dp8922
S','
I1
ss(S'a'
g95
S','
g393
tp8923
(dp8924
g126
I1
ss(g343
g224
S','
g622
tp8925
(dp8926
g2758
I1
ss(g358
S'a'
g95
S','
tp8927
(dp8928
g393
I1
ss(g385
g99
S','
S'I'
tp8929
(dp8930
g1174
I1
ss(g633
g406
g1559
g1546
tp8931
(dp8932
g140
I1
ss(g321
g817
g763
g62
tp8933
(dp8934
g537
I1
ss(g246
g1437
g977
S'?'
tp8935
(dp8936
S'\x00'
I1
ss(g155
g1658
g1564
S','
tp8937
(dp8938
g623
I1
ss(S':'
g1680
g91
S','
tp8939
(dp8940
g3584
I1
ss(g376
g175
S';'
g2075
tp8941
(dp8942
g3566
I1
ss(g190
g961
g1319
g1912
tp8943
(dp8944
g4322
I1
ss(g1680
g91
S','
g3584
tp8945
(dp8946
S'a'
I1
ss(g371
g324
g8
g128
tp8947
(dp8948
S'I'
I1
ss(g893
g3000
S':'
g1683
tp8949
(dp8950
S','
I1
ss(g655
g183
S','
g212
tp8951
(dp8952
S'-'
I1
ss(g272
g1602
g213
g658
tp8953
(dp8954
g355
I1
ss(g1701
g992
g51
g1153
tp8955
(dp8956
g1286
I1
ss(g8528
g4261
S'.'
S'\x00'
tp8957
(dp8958
S'\x00'
I1
ss(g411
g195
S','
g615
tp8959
(dp8960
g169
I1
ss(g374
g262
g1150
g1190
tp8961
(dp8962
S';'
I1
ss(g1221
g457
g319
g1402
tp8963
(dp8964
g2781
I1
ss(g111
g252
S','
g3161
tp8965
(dp8966
g993
I1
ss(S','
g614
g997
g391
tp8967
(dp8968
g220
I1
ss(g1806
g1384
S'I'
g32
tp8969
(dp8970
g173
I1
ss(g185
g1298
g796
g424
tp8971
(dp8972
g1031
I1
ss(g88
g279
g71
S','
tp8973
(dp8974
g2130
I1
ss(g1811
g2256
g1126
g697
tp8975
(dp8976
g2357
I1
ss(g2282
g1946
g142
g1626
tp8977
(dp8978
g425
I1
ss(g6475
g3280
g357
S','
tp8979
(dp8980
g3007
I1
ss(g342
g1147
S'.'
g49
tp8981
(dp8982
g491
I1
ss(g129
S','
g1816
g29
tp8983
(dp8984
g1019
I1
ss(g2747
g263
g1506
S':'
tp8985
(dp8986
g1684
I1
ss(g1358
g1236
g994
g411
tp8987
(dp8988
g195
I1
ss(S','
g2146
g1370
g1257
tp8989
(dp8990
g1185
I1
ss(g780
g270
g1351
g237
tp8991
(dp8992
g924
I1
ss(g382
g953
g386
g186
tp8993
(dp8994
S'a'
I1
ss(g340
g1674
g2823
g4364
tp8995
(dp8996
g2525
I1
ss(g245
g1023
g354
g1503
tp8997
(dp8998
g779
I1
ss(g4541
S'I'
g3393
g1719
tp8999
(dp9000
g3489
I1
ss(g694
g93
g633
g406
tp9001
(dp9002
g1559
I1
ss(S' '
g298
g1132
S','
tp9003
(dp9004
g2948
I1
ss(S','
g3019
g607
g39
tp9005
(dp9006
S','
I1
ss(g1695
g315
g694
g93
tp9007
(dp9008
g633
I1
ss(S'a'
g206
g404
S','
tp9009
(dp9010
g3386
I1
ss(g1486
g105
g1096
S','
tp9011
(dp9012
g2450
I1
ss(g405
g1743
g667
g2273
tp9013
(dp9014
g2584
I1
ss(g553
g280
g167
S','
tp9015
(dp9016
g2486
I1
ss(g2479
g285
g799
g2285
tp9017
(dp9018
g1161
I1
ss(g293
g1748
g2311
g35
tp9019
(dp9020
g1612
I1
ss(S','
g2852
g653
g666
tp9021
(dp9022
g266
I1
ss(S';'
g1427
g789
g465
tp9023
(dp9024
g476
I1
ss(g1199
g101
g1586
g851
tp9025
(dp9026
g90
I1
ss(g667
g2273
g2584
S'.'
tp9027
(dp9028
S'\x00'
I1
ss(g985
g2204
g205
g156
tp9029
(dp9030
g703
I1
ss(g788
g53
S'.'
g295
tp9031
(dp9032
g1635
I1
ss(g337
g320
g275
g235
tp9033
(dp9034
g56
I1
ss(g2908
g788
g53
S'.'
tp9035
(dp9036
g295
I1
ss(S';'
g2092
g1379
S','
tp9037
(dp9038
g1785
I1
ss(g1609
S','
g2050
g1454
tp9039
(dp9040
g9
I1
ss(g901
g2463
g45
S','
tp9041
(dp9042
g3739
I1
ss(g1719
g3489
g1664
g2493
tp9043
(dp9044
S'-'
I1
ss(g1286
g208
g1731
g2237
tp9045
(dp9046
g1576
I1
ss(g106
g527
g86
g327
tp9047
(dp9048
g883
I1
ss(g1454
g9
g743
g157
tp9049
(dp9050
g1405
I1
ss(g2578
S','
g2168
g333
tp9051
(dp9052
g965
I1
ss(g294
S'?'
g240
g681
tp9053
(dp9054
g2507
I1
ss(g117
S';'
g4083
g2703
tp9055
(dp9056
g1550
I1
ss(g1479
g1974
g288
S','
tp9057
(dp9058
g2146
I1
ss(g2110
g98
g753
g1315
tp9059
(dp9060
g921
I1
ss(g156
g703
g75
g129
tp9061
(dp9062
S','
I1
ss(g114
g358
S'a'
g95
tp9063
(dp9064
S','
I1
ss(g248
g236
g149
S','
tp9065
(dp9066
g268
I1
ss(g204
g419
S'a'
g722
tp9067
(dp9068
g1473
I1
ss(g2092
g1379
S','
g1785
tp9069
(dp9070
g383
I1
ss(g390
g351
g256
g1205
tp9071
(dp9072
g160
I1
ss(g448
g644
g764
g995
tp9073
(dp9074
g1802
I1
ss(g314
g1264
g606
g72
tp9075
(dp9076
S','
I1
ss(g2237
g1576
g850
g228
tp9077
(dp9078
g1124
I1
ss(g158
g1592
g867
g1457
tp9079
(dp9080
g309
I1
ss(g4322
g3981
S','
g3573
tp9081
(dp9082
g83
I1
ss(S'.'
g49
g491
g1206
tp9083
(dp9084
g174
I1
ss(S';'
g2075
g3566
S':'
tp9085
(dp9086
g141
I1
ss(g1052
g359
g246
g1437
tp9087
(dp9088
g977
I1
ss(g412
g367
g334
g1358
tp9089
(dp9090
g1236
I1
ss(g3706
g59
g299
g513
tp9091
(dp9092
g10
I1
ss(g1182
g1354
g1171
g2578
tp9093
(dp9094
S','
I1
ss(S' '
g338
g581
g322
tp9095
(dp9096
S','
I2
ss(g2673
g3830
S','
g3833
tp9097
(dp9098
g1374
I1
ss(g336
S','
g614
g997
tp9099
(dp9100
g391
I1
ss(g2336
g552
g204
g419
tp9101
(dp9102
S'a'
I1
ss(S'.'
g4004
g1219
S'I'
tp9103
(dp9104
g1177
I1
ss(S','
g627
g345
g1035
tp9105
(dp9106
S'a'
I1
ss(S','
g2037
S'?'
S'\x00'
tp9107
(dp9108
S'\x00'
I1
ss(g3760
S','
g2019
g732
tp9109
(dp9110
g834
I1
ss(g3306
g310
g65
g1498
tp9111
(dp9112
g869
I1
ss(g1310
g1170
g339
g1043
tp9113
(dp9114
g1184
I1
ss(g81
S';'
g420
S','
tp9115
(dp9116
g621
I1
ss(g386
g186
S'a'
g2767
tp9117
(dp9118
g1091
I1
ss(g205
g156
g703
g75
tp9119
(dp9120
g129
I1
ss(g973
g3068
S','
g3381
tp9121
(dp9122
g38
I1
ss(g3701
S','
g3095
g853
tp9123
(dp9124
S','
I1
ss(g1193
g23
g1028
g3150
tp9125
(dp9126
g120
I1
ss(S'O'
g534
S','
g618
tp9127
(dp9128
g2246
I1
ss(g1573
g507
g166
S':'
tp9129
(dp9130
g1680
I1
ss(S','
g611
g2966
g474
tp9131
(dp9132
g563
I1
ss(g507
g166
S':'
g1680
tp9133
(dp9134
g91
I1
ss(g2493
S'-'
g1442
g2744
tp9135
(dp9136
g2902
I1
ss(g305
g1287
g1552
g267
tp9137
(dp9138
g369
I1
ss(g995
g1802
g1106
g3523
tp9139
(dp9140
g4128
I1
ss(g297
S','
g2479
g285
tp9141
(dp9142
g799
I1
ss(g1383
g2079
g2173
g94
tp9143
(dp9144
g893
I1
ss(g34
g1140
g2346
g113
tp9145
(dp9146
g401
I1
ss(g930
S','
g2249
g2110
tp9147
(dp9148
g98
I1
ss(g199
g1458
g242
g1539
tp9149
(dp9150
g7
I1
ss(g137
S','
g3019
g607
tp9151
(dp9152
g39
I1
ss(g366
S','
g2386
S'\x00'
tp9153
(dp9154
S'\x00'
I1
ss(g1367
g2747
g263
g1506
tp9155
(dp9156
S':'
I1
ss(g756
g1694
g2957
g308
tp9157
(dp9158
S';'
I1
ss(g360
g187
g1301
g417
tp9159
(dp9160
S'.'
I1
ss(S' '
g4375
g3545
g645
tp9161
(dp9162
g1233
I1
ss(g650
g846
g36
g1306
tp9163
(dp9164
g219
I1
ss(g317
g210
g33
S','
tp9165
(dp9166
g290
I1
ss(g283
g1220
g464
g3875
tp9167
(dp9168
g238
I1
ss(g78
S';'
g2026
g1376
tp9169
(dp9170
g868
I1
ss(g3502
g1822
S','
g610
tp9171
(dp9172
g1695
I1
ss(g1512
g282
g408
g431
tp9173
(dp9174
g244
I1
ss(g309
S'.'
g147
g1518
tp9175
(dp9176
g200
I1
ss(g195
S','
g615
g169
tp9177
(dp9178
g1052
I1
ss(g338
g581
g322
S','
tp9179
(dp9180
g2532
I1
sg2533
I1
ss(g208
g1731
g2237
g1576
tp9181
(dp9182
g850
I1
ss(S','
g612
g361
g1075
tp9183
(dp9184
g203
I1
ss(S':'
g1684
g1159
g1632
tp9185
(dp9186
g25
I1
ss(g1162
g1146
g1313
g2312
tp9187
(dp9188
g85
I1
ss(g1473
g1455
g647
g1963
tp9189
(dp9190
g185
I1
ss(g1072
g1701
g992
g51
tp9191
(dp9192
g1153
I1
ss(g964
g30
g1399
g57
tp9193
(dp9194
S';'
I1
ss(g2954
g1090
g1183
g1513
tp9195
(dp9196
g875
I1
ss(g1384
S'I'
g32
g173
tp9197
(dp9198
S'.'
I1
ss(g168
g1245
g1198
g13
tp9199
(dp9200
g389
I1
ss(S'a'
g722
g1473
g1455
tp9201
(dp9202
g647
I1
ss(g422
S','
g3048
S','
tp9203
(dp9204
g6626
I1
ss(g264
g1573
g507
g166
tp9205
(dp9206
S':'
I1
ss(S','
S'I'
g1174
g1127
tp9207
(dp9208
g3532
I1
ss(g614
g997
g391
g220
tp9209
(dp9210
g226
I1
ss(S','
g3701
S','
g3095
tp9211
(dp9212
g853
I1
ss(g1316
g2336
g552
g204
tp9213
(dp9214
g419
I1
ss(S' '
g104
g1408
g655
tp9215
(dp9216
g183
I1
ss(S','
g2881
g329
g1629
tp9217
(dp9218
g124
I1
ss(g1157
g1532
g43
g471
tp9219
(dp9220
g1186
I1
ss(g3223
g164
g830
g2774
tp9221
(dp9222
g78
I1
ss(g700
g394
g1066
S'?'
tp9223
(dp9224
S'\x00'
I1
ss(g1509
g1318
S','
g1993
tp9225
(dp9226
g184
I1
ss(g367
g334
g1358
g1236
tp9227
(dp9228
g994
I1
ss(g350
g435
g37
g676
tp9229
(dp9230
g289
I1
ss(g1242
g347
g1049
S','
tp9231
(dp9232
g3948
I1
ss(g464
g3875
g238
g898
tp9233
(dp9234
g73
I1
ss(g166
S':'
g1680
g91
tp9235
(dp9236
S','
I1
ss(g1559
g1546
g140
g1004
tp9237
(dp9238
g514
I1
ssatRp9239
(dp9240
S'order'
p9241
I4
sb.