ccopy_reg
_reconstructor
p1
(cmarkov
MarkovCorpus
p2
c__builtin__
list
p3
(lp4
(dp5
(t(dp6
S'and'
p7
I2
sS'saying'
p8
I1
sS'all'
p9
I2
sS'right'
p10
I1
sS'says'
p11
I1
sS'-'
I1
sS'is'
p12
I3
sS'find'
p13
I1
sS'Certainly'
p14
I1
sS'disposed'
p15
I1
sS'rate'
p16
I1
sS'already'
p17
I1
sS'at'
p18
I2
sS'have'
p19
I1
sS'in'
p20
I3
sS'disciple'
p21
I1
sS'You'
p22
I1
sS'any'
p23
I2
sS'subject'
p24
I2
sS'are'
p25
I1
sS' '
I8
sS'what'
p26
I2
sS'"'
I2
sS'Socrates'
p27
I2
sS'probable'
p28
I1
sS'to'
p29
I4
sS'perhaps'
p30
I1
sS'explain'
p31
I1
sS'opposite'
p32
I1
sS'please'
p33
I1
sS','
I18
sS'But'
p34
I1
sS'.'
I8
sS'importance'
p35
I1
sS'Ajax'
p36
I1
sS'whom'
p37
I1
sS'which'
p38
I1
sS'Achilles'
p39
I1
sS'you'
p40
I7
sS'might'
p41
I1
sS'into'
p42
I1
sS'greatest'
p43
I1
sS'do'
p44
I1
sS'legislators'
p45
I1
sS'that'
p46
I3
sS'I'
I6
sS'moved'
p47
I1
sS'first'
p48
I1
sS'Well'
p49
I1
sS'myself'
p50
I1
sS'but'
p51
I1
sS'quite'
p52
I1
sS'am'
p53
I1
sS'matters'
p54
I1
sS'moment'
p55
I1
sS'surely'
p56
I1
sS'think'
p57
I1
sS'not'
p58
I2
sS'such'
p59
I1
sS'The'
p60
I1
sS'true'
p61
I1
sS';'
I1
sS'spoke'
p62
I1
sS'a'
I4
sS'convert'
p63
I1
sS'made'
p64
I1
sS'language'
p65
I1
sS'possibly'
p66
I1
sS'these'
p67
I1
sS'of'
p68
I4
sS'study'
p69
I1
sS'Prayers'
p70
I1
sS'as'
p71
I2
sS'Hermogenes'
p72
I1
sS'fear'
p73
I1
sS'suppose'
p74
I1
sS'can'
p75
I1
sS'learn'
p76
I1
sS'very'
p77
I1
sS'Yes'
p78
I3
sS'the'
p79
I3
sS'more'
p80
I1
sS'or'
p81
I1
sS'say'
p82
I2
sS'If'
p83
I1
ssa(dp84
(g79
tp85
(dp86
g77
I1
sS'"'
I1
sg32
I1
ss(g18
tp87
(dp88
S'any'
p89
I1
sg48
I1
ss(g26
tp90
(dp91
g39
I1
sS'you'
p92
I1
ss(S'I'
tp93
(dp94
g17
I1
sg31
I1
sg53
I1
sg19
I1
sg73
I1
sg41
I1
ss(g29
tp95
(dp96
g82
I1
sg36
I1
sS'you'
p97
I1
sg57
I1
ss(g70
tp98
(dp99
S'"'
I1
ss(g51
tp100
(dp101
g56
I1
ss(g59
tp102
(dp103
S'a'
I1
ss(g67
tp104
(dp105
g54
I1
ss(g17
tp106
(dp107
g13
I1
ss(g16
tp108
(dp109
S','
I1
ss(g15
tp110
(dp111
S'to'
p112
I1
ss(g35
tp113
(dp114
g9
I1
ss(g54
tp115
(dp116
S','
I1
ss(S' '
tp117
(dp118
g14
I1
sg49
I1
sg78
I3
sg22
I1
sg60
I1
sg83
I1
ss(g48
tp119
(dp120
S'.'
I1
ss(g62
tp121
(dp122
S'at'
p123
I1
ss(g65
tp124
(dp125
S','
I1
ss(g60
tp126
(dp127
g45
I1
ss(g30
tp128
(dp129
S','
I1
ss(g8
tp130
(dp131
S'that'
p132
I1
ss(g31
tp133
(dp134
S','
I1
ss(g33
tp135
(dp136
S'.'
I1
ss(g46
tp137
(dp138
S'I'
I1
sS'you'
p139
I1
sS'the'
p140
I1
ss(g55
tp141
(dp142
S';'
I1
ss(g34
tp143
(dp144
S'I'
I1
ss(g20
tp145
(dp146
S'a'
I1
sg8
I1
sS'the'
p147
I1
ss(g80
tp148
(dp149
g28
I1
ss(g73
tp150
(dp151
S'that'
p152
I1
ss(S'\x00'
tp153
(dp154
S'\x00'
I32
ss(g10
tp155
(dp156
S','
I1
ss(g45
tp157
(dp158
S','
I1
ss(g81
tp159
(dp160
S'I'
I1
ss(S'.'
tp161
(dp162
S'\x00'
I7
sg34
I1
ss(g40
tp163
(dp164
g44
I1
sg26
I1
sg62
I1
sg42
I1
sg33
I1
sS'say'
p165
I1
sg75
I1
ss(g41
tp166
(dp167
g66
I1
ss(g50
tp168
(dp169
g47
I1
ss(g28
tp170
(dp171
S','
I1
ss(g52
tp172
(dp173
g61
I1
ss(g43
tp174
(dp175
S'of'
p176
I1
ss(g7
tp177
(dp178
S'I'
I2
ss(g9
tp179
(dp180
S'.'
I1
sg20
I1
ss(g68
tp181
(dp182
g35
I1
sg67
I1
sS'all'
p183
I1
sg37
I1
ss(g11
tp184
(dp185
S'to'
p186
I1
ss(g72
tp187
(dp188
S','
I1
ss(g78
tp189
(dp190
S','
I1
sS'.'
I2
ss(g25
tp191
(dp192
g10
I1
ss(g47
tp193
(dp194
g29
I1
ss(g64
tp195
(dp196
S'a'
I1
ss(g37
tp197
(dp198
S'you'
p199
I1
ss(g74
tp200
(dp201
g46
I1
ss(g22
tp202
(dp203
g25
I1
ss(g69
tp204
(dp205
S'of'
p206
I1
ss(g71
tp207
(dp208
S'I'
I1
sg65
I1
ss(S','
tp209
(dp210
g7
I2
sg79
I1
sS'what'
p211
I1
sg30
I1
sS'of'
p212
I1
sS'is'
p213
I1
sS'as'
p214
I1
sg51
I1
sg81
I1
sg27
I2
sg38
I1
sS'in'
p215
I1
sS'not'
p216
I1
sS'you'
p217
I1
sg72
I1
sg23
I1
ss(g63
tp218
(dp219
S'you'
p220
I1
ss(g83
tp221
(dp222
g40
I1
ss(g12
tp223
(dp224
g52
I1
sS','
I1
sg80
I1
ss(g82
tp225
(dp226
S'to'
p227
I1
sS','
I1
ss(g36
tp228
(dp229
S'-'
I1
ss(g58
tp230
(dp231
g59
I1
sg74
I1
ss(g75
tp232
(dp233
g76
I1
ss(g61
tp234
(dp235
S'.'
I1
ss(g13
tp236
(dp237
g50
I1
ss(g24
tp238
(dp239
g68
I1
sg71
I1
ss(S'-'
tp240
(dp241
S'\x00'
I1
ss(g21
tp242
(dp243
S'.'
I1
ss(g77
tp244
(dp245
g43
I1
ss(g49
tp246
(dp247
S','
I1
ss(g19
tp248
(dp249
g64
I1
ss(g66
tp250
(dp251
g63
I1
ss(S';'
tp252
(dp253
g18
I1
ss(S'a'
tp254
(dp255
g21
I1
sg55
I1
sg69
I1
sS'subject'
p256
I1
ss(g57
tp257
(dp258
S','
I1
ss(S'"'
tp259
(dp260
g11
I1
sg70
I1
ss(g42
tp261
(dp262
S'a'
I1
ss(g53
tp263
(dp264
g15
I1
ss(g38
tp265
(dp266
g12
I1
ss(g44
tp267
(dp268
g58
I1
ss(g76
tp269
(dp270
S','
I1
ss(g14
tp271
(dp272
S'.'
I1
ss(g23
tp273
(dp274
g16
I1
sg24
I1
ss(g32
tp275
(dp276
S'is'
p277
I1
ss(g27
tp278
(dp279
S','
I2
ss(g39
tp280
(dp281
S'in'
p282
I1
ss(g56
tp283
(dp284
S','
I1
ssa(dp285
(S','
g38
tp286
(dp287
g12
I1
ss(g35
g9
tp288
(dp289
g20
I1
ss(g206
g67
tp290
(dp291
g54
I1
ss(S','
g72
tp292
(dp293
S','
I1
ss(g140
g32
tp294
(dp295
g277
I1
ss(g123
g48
tp296
(dp297
S'.'
I1
ss(S','
g214
tp298
(dp299
S'I'
I1
ss(g220
g42
tp300
(dp301
S'a'
I1
ss(g21
S'.'
tp302
(dp303
g34
I1
ss(S'I'
g73
tp304
(dp305
g152
I1
ss(g19
g64
tp306
(dp307
S'a'
I1
ss(S','
g216
tp308
(dp309
g59
I1
ss(g68
g35
tp310
(dp311
g9
I1
ss(g212
g37
tp312
(dp313
g199
I1
ss(g82
g227
tp314
(dp315
g97
I1
ss(g55
S';'
tp316
(dp317
g18
I1
ss(g199
g62
tp318
(dp319
g123
I1
ss(S','
g212
tp320
(dp321
g37
I1
ss(g211
g92
tp322
(dp323
g165
I1
ss(g58
g74
tp324
(dp325
g46
I1
ss(g41
g66
tp326
(dp327
g63
I1
ss(g81
S'I'
tp328
(dp329
g31
I1
ss(g47
g29
tp330
(dp331
g82
I1
ss(S'a'
g256
tp332
(dp333
g71
I1
ss(g14
S'.'
tp334
(dp335
S'\x00'
I1
ss(g62
g123
tp336
(dp337
g48
I1
ss(S','
g27
tp338
(dp339
S','
I2
ss(g34
S'I'
tp340
(dp341
g73
I1
ss(g277
g80
tp342
(dp343
g28
I1
ss(g27
S','
tp344
(dp345
g211
I1
sg215
I1
ss(g53
g15
tp346
(dp347
g112
I1
ss(g36
S'-'
tp348
(dp349
S'\x00'
I1
ss(g12
S','
tp350
(dp351
g30
I1
ss(g52
g61
tp352
(dp353
S'.'
I1
ss(g92
g165
tp354
(dp355
S','
I1
ss(S' '
g78
tp356
(dp357
S','
I1
sS'.'
I2
ss(g22
g25
tp358
(dp359
g10
I1
ss(g83
g40
tp360
(dp361
g33
I1
ss(g43
g176
tp362
(dp363
g183
I1
ss(g59
S'a'
tp364
(dp365
g256
I1
ss(S','
g30
tp366
(dp367
S','
I1
ss(g7
S'I'
tp368
(dp369
g17
I1
sg41
I1
ss(S'I'
g17
tp370
(dp371
g13
I1
ss(g24
g68
tp372
(dp373
g35
I1
ss(g64
S'a'
tp374
(dp375
g69
I1
ss(g74
g46
tp376
(dp377
g139
I1
ss(g37
g199
tp378
(dp379
g62
I1
ss(g76
S','
tp380
(dp381
g81
I1
ss(S'Yes'
p382
S'.'
tp383
(dp384
S'\x00'
I2
ss(g186
g36
tp385
(dp386
S'-'
I1
ss(g139
g75
tp387
(dp388
g76
I1
ss(g217
g44
tp389
(dp390
g58
I1
ss(g11
g186
tp391
(dp392
g36
I1
ss(S','
g79
tp393
(dp394
g77
I1
ss(g48
S'.'
tp395
(dp396
S'\x00'
I1
ss(g213
g52
tp397
(dp398
g61
I1
ss(g60
g45
tp399
(dp400
S','
I1
ss(g44
g58
tp401
(dp402
g74
I1
ss(g51
g56
tp403
(dp404
S','
I1
ss(g38
g12
tp405
(dp406
S','
I1
ss(S';'
g18
tp407
(dp408
g89
I1
ss(g65
S','
tp409
(dp410
g38
I1
ss(S'I'
g41
tp411
(dp412
g66
I1
ss(g73
g152
tp413
(dp414
g140
I1
ss(g54
S','
tp415
(dp416
g7
I1
ss(S','
g213
tp417
(dp418
g52
I1
ss(g40
g33
tp419
(dp420
S'.'
I1
ss(g29
g82
tp421
(dp422
g227
I1
ss(g70
S'"'
tp423
(dp424
g11
I1
ss(S','
g215
tp425
(dp426
g8
I1
ss(g30
S','
tp427
(dp428
g79
I1
ss(g46
g139
tp429
(dp430
g75
I1
ss(g112
g57
tp431
(dp432
S','
I1
ss(g61
S'.'
tp433
(dp434
S'\x00'
I1
ss(g214
S'I'
tp435
(dp436
g53
I1
ss(g42
S'a'
tp437
(dp438
g21
I1
ss(S'.'
g34
tp439
(dp440
S'I'
I1
ss(S'.'
S'\x00'
tp441
(dp442
S'\x00'
I21
ss(S'"'
g11
tp443
(dp444
g186
I1
ss(S','
g7
tp445
(dp446
S'I'
I2
ss(g17
g13
tp447
(dp448
g50
I1
ss(g56
S','
tp449
(dp450
g72
I1
ss(S' '
g22
tp451
(dp452
g25
I1
ss(S'I'
g19
tp453
(dp454
g64
I1
ss(g9
g20
tp455
(dp456
S'a'
I1
ss(S','
g211
tp457
(dp458
g92
I1
ss(S' '
g49
tp459
(dp460
S','
I1
ss(S','
g51
tp461
(dp462
g56
I1
ss(g28
S','
tp463
(dp464
S'and'
p465
I1
ss(g97
g26
tp466
(dp467
g39
I1
ss(S','
g23
tp468
(dp469
g24
I1
ss(g183
S'.'
tp470
(dp471
S'\x00'
I1
ss(g78
S','
tp472
(dp473
S'Socrates'
p474
I1
ss(S' '
g83
tp475
(dp476
g40
I1
ss(g15
g112
tp477
(dp478
g57
I1
ss(g80
g28
tp479
(dp480
S','
I1
ss(g18
g89
tp481
(dp482
g16
I1
ss(g216
g59
tp483
(dp484
S'a'
I1
ss(g71
g65
tp485
(dp486
S','
I1
ss(g50
g47
tp487
(dp488
g29
I1
ss(g67
g54
tp489
(dp490
S','
I1
ss(g72
S','
tp491
(dp492
g217
I1
ss(g49
S','
tp493
(dp494
g51
I1
ss(S','
g217
tp495
(dp496
g44
I1
ss(S'I'
g31
tp497
(dp498
S','
I1
ss(g66
g63
tp499
(dp500
g220
I1
ss(g57
S','
tp501
(dp502
g213
I1
ss(S'"'
g70
tp503
(dp504
S'"'
I1
ss(g63
g220
tp505
(dp506
g42
I1
ss(g16
S','
tp507
(dp508
g216
I1
ss(g89
g16
tp509
(dp510
S','
I1
ss(g256
g71
tp511
(dp512
g65
I1
ss(g10
S','
tp513
(dp514
g27
I1
ss(g23
g24
tp515
(dp516
g68
I1
ss(g147
S'"'
tp517
(dp518
g70
I1
ss(g26
g39
tp519
(dp520
g282
I1
ss(g8
g132
tp521
(dp522
S'I'
I1
ss(g227
g97
tp523
(dp524
g26
I1
ss(S'a'
g21
tp525
(dp526
S'.'
I1
ss(g69
g206
tp527
(dp528
g67
I1
ss(g39
g282
tp529
(dp530
g147
I1
ss(S' '
g14
tp531
(dp532
S'.'
I1
ss(g32
g277
tp533
(dp534
g80
I1
ss(g152
g140
tp535
(dp536
g32
I1
ss(g176
g183
tp537
(dp538
S'.'
I1
ss(g31
S','
tp539
(dp540
g23
I1
ss(g75
g76
tp541
(dp542
S','
I1
ss(g165
S','
tp543
(dp544
g214
I1
ss(g45
S','
tp545
(dp546
g212
I1
ss(g79
g77
tp547
(dp548
g43
I1
ss(g20
S'a'
tp549
(dp550
g55
I1
ss(S'a'
g69
tp551
(dp552
g206
I1
ss(g215
g8
tp553
(dp554
g132
I1
ss(S'-'
S'\x00'
tp555
(dp556
S'\x00'
I3
ss(g33
S'.'
tp557
(dp558
S'\x00'
I1
ss(S' '
g60
tp559
(dp560
g45
I1
ss(S'I'
g53
tp561
(dp562
g15
I1
ss(g77
g43
tp563
(dp564
g176
I1
ss(S'a'
g55
tp565
(dp566
S';'
I1
ss(g25
g10
tp567
(dp568
S','
I1
ss(g13
g50
tp569
(dp570
g47
I1
ss(S','
g81
tp571
(dp572
S'I'
I1
ss(g282
g147
tp573
(dp574
S'"'
I1
ss(g132
S'I'
tp575
(dp576
g19
I1
ssa(dp577
(S','
g217
g44
tp578
(dp579
g58
I1
ss(g10
S','
g27
tp580
(dp581
S','
I1
ss(g132
S'I'
g19
tp582
(dp583
g64
I1
ss(g64
S'a'
g69
tp584
(dp585
g206
I1
ss(g89
g16
S','
tp586
(dp587
g216
I1
ss(S','
g216
g59
tp588
(dp589
S'a'
I1
ss(S','
g51
g56
tp590
(dp591
S','
I1
ss(g37
g199
g62
tp592
(dp593
g123
I1
ss(g38
g12
S','
tp594
(dp595
g30
I1
ss(S','
g38
g12
tp596
(dp597
S','
I1
ss(S'"'
g11
g186
tp598
(dp599
g36
I1
ss(g33
S'.'
S'\x00'
tp600
(dp601
S'\x00'
I2
ss(g152
g140
g32
tp602
(dp603
g277
I1
ss(g40
g33
S'.'
tp604
(dp605
S'\x00'
I1
ss(g57
S','
g213
tp606
(dp607
g52
I1
ss(g474
S','
g211
tp608
(dp609
g92
I1
ss(S'a'
g69
g206
tp610
(dp611
g67
I1
ss(g39
g282
g147
tp612
(dp613
S'"'
I1
ss(g79
g77
g43
tp614
(dp615
g176
I1
ss(S'I'
g17
g13
tp616
(dp617
g50
I1
ss(S'.'
g34
S'I'
tp618
(dp619
g73
I1
ss(g63
g220
g42
tp620
(dp621
S'a'
I1
ss(g50
g47
g29
tp622
(dp623
g82
I1
ss(g56
S','
g72
tp624
(dp625
S','
I1
ss(g54
S','
g7
tp626
(dp627
S'I'
I1
ss(g80
g28
S','
tp628
(dp629
g465
I1
ss(g65
S','
g38
tp630
(dp631
g12
I1
ss(g214
S'I'
g53
tp632
(dp633
g15
I1
ss(g211
g92
g165
tp634
(dp635
S','
I1
ss(g68
g35
g9
tp636
(dp637
g20
I1
ss(S','
g211
g92
tp638
(dp639
g165
I1
ss(g59
S'a'
g256
tp640
(dp641
g71
I1
ss(g206
g67
g54
tp642
(dp643
S','
I1
ss(g227
g97
g26
tp644
(dp645
g39
I1
ss(g217
g44
g58
tp646
(dp647
g74
I1
ss(S','
g79
g77
tp648
(dp649
g43
I1
ss(g45
S','
g212
tp650
(dp651
g37
I1
ss(g176
g183
S'.'
tp652
(dp653
S'\x00'
I1
ss(g17
g13
g50
tp654
(dp655
g47
I1
ss(g52
g61
S'.'
tp656
(dp657
S'\x00'
I1
ss(g139
g75
g76
tp658
(dp659
S','
I1
ss(g46
g139
g75
tp660
(dp661
g76
I1
ss(g9
g20
S'a'
tp662
(dp663
g55
I1
ss(S','
g215
g8
tp664
(dp665
g132
I1
ss(g18
g89
g16
tp666
(dp667
S','
I1
ss(g73
g152
g140
tp668
(dp669
g32
I1
ss(g60
g45
S','
tp670
(dp671
g212
I1
ss(g69
g206
g67
tp672
(dp673
g54
I1
ss(g212
g37
g199
tp674
(dp675
g62
I1
ss(g11
g186
g36
tp676
(dp677
S'-'
I1
ss(g51
g56
S','
tp678
(dp679
g72
I1
ss(S','
g72
S','
tp680
(dp681
g217
I1
ss(g61
S'.'
S'\x00'
tp682
(dp683
S'\x00'
I2
ss(g62
g123
g48
tp684
(dp685
S'.'
I1
ss(S' '
g382
S'.'
tp686
(dp687
S'\x00'
I2
ss(S'a'
g256
g71
tp688
(dp689
g65
I1
ss(S','
g30
S','
tp690
(dp691
g79
I1
ss(g27
S','
g215
tp692
(dp693
g8
I1
ss(g32
g277
g80
tp694
(dp695
g28
I1
ss(g58
g74
g46
tp696
(dp697
g139
I1
ss(g70
S'"'
g11
tp698
(dp699
g186
I1
ss(g36
S'-'
S'\x00'
tp700
(dp701
S'\x00'
I2
ss(g382
S'.'
S'\x00'
tp702
(dp703
S'\x00'
I4
ss(S'I'
g73
g152
tp704
(dp705
g140
I1
ss(g14
S'.'
S'\x00'
tp706
(dp707
S'\x00'
I2
ss(g123
g48
S'.'
tp708
(dp709
S'\x00'
I1
ss(g35
g9
g20
tp710
(dp711
S'a'
I1
ss(g15
g112
g57
tp712
(dp713
S','
I1
ss(g83
g40
g33
tp714
(dp715
S'.'
I1
ss(g29
g82
g227
tp716
(dp717
g97
I1
ss(S','
g23
g24
tp718
(dp719
g68
I1
ss(g277
g80
g28
tp720
(dp721
S','
I1
ss(S','
g212
g37
tp722
(dp723
g199
I1
ss(S','
g81
S'I'
tp724
(dp725
g31
I1
ss(g66
g63
g220
tp726
(dp727
g42
I1
ss(g71
g65
S','
tp728
(dp729
g38
I1
ss(g215
g8
g132
tp730
(dp731
S'I'
I1
ss(S','
g7
S'I'
tp732
(dp733
g17
I1
sg41
I1
ss(g199
g62
g123
tp734
(dp735
g48
I1
ss(S'"'
g70
S'"'
tp736
(dp737
g11
I1
ss(g43
g176
g183
tp738
(dp739
S'.'
I1
ss(g22
g25
g10
tp740
(dp741
S','
I1
ss(g48
S'.'
S'\x00'
tp742
(dp743
S'\x00'
I2
ss(g25
g10
S','
tp744
(dp745
g27
I1
ss(S'I'
g19
g64
tp746
(dp747
S'a'
I1
ss(g72
S','
g217
tp748
(dp749
g44
I1
ss(g20
S'a'
g55
tp750
(dp751
S';'
I1
ss(g112
g57
S','
tp752
(dp753
g213
I1
ss(S'a'
g21
S'.'
tp754
(dp755
g34
I1
ss(g12
S','
g30
tp756
(dp757
S','
I1
ss(g165
S','
g214
tp758
(dp759
S'I'
I1
ss(g28
S','
g465
tp760
(dp761
S'I'
I1
ss(g30
S','
g79
tp762
(dp763
g77
I1
ss(g282
g147
S'"'
tp764
(dp765
g70
I1
ss(g8
g132
S'I'
tp766
(dp767
g19
I1
ss(g47
g29
g82
tp768
(dp769
g227
I1
ss(g42
S'a'
g21
tp770
(dp771
S'.'
I1
ss(S'I'
g53
g15
tp772
(dp773
g112
I1
ss(g67
g54
S','
tp774
(dp775
g7
I1
ss(g213
g52
g61
tp776
(dp777
S'.'
I1
ss(S','
g213
g52
tp778
(dp779
g61
I1
ss(S' '
g22
g25
tp780
(dp781
g10
I1
ss(g34
S'I'
g73
tp782
(dp783
g152
I1
ss(g53
g15
g112
tp784
(dp785
g57
I1
ss(g74
g46
g139
tp786
(dp787
g75
I1
ss(S';'
g18
g89
tp788
(dp789
g16
I1
ss(g44
g58
g74
tp790
(dp791
g46
I1
ss(g82
g227
g97
tp792
(dp793
g26
I1
ss(g49
S','
g51
tp794
(dp795
g56
I1
ss(g256
g71
g65
tp796
(dp797
S','
I1
ss(g140
g32
g277
tp798
(dp799
g80
I1
ss(S','
g27
S','
tp800
(dp801
g211
I1
sg215
I1
ss(g78
S','
g474
tp802
(dp803
S','
I1
ss(g23
g24
g68
tp804
(dp805
g35
I1
ss(S' '
g78
S','
tp806
(dp807
g474
I1
ss(g220
g42
S'a'
tp808
(dp809
g21
I1
ss(S' '
g14
S'.'
tp810
(dp811
S'\x00'
I1
ss(S'a'
g55
S';'
tp812
(dp813
g18
I1
ss(g77
g43
g176
tp814
(dp815
g183
I1
ss(S' '
g83
g40
tp816
(dp817
g33
I1
ss(g147
S'"'
g70
tp818
(dp819
S'"'
I1
ss(g465
S'I'
g17
tp820
(dp821
g13
I1
ss(g24
g68
g35
tp822
(dp823
g9
I1
ss(g26
g39
g282
tp824
(dp825
g147
I1
ss(g216
g59
S'a'
tp826
(dp827
g256
I1
ss(g13
g50
g47
tp828
(dp829
g29
I1
ss(S'I'
g31
S','
tp830
(dp831
g23
I1
ss(S' '
g49
S','
tp832
(dp833
g51
I1
ss(g76
S','
g81
tp834
(dp835
S'I'
I1
ss(g81
S'I'
g31
tp836
(dp837
S','
I1
ss(S'I'
g41
g66
tp838
(dp839
g63
I1
ss(g21
S'.'
g34
tp840
(dp841
S'I'
I1
ss(g19
g64
S'a'
tp842
(dp843
g69
I1
ss(g55
S';'
g18
tp844
(dp845
g89
I1
ss(S','
g214
S'I'
tp846
(dp847
g53
I1
ss(g16
S','
g216
tp848
(dp849
g59
I1
ss(g183
S'.'
S'\x00'
tp850
(dp851
S'\x00'
I2
ss(S' '
g60
g45
tp852
(dp853
S','
I1
ss(g75
g76
S','
tp854
(dp855
g81
I1
ss(g31
S','
g23
tp856
(dp857
g24
I1
ss(g92
g165
S','
tp858
(dp859
g214
I1
ss(g7
S'I'
g41
tp860
(dp861
g66
I1
ss(g97
g26
g39
tp862
(dp863
g282
I1
ss(g41
g66
g63
tp864
(dp865
g220
I1
ss(g186
g36
S'-'
tp866
(dp867
S'\x00'
I1
ssa(dp868
(S'"'
g11
g186
g36
tp869
(dp870
S'-'
I1
ss(g10
S','
g27
S','
tp871
(dp872
g215
I1
ss(g40
g33
S'.'
S'\x00'
tp873
(dp874
S'\x00'
I1
ss(g25
g10
S','
g27
tp875
(dp876
S','
I1
ss(S','
g217
g44
g58
tp877
(dp878
g74
I1
ss(g37
g199
g62
g123
tp879
(dp880
g48
I1
ss(g47
g29
g82
g227
tp881
(dp882
g97
I1
ss(S','
g7
S'I'
g41
tp883
(dp884
g66
I1
ss(g216
g59
S'a'
g256
tp885
(dp886
g71
I1
ss(g38
g12
S','
g30
tp887
(dp888
S','
I1
ss(g79
g77
g43
g176
tp889
(dp890
g183
I1
ss(g217
g44
g58
g74
tp891
(dp892
g46
I1
ss(S','
g30
S','
g79
tp893
(dp894
g77
I1
ss(g211
g92
g165
S','
tp895
(dp896
g214
I1
ss(g20
S'a'
g55
S';'
tp897
(dp898
g18
I1
ss(S'a'
g55
S';'
g18
tp899
(dp900
g89
I1
ss(g152
g140
g32
g277
tp901
(dp902
g80
I1
ss(g31
S','
g23
g24
tp903
(dp904
g68
I1
ss(g66
g63
g220
g42
tp905
(dp906
S'a'
I1
ss(g215
g8
g132
S'I'
tp907
(dp908
g19
I1
ss(g256
g71
g65
S','
tp909
(dp910
g38
I1
ss(g213
g52
g61
S'.'
tp911
(dp912
S'\x00'
I1
ss(S','
g79
g77
g43
tp913
(dp914
g176
I1
ss(g12
S','
g30
S','
tp915
(dp916
g79
I1
ss(S'I'
g19
g64
S'a'
tp917
(dp918
g69
I1
ss(g78
S','
g474
S','
tp919
(dp920
g211
I1
ss(g55
S';'
g18
g89
tp921
(dp922
g16
I1
ss(g49
S','
g51
g56
tp923
(dp924
S','
I1
ss(g59
S'a'
g256
g71
tp925
(dp926
g65
I1
ss(S' '
g14
S'.'
S'\x00'
tp927
(dp928
S'\x00'
I1
ss(g46
g139
g75
g76
tp929
(dp930
S','
I1
ss(g35
g9
g20
S'a'
tp931
(dp932
g55
I1
ss(S' '
g382
S'.'
S'\x00'
tp933
(dp934
S'\x00'
I2
ss(S'.'
g34
S'I'
g73
tp935
(dp936
g152
I1
ss(g132
S'I'
g19
g64
tp937
(dp938
S'a'
I1
ss(g474
S','
g211
g92
tp939
(dp940
g165
I1
ss(S' '
g78
S','
g474
tp941
(dp942
S','
I1
ss(g82
g227
g97
g26
tp943
(dp944
g39
I1
ss(g74
g46
g139
g75
tp945
(dp946
g76
I1
ss(g57
S','
g213
g52
tp947
(dp948
g61
I1
ss(S','
g211
g92
g165
tp949
(dp950
S','
I1
ss(g27
S','
g215
g8
tp951
(dp952
g132
I1
ss(g67
g54
S','
g7
tp953
(dp954
S'I'
I1
ss(S'I'
g31
S','
g23
tp955
(dp956
g24
I1
ss(g212
g37
g199
g62
tp957
(dp958
g123
I1
ss(g186
g36
S'-'
S'\x00'
tp959
(dp960
S'\x00'
I1
ss(g18
g89
g16
S','
tp961
(dp962
g216
I1
ss(g165
S','
g214
S'I'
tp963
(dp964
g53
I1
ss(g51
g56
S','
g72
tp965
(dp966
S','
I1
ss(g69
g206
g67
g54
tp967
(dp968
S','
I1
ss(S','
g465
S'I'
g17
tp969
(dp970
g13
I1
ss(g34
S'I'
g73
g152
tp971
(dp972
g140
I1
ss(g28
S','
g465
S'I'
tp973
(dp974
g17
I1
ss(g76
S','
g81
S'I'
tp975
(dp976
g31
I1
ss(g147
S'"'
g70
S'"'
tp977
(dp978
g11
I1
ss(g92
g165
S','
g214
tp979
(dp980
S'I'
I1
ss(g30
S','
g79
g77
tp981
(dp982
g43
I1
ss(g465
S'I'
g17
g13
tp983
(dp984
g50
I1
ss(g16
S','
g216
g59
tp985
(dp986
S'a'
I1
ss(g17
g13
g50
g47
tp987
(dp988
g29
I1
ss(g13
g50
g47
g29
tp989
(dp990
g82
I1
ss(g26
g39
g282
g147
tp991
(dp992
S'"'
I1
ss(g22
g25
g10
S','
tp993
(dp994
g27
I1
ss(S','
g474
S','
g211
tp995
(dp996
g92
I1
ss(g29
g82
g227
g97
tp997
(dp998
g26
I1
ss(g277
g80
g28
S','
tp999
(dp1000
g465
I1
ss(g52
g61
S'.'
S'\x00'
tp1001
(dp1002
S'\x00'
I1
ss(S' '
g22
g25
g10
tp1003
(dp1004
S','
I1
ss(g44
g58
g74
g46
tp1005
(dp1006
g139
I1
ss(g220
g42
S'a'
g21
tp1007
(dp1008
S'.'
I1
ss(g89
g16
S','
g216
tp1009
(dp1010
g59
I1
ss(g53
g15
g112
g57
tp1011
(dp1012
S','
I1
ss(g139
g75
g76
S','
tp1013
(dp1014
g81
I1
ss(g39
g282
g147
S'"'
tp1015
(dp1016
g70
I1
ss(g15
g112
g57
S','
tp1017
(dp1018
g213
I1
ss(S','
g212
g37
g199
tp1019
(dp1020
g62
I1
ss(g214
S'I'
g53
g15
tp1021
(dp1022
g112
I1
ss(g75
g76
S','
g81
tp1023
(dp1024
S'I'
I1
ss(g8
g132
S'I'
g19
tp1025
(dp1026
g64
I1
ss(S'I'
g17
g13
g50
tp1027
(dp1028
g47
I1
ss(S','
g27
S','
g215
tp1029
(dp1030
g8
I1
ss(S'"'
g70
S'"'
g11
tp1031
(dp1032
g186
I1
ss(g60
g45
S','
g212
tp1033
(dp1034
g37
I1
ss(S','
g81
S'I'
g31
tp1035
(dp1036
S','
I1
ss(g41
g66
g63
g220
tp1037
(dp1038
g42
I1
ss(S'I'
g53
g15
g112
tp1039
(dp1040
g57
I1
ss(S'I'
g73
g152
g140
tp1041
(dp1042
g32
I1
ss(g11
g186
g36
S'-'
tp1043
(dp1044
S'\x00'
I1
ss(g42
S'a'
g21
S'.'
tp1045
(dp1046
g34
I1
ss(g71
g65
S','
g38
tp1047
(dp1048
g12
I1
ss(g97
g26
g39
g282
tp1049
(dp1050
g147
I1
ss(S','
g72
S','
g217
tp1051
(dp1052
g44
I1
ss(g23
g24
g68
g35
tp1053
(dp1054
g9
I1
ss(g199
g62
g123
g48
tp1055
(dp1056
S'.'
I1
ss(S' '
g60
g45
S','
tp1057
(dp1058
g212
I1
ss(g227
g97
g26
g39
tp1059
(dp1060
g282
I1
ss(g112
g57
S','
g213
tp1061
(dp1062
g52
I1
ss(g62
g123
g48
S'.'
tp1063
(dp1064
S'\x00'
I1
ss(g70
S'"'
g11
g186
tp1065
(dp1066
g36
I1
ss(S','
g215
g8
g132
tp1067
(dp1068
S'I'
I1
ss(S'a'
g256
g71
g65
tp1069
(dp1070
S','
I1
ss(g123
g48
S'.'
S'\x00'
tp1071
(dp1072
S'\x00'
I1
ss(g73
g152
g140
g32
tp1073
(dp1074
g277
I1
ss(g206
g67
g54
S','
tp1075
(dp1076
g7
I1
ss(S','
g214
S'I'
g53
tp1077
(dp1078
g15
I1
ss(g24
g68
g35
g9
tp1079
(dp1080
g20
I1
ss(g32
g277
g80
g28
tp1081
(dp1082
S','
I1
ss(g68
g35
g9
g20
tp1083
(dp1084
S'a'
I1
ss(g65
S','
g38
g12
tp1085
(dp1086
S','
I1
ss(g77
g43
g176
g183
tp1087
(dp1088
S'.'
I1
ss(g9
g20
S'a'
g55
tp1089
(dp1090
S';'
I1
ss(S'a'
g21
S'.'
g34
tp1091
(dp1092
S'I'
I1
ss(S','
g23
g24
g68
tp1093
(dp1094
g35
I1
ss(g63
g220
g42
S'a'
tp1095
(dp1096
g21
I1
ss(g81
S'I'
g31
S','
tp1097
(dp1098
g23
I1
ss(g176
g183
S'.'
S'\x00'
tp1099
(dp1100
S'\x00'
I1
ss(S','
g216
g59
S'a'
tp1101
(dp1102
g256
I1
ss(S'a'
g69
g206
g67
tp1103
(dp1104
g54
I1
ss(g21
S'.'
g34
S'I'
tp1105
(dp1106
g73
I1
ss(S' '
g49
S','
g51
tp1107
(dp1108
g56
I1
ss(S','
g38
g12
S','
tp1109
(dp1110
g30
I1
ss(g45
S','
g212
g37
tp1111
(dp1112
g199
I1
ss(g19
g64
S'a'
g69
tp1113
(dp1114
g206
I1
ss(g58
g74
g46
g139
tp1115
(dp1116
g75
I1
ss(g72
S','
g217
g44
tp1117
(dp1118
g58
I1
ss(g50
g47
g29
g82
tp1119
(dp1120
g227
I1
ss(g282
g147
S'"'
g70
tp1121
(dp1122
S'"'
I1
ss(g83
g40
g33
S'.'
tp1123
(dp1124
S'\x00'
I1
ss(g7
S'I'
g41
g66
tp1125
(dp1126
g63
I1
ss(g43
g176
g183
S'.'
tp1127
(dp1128
S'\x00'
I1
ss(g54
S','
g7
S'I'
tp1129
(dp1130
g41
I1
ss(S'I'
g41
g66
g63
tp1131
(dp1132
g220
I1
ss(S','
g213
g52
g61
tp1133
(dp1134
S'.'
I1
ss(g64
S'a'
g69
g206
tp1135
(dp1136
g67
I1
ss(g56
S','
g72
S','
tp1137
(dp1138
g217
I1
ss(g80
g28
S','
g465
tp1139
(dp1140
S'I'
I1
ss(S' '
g83
g40
g33
tp1141
(dp1142
S'.'
I1
ss(S';'
g18
g89
g16
tp1143
(dp1144
S','
I1
ss(g140
g32
g277
g80
tp1145
(dp1146
g28
I1
ss(S','
g51
g56
S','
tp1147
(dp1148
g72
I1
ssatRp1149
(dp1150
S'order'
p1151
I4
sb.