ccopy_reg
_reconstructor
p1
(cmarkov
MarkovCorpus
p2
c__builtin__
list
p3
(lp4
(dp5
(t(dp6
S'all'
p7
I3
sS'consider'
p8
I1
sS'similarity'
p9
I1
sS'excellent'
p10
I1
sS'woods'
p11
I1
sS'follow'
p12
I1
sS' '
I6
sS'certainly'
p13
I1
sS'painters'
p14
I1
sS'to'
p15
I38
sS'does'
p16
I1
sS'Now'
p17
I1
sS'far'
p18
I1
sS'Socrates'
p19
I3
sS'every'
p20
I1
sS'gratification'
p21
I1
sS'telling'
p22
I1
sS'marvellous'
p23
I1
sS'grandfather'
p24
I2
sS'sang'
p25
I1
sS'quick'
p26
I1
sS'says'
p27
I1
sS'specially'
p28
I1
sS'ten'
p29
I1
sS'rivers'
p30
I1
sS'utter'
p31
I1
sS'further'
p32
I1
sS'hymn'
p33
I1
sS'what'
p34
I4
sS'appear'
p35
I1
sS'assistance'
p36
I1
sS'favour'
p37
I2
sS';'
I11
sS'told'
p38
I1
sS'satisfy'
p39
I1
sS'degree'
p40
I1
sS'men'
p41
I5
sS'Our'
p42
I1
sS'likenesses'
p43
I2
sS'great'
p44
I3
sS'suitably'
p45
I1
sS'receive'
p46
I1
sS'study'
p47
I1
sS'opinion'
p48
I1
sS'makes'
p49
I1
sS'criticism'
p50
I1
sS'hither'
p51
I1
sS'brought'
p52
I2
sS'ninety'
p53
I1
sS'Critias'
p54
I3
sS'Mnemosyne'
p55
I1
sS'eye'
p56
I1
sS'proceed'
p57
I2
sS'would'
p58
I2
sS'theme'
p59
I1
sS'next'
p60
I1
sS'doubt'
p61
I1
sS'tell'
p62
I1
sS'more'
p63
I5
sS'sort'
p64
I1
sS'excuse'
p65
I1
sS'ignorant'
p66
I1
sS'prizes'
p67
I1
sS'particular'
p68
I1
sS'given'
p69
I1
sS'must'
p70
I2
sS'me'
p71
I4
sS'inexperience'
p72
I1
sS'this'
p73
I3
sS'lapse'
p74
I1
sS'created'
p75
I1
sS'forbearance'
p76
I2
sS'Wherefore'
p77
I1
sS'can'
p78
I3
sS'praise'
p79
I1
sS'universe'
p80
I2
sS'making'
p81
I1
sS'my'
p82
I8
sS'heart'
p83
I1
sS'indulgence'
p84
I2
sS'accept'
p85
I2
sS'high'
p86
I1
sS'heard'
p87
I1
sS'imitation'
p88
I1
sS'want'
p89
I1
sS'sense'
p90
I1
sS'requirements'
p91
I1
sS'poetry'
p92
I1
sS'how'
p93
I1
sS'sacred'
p94
I1
sS'attend'
p95
I1
sS'may'
p96
I3
sS'mankind'
p97
I1
sS'such'
p98
I1
sS'law'
p99
I1
sS'revealed'
p100
I1
sS'man'
p101
I4
sS'a'
I9
sS'profited'
p102
I1
sS'All'
p103
I1
sS'attempt'
p104
I1
sS'remember'
p105
I1
sS'One'
p106
I1
sS'tale'
p107
I3
sS'so'
p108
I1
sS'suggest'
p109
I1
sS'representation'
p110
I1
sS'order'
p111
I1
sS'nearly'
p112
I1
sS'passages'
p113
I1
sS'move'
p114
I1
sS'satisfied'
p115
I2
sS'years'
p116
I1
sS'through'
p117
I1
sS'mentioned'
p118
I1
sS'smiling'
p119
I1
sS'its'
p120
I1
sS'troubles'
p121
I1
sS','
I95
sS'degrees'
p122
I1
sS'might'
p123
I1
sS'easier'
p124
I1
sS'then'
p125
I1
sS'them'
p126
I7
sS'greater'
p127
I2
sS'Youth'
p128
I1
sS'compelled'
p129
I1
sS'they'
p130
I1
sS'front'
p131
I1
sS'now'
p132
I2
sS'day'
p133
I3
sS'likeness'
p134
I1
sS'mode'
p135
I1
sS'found'
p136
I1
sS'begged'
p137
I1
sS'generation'
p138
I1
sS'Timaeus'
p139
I4
sS'Which'
p140
I1
sS'our'
p141
I7
sS'happen'
p142
I1
sS'special'
p143
I1
sS'out'
p144
I2
sS'shown'
p145
I1
sS'shadowing'
p146
I1
sS'entertainment'
p147
I1
sS'heavenly'
p148
I2
sS'forth'
p149
I1
sS'This'
p150
I2
sS'story'
p151
I2
sS'reason'
p152
I1
sS'besides'
p153
I1
sS'ask'
p154
I1
sS'poems'
p155
I3
sS'beginning'
p156
I1
sS'Apaturia'
p157
I1
sS'thing'
p158
I1
sS'mortal'
p159
I1
sS'first'
p160
I2
sS'recite'
p161
I1
sS'render'
p162
I1
sS'spoken'
p163
I1
sS'There'
p164
I1
sS'one'
p165
I2
sS'defects'
p166
I1
sS'another'
p167
I1
sS'city'
p168
I1
sS'little'
p169
I1
sS'deceptive'
p170
I1
sS'festival'
p171
I1
sS'factions'
p172
I1
sS'paint'
p173
I1
sS'too'
p174
I1
sS'passed'
p175
I1
sS'speaking'
p176
I1
sS'listen'
p177
I1
sS'that'
p178
I19
sS'completed'
p179
I1
sS'part'
p180
I1
sS'somewhat'
p181
I1
sS'than'
p182
I3
sS'analyze'
p183
I1
sS'goddesses'
p184
I1
sS'accordance'
p185
I1
sS'beg'
p186
I1
sS'Athenians'
p187
I2
sS'friend'
p188
I1
sS'were'
p189
I4
sS'indistinct'
p190
I1
sS'and'
p191
I49
sS'fashion'
p192
I1
sS'say'
p193
I2
sS'have'
p194
I11
sS'seem'
p195
I1
sS'aged'
p196
I1
sS'any'
p197
I6
sS'Then'
p198
I1
sS'Egyptian'
p199
I1
sS'-'
I3
sS'gravity'
p200
I1
sS'also'
p201
I1
sS'fitting'
p202
I1
sS'which'
p203
I13
sS'finding'
p204
I1
sS'theatre'
p205
I1
sS'though'
p206
I1
sS'approves'
p207
I1
sS'who'
p208
I8
sS'clearer'
p209
I1
sS'most'
p210
I1
sS'amongst'
p211
I1
sS'conceded'
p212
I1
sS'nothing'
p213
I1
sS'The'
p214
I1
sS'approved'
p215
I1
sS'deny'
p216
I1
sS'Egypt'
p217
I1
sS'request'
p218
I1
sS'attested'
p219
I1
sS'came'
p220
I1
sS'precise'
p221
I2
sS'show'
p222
I1
sS'able'
p223
I1
sS'noblest'
p224
I1
sS'bring'
p225
I1
sS'discourteous'
p226
I1
sS'earth'
p227
I1
sS'judges'
p228
I1
sS'knowledge'
p229
I1
sS'with'
p230
I7
sS'explain'
p231
I1
sS'should'
p232
I2
sS'only'
p233
I4
sS'going'
p234
I2
sS'hope'
p235
I1
sS'Homer'
p236
I1
sS'do'
p237
I1
sS'his'
p238
I7
sS'invoke'
p239
I1
sS'meanwhile'
p240
I1
sS'dependent'
p241
I1
sS'familiar'
p242
I1
sS'express'
p243
I1
sS'soon'
p244
I1
sS'Athenian'
p245
I1
sS'famous'
p246
I1
sS'cannot'
p247
I1
sS'rest'
p248
I1
sS'him'
p249
I2
sS'Hesiod'
p250
I1
sS'artist'
p251
I1
sS'Dropides'
p252
I1
sS'Registration'
p253
I1
sS'For'
p254
I2
sS'imitate'
p255
I1
sS'relative'
p256
I1
sS'see'
p257
I1
sS'are'
p258
I7
sS'subject'
p259
I1
sS'said'
p260
I7
sS'please'
p261
I1
sS'enough'
p262
I1
sS'knowing'
p263
I1
sS'we'
p264
I14
sS'nature'
p265
I1
sS'court'
p266
I1
sS'ignorance'
p267
I1
sS'exhortations'
p268
I1
sS'goddess'
p269
I1
sS'recovered'
p270
I1
sS'last'
p271
I1
sS'reverse'
p272
I1
sS'many'
p273
I2
sS'priests'
p274
I1
sS'according'
p275
I1
sS'recitations'
p276
I1
sS'receives'
p277
I1
sS'Yes'
p278
I1
sS'argue'
p279
I1
sS'considering'
p280
I1
sS'point'
p281
I1
sS'trust'
p282
I1
sS'speak'
p283
I6
sS'gratitude'
p284
I1
sS'been'
p285
I3
sS'.'
I26
sS'whom'
p286
I4
sS'poet'
p287
I1
sS'life'
p288
I1
sS'stationed'
p289
I1
sS'concerning'
p290
I1
sS'observe'
p291
I1
sS'fellow'
p292
I1
sS'those'
p293
I1
sS'And'
p294
I4
sS'examine'
p295
I1
sS'will'
p296
I12
sS'shall'
p297
I3
sS'country'
p298
I1
sS'situation'
p299
I1
sS'seven'
p300
I1
sS'is'
p301
I15
sS'it'
p302
I4
sS'in'
p303
I13
sS'ready'
p304
I1
sS'partner'
p305
I1
sS'if'
p306
I8
sS'different'
p307
I1
sS'grant'
p308
I1
sS'things'
p309
I4
sS'make'
p310
I4
sS'same'
p311
I3
sS'brightened'
p312
I1
sS'discourse'
p313
I2
sS'strange'
p314
I1
sS'several'
p315
I1
sS'difficult'
p316
I1
sS'I'
I27
sS'wisest'
p317
I2
sS'moment'
p318
I1
sS'judgment'
p319
I1
sS'destruction'
p320
I1
sS'nevertheless'
p321
I1
sS'well'
p322
I5
sS'It'
p323
I1
sS'thought'
p324
I1
sS'person'
p325
I1
sS'severe'
p326
I1
sS'spectator'
p327
I1
sS'very'
p328
I4
sS'the'
p329
I56
sS'bodies'
p330
I1
sS'less'
p331
I1
sS'gods'
p332
I3
sS'actions'
p333
I1
sS'not'
p334
I8
sS'human'
p335
I3
sS'yet'
p336
I1
sS'had'
p337
I4
sS'parents'
p338
I1
sS'easy'
p339
I1
sS'has'
p340
I5
sS'ought'
p341
I1
sS'gave'
p342
I1
sS'matters'
p343
I3
sS'know'
p344
I2
sS'world'
p345
I2
sS'like'
p346
I2
sS'lost'
p347
I1
sS'sages'
p348
I1
sS'oblivion'
p349
I2
sS'either'
p350
I1
sS'therein'
p351
I1
sS'because'
p352
I2
sS'old'
p353
I3
sS'creation'
p354
I1
sS'some'
p355
I2
sS'astronomer'
p356
I1
sS'dear'
p357
I1
sS'home'
p358
I1
sS'divine'
p359
I2
sS'Friend'
p360
I1
sS'for'
p361
I5
sS'rehearse'
p362
I1
sS'asking'
p363
I1
sS'Let'
p364
I1
sS'?'
I1
sS'He'
p365
I1
sS'be'
p366
I6
sS'poets'
p367
I3
sS'Solon'
p368
I6
sS'business'
p369
I1
sS'remembered'
p370
I1
sS'Amynander'
p371
I1
sS'although'
p372
I1
sS'worthy'
p373
I1
sS'from'
p374
I3
sS'by'
p375
I7
sS'hearing'
p376
I1
sS'on'
p377
I2
sS'about'
p378
I5
sS'of'
p379
I55
sS'citizens'
p380
I2
sS'recollect'
p381
I1
sS'recited'
p382
I1
sS'or'
p383
I5
sS'tribe'
p384
I1
sS'equally'
p385
I1
sS'own'
p386
I1
sS'into'
p387
I2
sS'down'
p388
I1
sS'Hermocrates'
p389
I1
sS'right'
p390
I1
sS'But'
p391
I3
sS'your'
p392
I1
sS'endeavours'
p393
I1
sS'her'
p394
I2
sS'custom'
p395
I1
sS'intention'
p396
I1
sS'encouragements'
p397
I1
sS':'
I2
sS'was'
p398
I7
sS'mountains'
p399
I1
sS'himself'
p400
I1
sS'form'
p401
I2
sS'but'
p402
I3
sS'boys'
p403
I1
sS'repeated'
p404
I1
sS'true'
p405
I2
sS'he'
p406
I10
sS'made'
p407
I2
sS'arranged'
p408
I1
sS'up'
p409
I1
sS'us'
p410
I6
sS'record'
p411
I1
sS'monument'
p412
I1
sS'called'
p413
I1
sS'stirring'
p414
I1
sS'gone'
p415
I1
sS'am'
p416
I4
sS'an'
p417
I3
sS'as'
p418
I9
sS'hearers'
p419
I1
sS'at'
p420
I8
sS'education'
p421
I1
sS'no'
p422
I1
sS'when'
p423
I2
sS'excuses'
p424
I1
sS'other'
p425
I3
sS'you'
p426
I16
sS'picture'
p427
I1
sS'meaning'
p428
I2
sS'important'
p429
I1
sS'painting'
p430
I1
sS'age'
p431
I1
sS'required'
p432
I1
sS'time'
p433
I4
sS'having'
p434
I1
sS'thenceforward'
p435
I1
ssa(dp436
(g420
tp437
(dp438
S'that'
p439
I1
sg376
I1
sS'which'
p440
I1
sg204
I1
sS'the'
p441
I3
sg160
I1
ss(g96
tp442
(dp443
g291
I1
sg35
I1
sS'have'
p444
I1
ss(g316
tp445
(dp446
S';'
I1
ss(g296
tp447
(dp448
S'be'
p449
I2
sg57
I1
sS','
I1
sg244
I1
sg225
I1
sg62
I1
sS'have'
p450
I1
sg12
I1
sS'now'
p451
I1
sg197
I1
sS'speak'
p452
I1
ss(g164
tp453
(dp454
S'were'
p455
I1
ss(g309
tp456
(dp457
S'is'
p458
I1
sS'.'
I1
sS'which'
p459
I1
sS'that'
p460
I1
ss(g302
tp461
(dp462
g321
I1
sS'to'
p463
I1
sS','
I2
ss(g16
tp464
(dp465
S'not'
p466
I1
ss(g142
tp467
(dp468
S'in'
p469
I1
ss(g334
tp470
(dp471
g415
I1
sg162
I1
sg347
I1
sS'that'
p472
I1
sg331
I1
sS'only'
p473
I1
sS'been'
p474
I1
sg295
I1
ss(g132
tp475
(dp476
g362
I1
sS','
I1
ss(g42
tp477
(dp478
g396
I1
ss(g406
tp479
(dp480
S'brought'
p481
I1
sg400
I1
sS'would'
p482
I1
sg324
I1
sS'said'
p483
I2
sg136
I1
sS'has'
p484
I1
sg220
I1
sg38
I1
ss(g252
tp485
(dp486
S','
I1
ss(g381
tp487
(dp488
S'and'
p489
I1
ss(g299
tp490
(dp491
S'will'
p492
I1
ss(g71
tp493
(dp494
S'in'
p495
I1
sS','
I1
sS'proceed'
p496
I1
sS'.'
I1
ss(S' '
tp497
(dp498
g294
I1
sS'I'
I2
sg364
I1
sg360
I1
sg198
I1
ss(g216
tp499
(dp500
S'that'
p501
I1
ss(g134
tp502
(dp503
S'to'
p504
I1
ss(g422
tp505
(dp506
S'more'
p507
I1
ss(g230
tp508
(dp509
S'a'
I1
sS'the'
p510
I3
sS'his'
p511
I1
sS'him'
p512
I1
sS'which'
p513
I1
ss(g238
tp514
(dp515
g288
I1
sg386
I1
sg419
I1
sg155
I1
sg99
I1
sg319
I1
sg143
I1
ss(g306
tp516
(dp517
S'we'
p518
I1
sS'Solon'
p519
I1
sS'I'
I2
sS'Timaeus'
p520
I2
sS'at'
p521
I1
sg130
I1
ss(g225
tp522
(dp523
S'them'
p524
I1
ss(g428
tp525
(dp526
g209
I1
sS','
I1
ss(g391
tp527
(dp528
S'I'
I1
sg423
I1
sg153
I1
ss(g93
tp529
(dp530
g66
I1
ss(g157
tp531
(dp532
S'which'
p533
I1
ss(g77
tp534
(dp535
S'if'
p536
I1
ss(g304
tp537
(dp538
S'to'
p539
I1
ss(g64
tp540
(dp541
S'of'
p542
I1
ss(S'\x00'
tp543
(dp544
S'\x00'
I24
ss(g363
tp545
(dp546
S','
I1
ss(g37
tp547
(dp548
S','
I2
ss(g112
tp549
(dp550
g53
I1
ss(g373
tp551
(dp552
S'of'
p553
I1
ss(g208
tp554
(dp555
g370
I1
sS'is'
p556
I3
sg16
I1
sS'are'
p557
I1
sg340
I1
sS'was'
p558
I1
ss(g347
tp559
(dp560
g83
I1
ss(g338
tp561
(dp562
g342
I1
ss(g399
tp563
(dp564
S','
I1
ss(g319
tp565
(dp566
S'Solon'
p567
I1
ss(g171
tp568
(dp569
S'.'
I1
ss(g27
tp570
(dp571
S'in'
p572
I1
ss(g310
tp573
(dp574
S'of'
p575
I1
sS'them'
p576
I1
sS'my'
p577
I1
sg302
I1
ss(g162
tp578
(dp579
g20
I1
ss(g87
tp580
(dp581
g374
I1
ss(g11
tp582
(dp583
S','
I1
ss(g278
tp584
(dp585
S','
I1
ss(g130
tp586
(dp587
S'were'
p588
I1
ss(g38
tp589
(dp590
S'the'
p591
I1
ss(g173
tp592
(dp593
S'the'
p594
I1
ss(g251
tp595
(dp596
S'who'
p597
I1
ss(g314
tp598
(dp599
S','
I1
ss(g165
tp600
(dp601
S'who'
p602
I1
sS'in'
p603
I1
ss(g288
tp604
(dp605
S','
I1
ss(g215
tp606
(dp607
S'likenesses'
p608
I1
ss(g143
tp609
(dp610
g47
I1
ss(g47
tp611
(dp612
S','
I1
ss(g418
tp613
(dp614
g236
I1
sS'I'
I1
sg246
I1
sS'Athenians'
p615
I1
sg426
I1
sS'if'
p616
I1
sg336
I1
sg406
I2
ss(S','
tp617
(dp618
g191
I22
sg352
I1
sS'is'
p619
I1
sg139
I1
sg85
I1
sS'as'
p620
I3
sS'at'
p621
I2
sS'have'
p622
I1
sS'in'
p623
I2
sS'our'
p624
I1
sg119
I1
sg306
I4
sg280
I1
sS'said'
p625
I1
sg206
I1
sS'should'
p626
I1
sg312
I1
sS'to'
p627
I2
sS'which'
p628
I2
sS'you'
p629
I3
sS'was'
p630
I1
sS'we'
p631
I3
sS'greater'
p632
I1
sS'that'
p633
I3
sS'I'
I7
sg207
I1
sS'who'
p634
I5
sS'but'
p635
I2
sg19
I3
sg112
I1
sg371
I1
sg156
I1
sS'by'
p636
I1
sS'he'
p637
I1
sS'on'
p638
I1
sS'great'
p639
I1
sg407
I1
sS'like'
p640
I1
sg252
I1
sg275
I1
sS'or'
p641
I1
sg350
I1
sg81
I1
sS'the'
p642
I1
sS'my'
p643
I1
sg434
I1
ss(g97
tp644
(dp645
S','
I1
ss(g378
tp646
(dp647
S'to'
p648
I2
sS'any'
p649
I1
sg29
I1
sg98
I1
ss(g163
tp650
(dp651
S'well'
p652
I1
ss(g235
tp653
(dp654
S'that'
p655
I1
ss(g301
tp656
(dp657
S'a'
I2
sS'what'
p658
I1
sS'said'
p659
I1
sg18
I1
sg432
I1
sg223
I1
sg13
I1
sS','
I1
sg241
I1
sS'our'
p660
I1
sS'the'
p661
I2
sg413
I1
sS'more'
p662
I1
ss(g147
tp663
(dp664
S'.'
I1
ss(g131
tp665
(dp666
S'of'
p667
I1
ss(g50
tp668
(dp669
S'of'
p670
I1
ss(g421
tp671
(dp672
S'which'
p673
I1
ss(g405
tp674
(dp675
S'and'
p676
I1
sS','
I1
ss(g336
tp677
(dp678
S';'
I1
ss(g380
tp679
(dp680
S','
I1
sS'.'
I1
ss(g254
tp681
(dp682
g296
I1
sS'if'
p683
I1
ss(g240
tp684
(dp685
S'I'
I1
ss(g152
tp686
(dp687
S'of'
p688
I1
ss(g226
tp689
(dp690
S','
I1
ss(g49
tp691
(dp692
S'us'
p693
I1
ss(g324
tp694
(dp695
g108
I1
ss(g298
tp696
(dp697
S'when'
p698
I1
ss(g115
tp699
(dp700
S'with'
p701
I2
ss(g244
tp702
(dp703
S'be'
p704
I1
ss(g236
tp705
(dp706
S'or'
p707
I1
ss(g79
tp708
(dp709
S'true'
p710
I1
ss(g384
tp711
(dp712
S','
I1
ss(g367
tp713
(dp714
S'.'
I1
sS','
I1
sS'were'
p715
I1
ss(g217
tp716
(dp717
S','
I1
ss(g10
tp718
(dp719
g421
I1
ss(g8
tp720
(dp721
S'the'
p722
I1
ss(g205
tp723
(dp724
S'.'
I1
ss(g343
tp725
(dp726
S','
I3
ss(g410
tp727
(dp728
g403
I1
sS','
I1
sS'.'
I1
sg25
I1
sg326
I1
sS'can'
p729
I1
ss(S'a'
tp730
(dp731
g64
I1
sg256
I1
sg44
I1
sg427
I1
sg33
I1
sg107
I1
sg325
I1
sg202
I1
sg357
I1
ss(g398
tp732
(dp733
S'a'
I1
sS'about'
p734
I1
sS'said'
p735
I1
sS'that'
p736
I1
sS'as'
p737
I1
sS'not'
p738
I1
sS'the'
p739
I1
ss(g383
tp740
(dp741
S'to'
p742
I1
sg250
I1
sg183
I1
sg127
I1
sS'any'
p743
I1
ss(g255
tp744
(dp745
S'the'
p746
I1
ss(g242
tp747
(dp748
g229
I1
ss(g387
tp749
(dp750
g349
I1
sg266
I1
ss(g55
tp751
(dp752
S';'
I1
ss(g358
tp753
(dp754
S','
I1
ss(g125
tp755
(dp756
S','
I1
ss(g412
tp757
(dp758
S'of'
p759
I1
ss(g197
tp760
(dp761
g40
I1
sS'of'
p762
I1
sg165
I1
sg287
I1
sg101
I1
sg259
I1
ss(g36
tp763
(dp764
S'to'
p765
I1
ss(g311
tp766
(dp767
g158
I1
sg383
I1
sg433
I1
ss(g88
tp768
(dp769
S'and'
p770
I1
ss(g374
tp771
(dp772
g217
I1
sS'oblivion'
p773
I1
sS'an'
p774
I1
ss(g185
tp775
(dp776
S'with'
p777
I1
ss(g118
tp778
(dp779
S','
I1
ss(g402
tp780
(dp781
g201
I1
sS'we'
p782
I1
sS'more'
p783
I1
ss(g174
tp784
(dp785
g154
I1
ss(g375
tp786
(dp787
g152
I1
sS'the'
p788
I2
sg368
I2
sS'any'
p789
I1
sS'us'
p790
I1
ss(g70
tp791
(dp792
g65
I1
sg310
I1
ss(g431
tp793
(dp794
S','
I1
ss(g362
tp795
(dp796
S'.'
I1
ss(g289
tp797
(dp798
g271
I1
ss(g210
tp799
(dp800
S'of'
p801
I1
ss(g222
tp802
(dp803
S'that'
p804
I1
ss(g260
tp805
(dp806
S','
I3
sg375
I2
sg178
I2
ss(g176
tp807
(dp808
S'I'
I1
ss(g160
tp809
(dp810
g260
I1
sS','
I1
ss(g312
tp811
(dp812
g409
I1
ss(g233
tp813
(dp814
S'be'
p815
I1
sS'the'
p816
I1
sg104
I1
sS','
I1
ss(g12
tp817
(dp818
g71
I1
ss(g364
tp819
(dp820
S'me'
p821
I1
ss(g214
tp822
(dp823
S'old'
p824
I1
ss(g350
tp825
(dp826
S'because'
p827
I1
ss(g221
tp828
(dp829
S'about'
p830
I1
sS'in'
p831
I1
ss(g427
tp832
(dp833
S'of'
p834
I1
ss(g261
tp835
(dp836
S'Critias'
p837
I1
ss(g178
tp838
(dp839
g263
I1
sS'we'
p840
I1
sS'Timaeus'
p841
I1
sS'I'
I3
sS'is'
p842
I2
sS'in'
p843
I1
sg355
I1
sS'to'
p844
I2
sS'are'
p845
I1
sS'time'
p846
I1
sS'you'
p847
I3
sg82
I1
sS'day'
p848
I1
ss(g20
tp849
(dp850
g281
I1
ss(g166
tp851
(dp852
S','
I1
ss(g153
tp853
(dp854
S'the'
p855
I1
ss(g303
tp856
(dp857
S'what'
p858
I1
sS'his'
p859
I2
sg185
I1
sg273
I1
sg313
I1
sg363
I1
sS'which'
p860
I1
sg68
I1
sg131
I1
sS'our'
p861
I1
sS'my'
p862
I1
sS'any'
p863
I1
ss(g13
tp864
(dp865
g405
I1
ss(g63
tp866
(dp867
S'precise'
p868
I1
sg424
I1
sg84
I2
sg316
I1
ss(g354
tp869
(dp870
S'of'
p871
I1
ss(g201
tp872
(dp873
S'the'
p874
I1
ss(g187
tp875
(dp876
S'and'
p877
I1
sS'whom'
p878
I1
ss(g335
tp879
(dp880
S'things'
p881
I2
sg401
I1
ss(g99
tp882
(dp883
S','
I1
ss(g74
tp884
(dp885
S'of'
p886
I1
ss(g369
tp887
(dp888
S'of'
p889
I1
ss(g218
tp890
(dp891
g96
I1
ss(g429
tp892
(dp893
g180
I1
ss(g48
tp894
(dp895
S'he'
p896
I1
ss(S'.'
tp897
(dp898
S'And'
p899
I3
sS'\x00'
I6
sg103
I1
sg254
I2
sg150
I2
sg164
I1
sg323
I1
sg391
I3
sg106
I1
sg77
I1
sg140
I1
sg42
I1
sg214
I1
sg17
I1
sg365
I1
ss(g344
tp900
(dp901
g93
I1
sS'that'
p902
I1
ss(g190
tp903
(dp904
S'and'
p905
I1
ss(g54
tp906
(dp907
S','
I3
ss(g123
tp908
(dp909
g366
I1
ss(g104
tp910
(dp911
S'to'
p912
I1
ss(g35
tp913
(dp914
S'to'
p915
I1
ss(g317
tp916
(dp917
S'of'
p918
I2
ss(g382
tp919
(dp920
S'by'
p921
I1
ss(g154
tp922
(dp923
S'the'
p924
I1
ss(g305
tp925
(dp926
S','
I1
ss(g7
tp927
(dp928
S'the'
p929
I2
sS'that'
p930
I1
ss(g273
tp931
(dp932
S'of'
p933
I1
sg113
I1
ss(g137
tp934
(dp935
S'that'
p936
I1
ss(g127
tp937
(dp938
S'forbearance'
p939
I1
sS'than'
p940
I1
ss(g14
tp941
(dp942
S'make'
p943
I1
ss(g337
tp944
(dp945
S'not'
p946
I2
sS'only'
p947
I1
sg179
I1
ss(g265
tp948
(dp949
S'of'
p950
I1
ss(g24
tp951
(dp952
S','
I2
ss(g258
tp953
(dp954
S'and'
p955
I1
sg289
I1
sg290
I1
sg115
I2
sg26
I1
sS'more'
p956
I1
ss(g82
tp957
(dp958
S'discourse'
p959
I1
sS'great'
p960
I1
sg218
I1
sg428
I2
sS'grandfather'
p961
I1
sg59
I1
sg48
I1
ss(g307
tp962
(dp963
g122
I1
ss(g370
tp964
(dp965
S'and'
p966
I1
ss(g220
tp967
(dp968
g358
I1
ss(g376
tp969
(dp970
S'this'
p971
I1
ss(g361
tp972
(dp973
g276
I1
sg34
I1
sS'the'
p974
I1
sS'Critias'
p975
I1
sS'all'
p976
I1
ss(g286
tp977
(dp978
S'you'
p979
I1
sS'some'
p980
I1
sS'the'
p981
I1
sS'he'
p982
I1
ss(g425
tp983
(dp984
g305
I1
sS'poets'
p985
I1
sS'matters'
p986
I1
ss(g195
tp987
(dp988
S'to'
p989
I1
ss(g263
tp990
(dp991
g213
I1
ss(g415
tp992
(dp993
S'out'
p994
I1
ss(g23
tp995
(dp996
g333
I1
ss(g28
tp997
(dp998
g239
I1
ss(g388
tp999
(dp1000
S'to'
p1001
I1
ss(g148
tp1002
(dp1003
S'things'
p1004
I1
sS','
I1
ss(g136
tp1005
(dp1006
g414
I1
ss(g279
tp1007
(dp1008
S'that'
p1009
I1
ss(g140
tp1010
(dp1011
g37
I1
ss(g44
tp1012
(dp1013
S'and'
p1014
I1
sg36
I1
sS'-'
I1
ss(g413
tp1015
(dp1016
S'the'
p1017
I1
ss(g341
tp1018
(dp1019
S'to'
p1020
I1
ss(g184
tp1021
(dp1022
g286
I1
ss(g390
tp1023
(dp1024
S'in'
p1025
I1
ss(g25
tp1026
(dp1027
S'the'
p1028
I1
ss(g161
tp1029
(dp1030
g262
I1
ss(g433
tp1031
(dp1032
S'and'
p1033
I1
sS'to'
p1034
I1
sg337
I1
sS'of'
p1035
I1
ss(g300
tp1036
(dp1037
g348
I1
ss(g285
tp1038
(dp1039
g129
I1
sS'as'
p1040
I1
sg219
I1
ss(g144
tp1041
(dp1042
S'of'
p1043
I1
sg166
I1
ss(g128
tp1044
(dp1045
S','
I1
ss(S'-'
tp1046
(dp1047
g345
I1
sS'citizens'
p1048
I1
sg24
I1
ss(g186
tp1049
(dp1050
S','
I1
ss(g419
tp1051
(dp1052
S'about'
p1053
I1
ss(g18
tp1054
(dp1055
g124
I1
ss(g91
tp1056
(dp1057
S'of'
p1058
I1
ss(g75
tp1059
(dp1060
S'of'
p1061
I1
ss(g349
tp1062
(dp1063
g117
I1
sS','
I1
ss(g61
tp1064
(dp1065
S'not'
p1066
I1
ss(g321
tp1067
(dp1068
S'.'
I1
ss(g192
tp1069
(dp1070
S'.'
I1
ss(g101
tp1071
(dp1072
S'of'
p1073
I1
sS';'
I2
sS','
I1
ss(g172
tp1074
(dp1075
S'and'
p1076
I1
ss(g92
tp1077
(dp1078
S'the'
p1079
I1
ss(g271
tp1080
(dp1081
S'and'
p1082
I1
ss(g41
tp1083
(dp1084
S'to'
p1085
I1
sS'is'
p1086
I1
sS':'
I1
sS','
I1
sS'whom'
p1087
I1
ss(g325
tp1088
(dp1089
g393
I1
ss(g262
tp1090
(dp1091
S'of'
p1092
I1
ss(g32
tp1093
(dp1094
S','
I1
ss(g397
tp1095
(dp1096
S'.'
I1
ss(g94
tp1097
(dp1098
g199
I1
ss(g237
tp1099
(dp1100
g334
I1
ss(g156
tp1101
(dp1102
S'with'
p1103
I1
ss(g385
tp1104
(dp1105
S'with'
p1106
I1
ss(g293
tp1107
(dp1108
S'very'
p1109
I1
ss(g84
tp1110
(dp1111
g182
I1
sg212
I1
ss(g206
tp1112
(dp1113
g314
I1
ss(g275
tp1114
(dp1115
S'to'
p1116
I1
ss(g53
tp1117
(dp1118
g116
I1
ss(g329
tp1119
(dp1120
g300
I1
sg138
I1
sg332
I3
sg354
I1
sg248
I1
sg30
I1
sg72
I1
sg11
I1
sg335
I1
sS'poems'
p1121
I2
sg227
I1
sg282
I1
sg307
I1
sg56
I1
sg309
I1
sg200
I1
sg311
I3
sg94
I1
sg172
I1
sS'men'
p1122
I1
sg369
I1
sg265
I1
sg317
I2
sg151
I1
sg245
I1
sg210
I1
sg318
I1
sg429
I1
sg224
I1
sg10
I1
sg91
I1
sg43
I1
sg253
I1
sS'day'
p1123
I1
sg320
I1
sg269
I1
sg272
I1
sS'world'
p1124
I1
sg251
I1
sg80
I2
sg274
I1
sg157
I1
sS'tale'
p1125
I2
sg327
I1
sS'time'
p1126
I1
sg299
I1
sg430
I1
sg111
I1
ss(g181
tp1127
(dp1128
S'and'
p1129
I1
ss(g102
tp1130
(dp1131
S'by'
p1132
I1
ss(g34
tp1133
(dp1134
S'I'
I3
sg398
I1
ss(S'I'
tp1135
(dp1136
g174
I1
sg58
I1
sg297
I2
sg328
I2
sg61
I1
sg235
I1
sg416
I4
sS','
I1
sS'accept'
p1137
I1
sg232
I1
sS'will'
p1138
I3
sS'may'
p1139
I1
sg247
I1
sg78
I2
sg89
I1
sg87
I1
sS'was'
p1140
I1
sg341
I1
sg70
I1
ss(g170
tp1141
(dp1142
g135
I1
ss(g15
tp1143
(dp1144
S'have'
p1145
I1
sg222
I1
sg255
I1
sg193
I2
sg54
I1
sg142
I1
sg195
I1
sg283
I4
sg95
I1
sg308
I1
sg109
I1
sS'make'
p1146
I1
sg261
I1
sg395
I1
sg173
I1
sS'other'
p1147
I1
sS'you'
p1148
I5
sS'be'
p1149
I1
sS'them'
p1150
I1
sS'form'
p1151
I1
sg41
I2
sS'a'
I1
sg249
I1
sS'me'
p1152
I1
sg46
I1
sg186
I1
sS'us'
p1153
I1
sS'the'
p1154
I1
sg231
I1
ss(g277
tp1155
(dp1156
g126
I1
ss(g126
tp1157
(dp1158
S'into'
p1159
I1
sg380
I1
sS','
I1
sS'as'
p1160
I1
sS';'
I2
sg149
I1
ss(g401
tp1161
(dp1162
S'we'
p1163
I1
sg215
I1
ss(g331
tp1164
(dp1165
S','
I1
ss(g257
tp1166
(dp1167
S'that'
p1168
I1
ss(g247
tp1169
(dp1170
g45
I1
ss(g81
tp1171
(dp1172
g422
I1
ss(g294
tp1173
(dp1174
S'I'
I1
sS'we'
p1175
I1
sg132
I1
sg372
I1
ss(g89
tp1176
(dp1177
S'to'
p1178
I1
ss(g149
tp1179
(dp1180
S'.'
I1
ss(g68
tp1181
(dp1182
S','
I1
ss(g57
tp1183
(dp1184
S'to'
p1185
I1
sS'.'
I1
ss(g411
tp1186
(dp1187
S'has'
p1188
I1
ss(g199
tp1189
(dp1190
g411
I1
ss(g267
tp1191
(dp1192
S'of'
p1193
I1
ss(g56
tp1194
(dp1195
S'of'
p1196
I1
ss(g175
tp1197
(dp1198
g387
I1
ss(g159
tp1199
(dp1200
S'and'
p1201
I1
ss(g392
tp1202
(dp1203
g268
I1
ss(g231
tp1204
(dp1205
S'to'
p1206
I1
ss(g432
tp1207
(dp1208
S'is'
p1209
I1
ss(g129
tp1210
(dp1211
S','
I1
ss(g340
tp1212
(dp1213
S'very'
p1214
I1
sS'to'
p1215
I1
sS'made'
p1216
I1
sg270
I1
sg75
I1
ss(g332
tp1217
(dp1218
S'and'
p1219
I1
sS'to'
p1220
I1
sS'.'
I1
ss(g177
tp1221
(dp1222
S','
I1
ss(g394
tp1223
(dp1224
S'favour'
p1225
I1
sg133
I1
ss(g234
tp1226
(dp1227
g388
I1
sg15
I1
ss(g133
tp1228
(dp1229
S'of'
p1230
I2
sS'was'
p1231
I1
ss(g46
tp1232
(dp1233
S'the'
p1234
I1
ss(g352
tp1235
(dp1236
S'my'
p1237
I1
sS'he'
p1238
I1
ss(g211
tp1239
(dp1240
S'us'
p1241
I1
ss(g40
tp1242
(dp1243
S'to'
p1244
I1
ss(g403
tp1245
(dp1246
S','
I1
ss(g322
tp1247
(dp1248
S'of'
p1249
I2
sg344
I1
sS'?'
I1
sg105
I1
ss(g395
tp1250
(dp1251
S','
I1
ss(g21
tp1252
(dp1253
g230
I1
ss(g167
tp1254
(dp1255
S'in'
p1256
I1
ss(g434
tp1257
(dp1258
g285
I1
ss(g223
tp1259
(dp1260
g303
I1
ss(S'?'
tp1261
(dp1262
S'I'
I1
ss(g146
tp1263
(dp1264
S'them'
p1265
I1
ss(g355
tp1266
(dp1267
S'will'
p1268
I1
sg76
I1
ss(g202
tp1269
(dp1270
g412
I1
ss(g122
tp1271
(dp1272
S'of'
p1273
I1
ss(g191
tp1274
(dp1275
g161
I1
sg385
I1
sg137
I1
sS'human'
p1276
I1
sg121
I1
sg114
I1
sS'one'
p1277
I1
sg52
I1
sg418
I1
sg226
I1
sS'have'
p1278
I1
sg32
I1
sg141
I1
sg120
I1
sS'if'
p1279
I1
sS'said'
p1280
I1
sg170
I1
sS'make'
p1281
I1
sS'had'
p1282
I2
sS'going'
p1283
I1
sg397
I1
sg148
I2
sS'has'
p1284
I1
sg125
I1
sg264
I1
sS'I'
I2
sg404
I1
sg31
I1
sg435
I1
sg373
I1
sg292
I1
sS'he'
p1285
I1
sS'a'
I2
sg184
I1
sg23
I1
sS'many'
p1286
I1
sg110
I1
sS'the'
p1287
I7
sS'at'
p1288
I1
ss(g100
tp1289
(dp1290
S'to'
p1291
I1
ss(g253
tp1292
(dp1293
S'of'
p1294
I1
ss(g379
tp1295
(dp1296
g192
I1
sg353
I1
sg9
I1
sS'it'
p1297
I1
sS'an'
p1298
I1
sg86
I1
sS'human'
p1299
I1
sg90
I1
sS'our'
p1300
I2
sS'divine'
p1301
I1
sS'any'
p1302
I1
sS'what'
p1303
I1
sg146
I1
sg171
I1
sS'whom'
p1304
I1
sg339
I1
sS'time'
p1305
I1
sS'you'
p1306
I1
sg315
I1
sg176
I1
sS'poets'
p1307
I1
sg238
I3
sS'Solon'
p1308
I2
sS'men'
p1309
I2
sg128
I1
sS'them'
p1310
I1
sg21
I1
sg22
I1
sS'man'
p1311
I1
sg73
I1
sg431
I1
sg410
I2
sg79
I1
sg159
I1
sS'the'
p1312
I10
sg190
I1
sS'my'
p1313
I2
sg330
I1
sg97
I1
ss(g69
tp1314
(dp1315
S'them'
p1316
I1
ss(g280
tp1317
(dp1318
S'that'
p1319
I1
ss(g124
tp1320
(dp1321
S'than'
p1322
I1
ss(g407
tp1323
(dp1324
S'the'
p1325
I1
sg92
I1
ss(g330
tp1326
(dp1327
g359
I1
ss(g179
tp1328
(dp1329
S'the'
p1330
I1
ss(g105
tp1331
(dp1332
S','
I1
ss(g114
tp1333
(dp1334
g351
I1
ss(g396
tp1335
(dp1336
S'is'
p1337
I1
ss(S':'
tp1338
(dp1339
g278
I1
sS'for'
p1340
I1
ss(g155
tp1341
(dp1342
S'of'
p1343
I2
sS';'
I1
ss(g83
tp1344
(dp1345
S'as'
p1346
I1
ss(g360
tp1347
(dp1348
g389
I1
ss(g52
tp1349
(dp1350
g51
I1
sS'with'
p1351
I1
ss(g151
tp1352
(dp1353
S'to'
p1354
I1
sS'which'
p1355
I1
ss(g281
tp1356
(dp1357
S'of'
p1358
I1
ss(g193
tp1359
(dp1360
S'.'
I2
ss(g180
tp1361
(dp1362
S'of'
p1363
I1
ss(g117
tp1364
(dp1365
g74
I1
ss(g328
tp1366
(dp1367
g169
I1
sg322
I2
sg187
I1
ss(g168
tp1368
(dp1369
S','
I1
ss(g229
tp1370
(dp1371
g49
I1
ss(g209
tp1372
(dp1373
S','
I1
ss(g266
tp1374
(dp1375
S'and'
p1376
I1
ss(g43
tp1377
(dp1378
S'of'
p1379
I1
sg203
I1
ss(g196
tp1380
(dp1381
S'man'
p1382
I1
ss(g339
tp1383
(dp1384
S'.'
I1
ss(g120
tp1385
(dp1386
g399
I1
ss(g400
tp1387
(dp1388
g27
I1
ss(g259
tp1389
(dp1390
S'is'
p1391
I1
ss(g245
tp1392
(dp1393
g168
I1
ss(g29
tp1394
(dp1395
S'.'
I1
ss(g371
tp1396
(dp1397
S','
I1
ss(g66
tp1398
(dp1399
S'we'
p1400
I1
ss(g414
tp1401
(dp1402
S'in'
p1403
I1
ss(g342
tp1404
(dp1405
g67
I1
ss(g107
tp1406
(dp1407
S'of'
p1408
I1
sS'which'
p1409
I2
ss(g80
tp1410
(dp1411
S'his'
p1412
I1
sS','
I1
ss(g30
tp1413
(dp1414
S','
I1
ss(g200
tp1415
(dp1416
S'of'
p1417
I1
ss(g110
tp1418
(dp1419
S'.'
I1
ss(S';'
tp1420
(dp1421
S'and'
p1422
I3
sg7
I1
sS'for'
p1423
I2
sg240
I1
sS'we'
p1424
I1
sg402
I1
sg60
I1
sS'the'
p1425
I1
ss(g72
tp1426
(dp1427
S'and'
p1428
I1
ss(g250
tp1429
(dp1430
S','
I1
ss(g188
tp1431
(dp1432
S'of'
p1433
I1
ss(g213
tp1434
(dp1435
g221
I1
ss(g224
tp1436
(dp1437
S'of'
p1438
I1
ss(g141
tp1439
(dp1440
g50
I1
sg384
I1
sg147
I1
sg242
I1
sg284
I1
sg425
I1
sg338
I1
ss(g351
tp1441
(dp1442
S','
I1
ss(g282
tp1443
(dp1444
S','
I1
ss(g203
tp1445
(dp1446
S'we'
p1447
I1
sS'I'
I1
sS'is'
p1448
I1
sS','
I2
sg14
I1
sS'at'
p1449
I1
sS'have'
p1450
I1
sS'the'
p1451
I1
sS'has'
p1452
I1
sS'you'
p1453
I1
sS'he'
p1454
I2
ss(g189
tp1455
(dp1456
S'of'
p1457
I1
sg234
I1
sg293
I1
sg382
I1
ss(g51
tp1458
(dp1459
S'by'
p1460
I1
ss(g19
tp1461
(dp1462
S','
I3
ss(g145
tp1463
(dp1464
S'to'
p1465
I1
ss(g62
tp1466
(dp1467
g417
I1
ss(g272
tp1468
(dp1469
S'of'
p1470
I1
ss(g284
tp1471
(dp1472
S'to'
p1473
I1
ss(g59
tp1474
(dp1475
g301
I1
ss(g326
tp1476
(dp1477
g228
I1
ss(g98
tp1478
(dp1479
S'matters'
p1480
I1
ss(g116
tp1481
(dp1482
S'of'
p1483
I1
ss(g73
tp1484
(dp1485
S'and'
p1486
I1
sS'her'
p1487
I1
sg205
I1
ss(g386
tp1488
(dp1489
g298
I1
ss(g368
tp1490
(dp1491
S'had'
p1492
I1
sS'was'
p1493
I1
sS','
I4
ss(g227
tp1494
(dp1495
S'and'
p1496
I1
ss(g9
tp1497
(dp1498
S'.'
I1
ss(g356
tp1499
(dp1500
g211
I1
ss(g204
tp1501
(dp1502
g144
I1
ss(g194
tp1503
(dp1504
g102
I1
sg69
I1
sg408
I1
sg167
I1
sg163
I1
sS'been'
p1505
I1
sg118
I1
sg175
I1
sS'not'
p1506
I2
sg63
I1
ss(g103
tp1507
(dp1508
S'that'
p1509
I1
ss(g243
tp1510
(dp1511
S'my'
p1512
I1
ss(g76
tp1513
(dp1514
g123
I1
sg361
I1
ss(g308
tp1515
(dp1516
S'.'
I1
ss(g85
tp1517
(dp1518
g329
I1
sg392
I1
ss(g31
tp1519
(dp1520
g267
I1
ss(g135
tp1521
(dp1522
S'of'
p1523
I1
ss(g359
tp1524
(dp1525
S'and'
p1526
I2
ss(g318
tp1527
(dp1528
S'of'
p1529
I1
ss(g17
tp1530
(dp1531
S'the'
p1532
I1
ss(g372
tp1533
(dp1534
S'I'
I1
ss(g430
tp1535
(dp1536
S';'
I1
ss(g90
tp1537
(dp1538
g216
I1
ss(g228
tp1539
(dp1540
S'of'
p1541
I1
ss(g435
tp1542
(dp1543
S'we'
p1544
I1
ss(g207
tp1545
(dp1546
S'.'
I1
ss(g346
tp1547
(dp1548
S'to'
p1549
I1
sS'other'
p1550
I1
ss(g276
tp1551
(dp1552
S','
I1
ss(g139
tp1553
(dp1554
S','
I4
ss(g58
tp1555
(dp1556
g28
I1
sS'have'
p1557
I1
ss(g424
tp1558
(dp1559
S','
I1
ss(g45
tp1560
(dp1561
g243
I1
ss(g108
tp1562
(dp1563
S'or'
p1564
I1
ss(g417
tp1565
(dp1566
g356
I1
sg196
I1
sS'old'
p1567
I1
ss(g119
tp1568
(dp1569
S':'
I1
ss(g249
tp1570
(dp1571
g208
I1
sS'from'
p1572
I1
ss(g393
tp1573
(dp1574
S'to'
p1575
I1
ss(g109
tp1576
(dp1577
S'to'
p1578
I1
ss(g86
tp1579
(dp1580
g343
I1
ss(g65
tp1581
(dp1582
S'me'
p1583
I1
ss(g287
tp1584
(dp1585
S'.'
I1
ss(g348
tp1586
(dp1587
S'.'
I1
ss(g60
tp1588
(dp1589
S','
I1
ss(g426
tp1590
(dp1591
S','
I7
sS'will'
p1592
I2
sg420
I1
sg194
I3
sg189
I1
sS';'
I1
sS'must'
p1593
I1
ss(g198
tp1594
(dp1595
g177
I1
ss(g111
tp1596
(dp1597
S'in'
p1598
I1
ss(g158
tp1599
(dp1600
S'to'
p1601
I1
ss(g313
tp1602
(dp1603
S';'
I1
sS'is'
p1604
I1
ss(g353
tp1605
(dp1606
S'-'
I1
sS','
I1
sS'man'
p1607
I1
ss(g283
tp1608
(dp1609
g379
I3
sS'well'
p1610
I2
sS'first'
p1611
I1
ss(g268
tp1612
(dp1613
S'and'
p1614
I1
ss(g121
tp1615
(dp1616
S'which'
p1617
I1
ss(g404
tp1618
(dp1619
S'it'
p1620
I1
ss(g323
tp1621
(dp1622
S'will'
p1623
I1
ss(g26
tp1624
(dp1625
S'at'
p1626
I1
ss(g315
tp1627
(dp1628
g367
I1
ss(g377
tp1629
(dp1630
S'this'
p1631
I1
sg394
I1
ss(g150
tp1632
(dp1633
S'is'
p1634
I1
sS'we'
p1635
I1
ss(g365
tp1636
(dp1637
S'was'
p1638
I1
ss(g290
tp1639
(dp1640
S'the'
p1641
I1
ss(g39
tp1642
(dp1643
S'the'
p1644
I1
ss(g327
tp1645
(dp1646
g277
I1
ss(g219
tp1647
(dp1648
S'by'
p1649
I1
ss(g113
tp1650
(dp1651
S'of'
p1652
I1
ss(g333
tp1653
(dp1654
S'of'
p1655
I1
ss(g239
tp1656
(dp1657
g55
I1
ss(g291
tp1658
(dp1659
S'the'
p1660
I1
ss(g269
tp1661
(dp1662
S','
I1
ss(g408
tp1663
(dp1664
S'our'
p1665
I1
ss(g295
tp1666
(dp1667
S'or'
p1668
I1
ss(g22
tp1669
(dp1670
S'it'
p1671
I1
ss(g270
tp1672
(dp1673
S'from'
p1674
I1
ss(g78
tp1675
(dp1676
g233
I2
sg381
I1
ss(g366
tp1677
(dp1678
S'a'
I1
sg145
I1
sg88
I1
sg181
I1
sg304
I1
sg100
I1
ss(g274
tp1679
(dp1680
S'and'
p1681
I1
ss(g423
tp1682
(dp1683
S'a'
I1
sS'he'
p1684
I1
ss(g409
tp1685
(dp1686
S'at'
p1687
I1
ss(g106
tp1688
(dp1689
S'of'
p1690
I1
ss(g33
tp1691
(dp1692
S'of'
p1693
I1
ss(g183
tp1694
(dp1695
S'the'
p1696
I1
ss(g169
tp1697
(dp1698
g134
I1
ss(g241
tp1699
(dp1700
g377
I1
ss(g357
tp1701
(dp1702
g188
I1
ss(g345
tp1703
(dp1704
S'and'
p1705
I1
sS'story'
p1706
I1
ss(g264
tp1707
(dp1708
g237
I1
sg8
I1
sS'shall'
p1709
I1
sS'may'
p1710
I1
sS'will'
p1711
I3
sS'know'
p1712
I1
sS'have'
p1713
I1
sg258
I5
ss(g182
tp1714
(dp1715
S'to'
p1716
I1
sS'you'
p1717
I1
sS'all'
p1718
I1
ss(g320
tp1719
(dp1720
S'of'
p1721
I1
ss(g256
tp1722
(dp1723
S'and'
p1724
I1
ss(g95
tp1725
(dp1726
S'to'
p1727
I1
ss(g246
tp1728
(dp1729
S'as'
p1730
I1
ss(g389
tp1731
(dp1732
S','
I1
ss(g232
tp1733
(dp1734
g346
I1
sS'speak'
p1735
I1
ss(g292
tp1736
(dp1737
S'-'
I1
ss(g67
tp1738
(dp1739
S'for'
p1740
I1
ss(g212
tp1741
(dp1742
S'to'
p1743
I1
ss(g138
tp1744
(dp1745
S'of'
p1746
I1
ss(g297
tp1747
(dp1748
g39
I1
sg257
I1
sg279
I1
ss(g416
tp1749
(dp1750
S'to'
p1751
I1
sg378
I2
sg390
I1
ss(g248
tp1752
(dp1753
S'.'
I1
ssa(dp1754
(S'the'
p1755
g30
tp1756
(dp1757
S','
I1
ss(S','
g628
tp1758
(dp1759
g1449
I1
sg1450
I1
ss(g432
g1209
tp1760
(dp1761
S'a'
I1
ss(g107
g1409
tp1762
(dp1763
S','
I1
sg1454
I1
ss(g328
g322
tp1764
(dp1765
g344
I1
sg105
I1
ss(g21
g230
tp1766
(dp1767
g513
I1
ss(S'you'
p1768
g194
tp1769
(dp1770
g163
I1
sg118
I1
sg69
I1
ss(S'the'
p1771
g320
tp1772
(dp1773
g1721
I1
ss(g1710
g291
tp1774
(dp1775
g1660
I1
ss(S','
g206
tp1776
(dp1777
g314
I1
ss(g1363
g1313
tp1778
(dp1779
g959
I1
sg960
I1
ss(g1034
g186
tp1780
(dp1781
S','
I1
ss(g1148
S','
tp1782
(dp1783
S'and'
p1784
I2
sg352
I1
sS'I'
I1
sg634
I1
sS'Socrates'
p1785
I1
sg622
I1
ss(g254
g296
tp1786
(dp1787
g197
I1
ss(g151
g1354
tp1788
(dp1789
g54
I1
ss(g218
g96
tp1790
(dp1791
g35
I1
ss(g1635
g1711
tp1792
(dp1793
g225
I1
sg451
I1
sg452
I1
ss(S'the'
p1794
g210
tp1795
(dp1796
g801
I1
ss(g375
g789
tp1797
(dp1798
g762
I1
ss(g877
g292
tp1799
(dp1800
S'-'
I1
ss(g146
g1265
tp1801
(dp1802
g149
I1
ss(g1557
g1505
tp1803
(dp1804
g1040
I1
ss(g628
g1450
tp1805
(dp1806
g175
I1
ss(g1040
g246
tp1807
(dp1808
g1730
I1
ss(g1382
S';'
tp1809
(dp1810
S'for'
p1811
I1
sg60
I1
ss(g16
g466
tp1812
(dp1813
g162
I1
ss(S'I'
g235
tp1814
(dp1815
g655
I1
ss(g293
g1109
tp1816
(dp1817
g187
I1
ss(g704
g100
tp1818
(dp1819
g1291
I1
ss(S'and'
p1820
g137
tp1821
(dp1822
g936
I1
ss(g417
g1567
tp1823
(dp1824
S'-'
I1
ss(g10
g421
tp1825
(dp1826
g673
I1
ss(g95
g1727
tp1827
(dp1828
g1147
I1
ss(g1496
g120
tp1829
(dp1830
g399
I1
ss(g166
S','
tp1831
(dp1832
S'and'
p1833
I1
ss(S'the'
p1834
g1124
tp1835
(dp1836
g1705
I1
ss(g643
g961
tp1837
(dp1838
S','
I1
ss(g460
g845
tp1839
(dp1840
g955
I1
ss(g1310
g1160
tp1841
(dp1842
g615
I1
ss(g28
g239
tp1843
(dp1844
g55
I1
ss(g338
g342
tp1845
(dp1846
g67
I1
ss(g234
g15
tp1847
(dp1848
g283
I1
ss(g1073
g90
tp1849
(dp1850
g216
I1
ss(g1483
g431
tp1851
(dp1852
S','
I1
ss(g843
g859
tp1853
(dp1854
g386
I1
sg319
I1
ss(S'a'
g107
tp1855
(dp1856
g1409
I1
ss(g1048
S'.'
tp1857
(dp1858
S'\x00'
I1
ss(g1337
S','
tp1859
(dp1860
S'that'
p1861
I1
ss(S','
g19
tp1862
(dp1863
S','
I3
ss(g391
S'I'
tp1864
(dp1865
g232
I1
ss(g174
g154
tp1866
(dp1867
g924
I1
ss(g1281
g576
tp1868
(dp1869
g380
I1
ss(g1138
g57
tp1870
(dp1871
S'.'
I1
ss(g334
g295
tp1872
(dp1873
g1668
I1
ss(g252
S','
tp1874
(dp1875
g620
I1
ss(g34
S'I'
tp1876
(dp1877
g416
I2
sg89
I1
ss(g280
g1319
tp1878
(dp1879
S'to'
p1880
I1
ss(g1575
g173
tp1881
(dp1882
g594
I1
ss(g1285
g38
tp1883
(dp1884
g591
I1
ss(g164
g455
tp1885
(dp1886
g1457
I1
ss(g1346
g336
tp1887
(dp1888
S';'
I1
ss(g1509
g842
tp1889
(dp1890
g659
I1
sg432
I1
ss(g980
g1268
tp1891
(dp1892
g450
I1
ss(g33
g1693
tp1893
(dp1894
g79
I1
ss(g260
g178
tp1895
(dp1896
g847
I1
sg843
I1
ss(g270
g1674
tp1897
(dp1898
g773
I1
ss(g103
g1509
tp1899
(dp1900
g842
I1
ss(g1313
g959
tp1901
(dp1902
g1604
I1
ss(g1620
g463
tp1903
(dp1904
g1153
I1
ss(g981
g94
tp1905
(dp1906
g199
I1
ss(g1693
g79
tp1907
(dp1908
g710
I1
ss(S'us'
p1909
g25
tp1910
(dp1911
g1028
I1
ss(S'the'
p1912
g80
tp1913
(dp1914
g1412
I1
sS','
I1
ss(g504
g1150
tp1915
(dp1916
S';'
I1
ss(S';'
g240
tp1917
(dp1918
S'I'
I1
ss(g268
g1614
tp1919
(dp1920
g397
I1
ss(g208
g340
tp1921
(dp1922
g1215
I1
ss(g318
g1529
tp1923
(dp1924
g176
I1
ss(S'he'
p1925
g136
tp1926
(dp1927
g414
I1
ss(g1592
g12
tp1928
(dp1929
g71
I1
ss(g629
g1592
tp1930
(dp1931
g12
I1
sg449
I1
ss(g412
g759
tp1932
(dp1933
g1300
I1
ss(g223
g303
tp1934
(dp1935
g863
I1
ss(g202
g412
tp1936
(dp1937
g759
I1
ss(g244
g704
tp1938
(dp1939
g100
I1
ss(S'gods'
p1940
g1219
tp1941
(dp1942
g184
I1
ss(g130
g588
tp1943
(dp1944
g293
I1
ss(g1297
S','
tp1945
(dp1946
S'and'
p1947
I1
sg630
I1
ss(g881
S'.'
tp1948
(dp1949
g77
I1
ss(S'the'
p1950
g10
tp1951
(dp1952
g421
I1
ss(S';'
g1425
tp1953
(dp1954
g200
I1
ss(g179
g1330
tp1955
(dp1956
g1125
I1
ss(g1665
g147
tp1957
(dp1958
S'.'
I1
ss(g31
g267
tp1959
(dp1960
g1193
I1
ss(g354
g871
tp1961
(dp1962
g1311
I1
ss(g143
g47
tp1963
(dp1964
S','
I1
ss(g739
g317
tp1965
(dp1966
g918
I2
ss(g290
g1641
tp1967
(dp1968
S'gods'
p1969
I1
ss(g286
g979
tp1970
(dp1971
S'have'
p1972
I1
ss(S'the'
p1973
g245
tp1974
(dp1975
g168
I1
ss(g619
g13
tp1976
(dp1977
g405
I1
ss(g1145
g63
tp1978
(dp1979
g84
I1
ss(g204
g144
tp1980
(dp1981
g166
I1
ss(S'am'
p1982
g1751
tp1983
(dp1984
g46
I1
ss(g1379
g1299
tp1985
(dp1986
S'things'
p1987
I1
ss(S'a'
g33
tp1988
(dp1989
g1693
I1
ss(g39
g1644
tp1990
(dp1991
g91
I1
ss(g623
g862
tp1992
(dp1993
g48
I1
ss(g1470
g339
tp1994
(dp1995
S'.'
I1
ss(g81
g422
tp1996
(dp1997
g507
I1
ss(g159
g1201
tp1998
(dp1999
g1276
I1
ss(S'that'
p2000
g843
tp2001
(dp2002
g859
I1
ss(g288
S','
tp2003
(dp2004
S'and'
p2005
I1
ss(g340
g1215
tp2006
(dp2007
S'speak'
p2008
I1
ss(S'I'
g297
tp2009
(dp2010
g39
I1
sg279
I1
ss(g846
g337
tp2011
(dp2012
g946
I1
ss(g160
g260
tp2013
(dp2014
g178
I1
ss(g144
g166
tp2015
(dp2016
S','
I1
ss(S'the'
p2017
g11
tp2018
(dp2019
S','
I1
ss(S'the'
p2020
g299
tp2021
(dp2022
g492
I1
ss(g155
S';'
tp2023
(dp2024
S'and'
p2025
I1
ss(S'meaning'
p2026
S','
tp2027
(dp2028
S'you'
p2029
I1
ss(g62
g417
tp2030
(dp2031
g1567
I1
ss(g304
g539
tp2032
(dp2033
g308
I1
ss(S','
g81
tp2034
(dp2035
g422
I1
ss(g627
S'a'
tp2036
(dp2037
g107
I1
ss(g670
g159
tp2038
(dp2039
g1201
I1
ss(g99
S','
tp2040
(dp2041
S'we'
p2042
I1
ss(S'a'
g325
tp2043
(dp2044
g393
I1
ss(g321
S'.'
tp2045
(dp2046
g254
I1
ss(g1638
S'a'
tp2047
(dp2048
g256
I1
ss(S','
g280
tp2049
(dp2050
g1319
I1
ss(g441
g318
tp2051
(dp2052
g1529
I1
ss(g648
g193
tp2053
(dp2054
S'.'
I2
ss(S'same'
p2055
g158
tp2056
(dp2057
g1601
I1
ss(S'his'
p2058
g155
tp2059
(dp2060
S';'
I1
ss(g801
g1298
tp2061
(dp2062
g356
I1
ss(g660
g425
tp2063
(dp2064
g305
I1
ss(g640
g1550
tp2065
(dp2066
g985
I1
ss(g367
g715
tp2067
(dp2068
g382
I1
ss(g185
g777
tp2069
(dp2070
S'the'
p2071
I1
ss(S'I'
g247
tp2072
(dp2073
g45
I1
ss(g860
g1447
tp2074
(dp2075
g1713
I1
ss(g355
g76
tp2076
(dp2077
g123
I1
ss(g79
g710
tp2078
(dp2079
g676
I1
ss(g1601
g142
tp2080
(dp2081
g469
I1
ss(g1298
g356
tp2082
(dp2083
g211
I1
ss(S'.'
g391
tp2084
(dp2085
S'I'
I1
sg423
I1
sg153
I1
ss(g128
S','
tp2086
(dp2087
S'at'
p2088
I1
ss(S','
g191
tp2089
(dp2090
S'a'
I1
sg264
I1
sg137
I1
sg435
I1
sS'I'
I1
sg1286
I1
sg1282
I2
sg385
I1
sg1277
I1
sg418
I1
sg1288
I1
sg32
I1
sg141
I1
sg1287
I6
sg1284
I1
sg1279
I1
ss(S','
g640
tp2091
(dp2092
g1550
I1
ss(g189
g234
tp2093
(dp2094
g15
I1
ss(S'but'
p2095
g201
tp2096
(dp2097
g874
I1
ss(g283
g379
tp2098
(dp2099
g86
I1
sg1310
I1
sg1297
I1
ss(g263
g213
tp2100
(dp2101
g221
I1
ss(S','
g642
tp2102
(dp2103
g111
I1
ss(g1283
g388
tp2104
(dp2105
g1001
I1
ss(g861
g50
tp2106
(dp2107
g670
I1
ss(g1492
g947
tp2108
(dp2109
S','
I1
ss(g376
g971
tp2110
(dp2111
g1486
I1
ss(g2025
g1285
tp2112
(dp2113
g38
I1
ss(g45
g243
tp2114
(dp2115
g1512
I1
ss(g40
g1244
tp2116
(dp2117
g255
I1
ss(S'same'
p2118
g433
tp2119
(dp2120
g1034
I1
ss(g141
g242
tp2121
(dp2122
g229
I1
ss(g976
g929
tp2123
(dp2124
g429
I1
sg248
I1
ss(g1309
g1085
tp2125
(dp2126
S'men'
p2127
I1
ss(g762
g410
tp2128
(dp2129
g25
I1
sg729
I1
ss(g742
g261
tp2130
(dp2131
g837
I1
ss(g357
g188
tp2132
(dp2133
g1433
I1
ss(S'and'
p2134
g32
tp2135
(dp2136
S','
I1
ss(g324
g108
tp2137
(dp2138
g1564
I1
ss(g556
g223
tp2139
(dp2140
g303
I1
ss(g1972
g118
tp2141
(dp2142
S','
I1
ss(S'.'
g164
tp2143
(dp2144
g455
I1
ss(g20
g281
tp2145
(dp2146
g1358
I1
ss(g788
g274
tp2147
(dp2148
g1681
I1
ss(g1241
S','
tp2149
(dp2150
S'and'
p2151
I1
ss(g363
S','
tp2152
(dp2153
S'I'
I1
ss(g616
g130
tp2154
(dp2155
g588
I1
ss(g1712
g93
tp2156
(dp2157
g66
I1
ss(S' '
g294
tp2158
(dp2159
S'I'
I1
ss(g1302
g165
tp2160
(dp2161
g602
I1
ss(g956
g868
tp2162
(dp2163
g831
I1
ss(S','
g139
tp2164
(dp2165
S','
I1
ss(S'a'
g64
tp2166
(dp2167
g542
I1
ss(g320
g1721
tp2168
(dp2169
g97
I1
ss(g770
g110
tp2170
(dp2171
S'.'
I1
ss(g38
g591
tp2172
(dp2173
g151
I1
ss(g317
g918
tp2174
(dp2175
S'the'
p2176
I1
sS'men'
p2177
I1
ss(S'who'
p2178
g558
tp2179
(dp2180
g739
I1
ss(g15
g283
tp2181
(dp2182
g379
I2
sg1610
I2
ss(g484
g75
tp2183
(dp2184
g1061
I1
ss(g1611
S','
tp2185
(dp2186
g156
I1
ss(g51
g1460
tp2187
(dp2188
g368
I1
ss(g372
S'I'
tp2189
(dp2190
g328
I1
ss(g765
g249
tp2191
(dp2192
g208
I1
ss(g315
g367
tp2193
(dp2194
g715
I1
ss(g344
g902
tp2195
(dp2196
g82
I1
ss(g158
g1601
tp2197
(dp2198
g142
I1
ss(S'only'
p2199
g815
tp2200
(dp2201
g88
I1
ss(g271
g1082
tp2202
(dp2203
g1278
I1
ss(S'will'
p2204
g225
tp2205
(dp2206
g524
I1
ss(g24
S','
tp2207
(dp2208
S'who'
p2209
I1
sg252
I1
ss(S'-'
g1048
tp2210
(dp2211
S'.'
I1
ss(g212
g1743
tp2212
(dp2213
g1152
I1
ss(S','
g629
tp2214
(dp2215
g1592
I1
sS','
I1
sg1593
I1
ss(S'we'
p2216
g237
tp2217
(dp2218
g334
I1
ss(g473
g816
tp2219
(dp2220
S'wisest'
p2221
I1
ss(S','
g627
tp2222
(dp2223
S'a'
I1
sg95
I1
ss(g1300
g284
tp2224
(dp2225
g1473
I1
ss(S','
g633
tp2226
(dp2227
g263
I1
sS'I'
I1
sg841
I1
ss(S','
g636
tp2228
(dp2229
g152
I1
ss(g196
g1382
tp2230
(dp2231
S';'
I1
ss(g267
g1193
tp2232
(dp2233
g238
I1
ss(g1123
g1231
tp2234
(dp2235
g736
I1
ss(g1668
g183
tp2236
(dp2237
g1696
I1
ss(g84
g182
tp2238
(dp2239
g1717
I1
ss(g1188
g270
tp2240
(dp2241
g1674
I1
ss(g54
S','
tp2242
(dp2243
g625
I1
sg643
I1
sg621
I1
ss(g649
g259
tp2244
(dp2245
g1391
I1
ss(S'will'
p2246
g62
tp2247
(dp2248
g417
I1
ss(g349
g117
tp2249
(dp2250
g74
I1
ss(S'tale'
p2251
g1408
tp2252
(dp2253
S'Solon'
p2254
I1
ss(g1423
g976
tp2255
(dp2256
g929
I1
ss(g248
S'.'
tp2257
(dp2258
S'This'
p2259
I1
ss(g109
g1578
tp2260
(dp2261
S'you'
p2262
I1
ss(g1730
g236
tp2263
(dp2264
g707
I1
ss(S','
g634
tp2265
(dp2266
g370
I1
sS'is'
p2267
I2
sg558
I1
sg557
I1
ss(S'.'
g17
tp2268
(dp2269
g1532
I1
ss(g834
g1301
tp2270
(dp2271
S'and'
p2272
I1
ss(g88
g770
tp2273
(dp2274
g110
I1
ss(g1532
g1123
tp2275
(dp2276
g1231
I1
ss(S':'
g1340
tp2277
(dp2278
g974
I1
ss(S'not'
p2279
g474
tp2280
(dp2281
g129
I1
ss(S','
g630
tp2282
(dp2283
g737
I1
ss(S'.'
g214
tp2284
(dp2285
g824
I1
ss(g659
g375
tp2286
(dp2287
g788
I1
sg789
I1
ss(g64
g542
tp2288
(dp2289
g190
I1
ss(g91
g1058
tp2290
(dp2291
g73
I1
ss(g229
g49
tp2292
(dp2293
g693
I1
ss(S'I'
g1138
tp2294
(dp2295
g62
I1
sg57
I1
sS','
I1
ss(S'which'
p2296
g1449
tp2297
(dp2298
g439
I1
ss(g359
g1526
tp2299
(dp2300
g148
I2
ss(g597
g556
tp2301
(dp2302
g660
I1
sg1794
I1
sg223
I1
ss(g1687
g376
tp2303
(dp2304
g971
I1
ss(g633
g263
tp2305
(dp2306
g213
I1
ss(g327
g277
tp2307
(dp2308
g126
I1
ss(g413
g1017
tp2309
(dp2310
g253
I1
ss(g93
g66
tp2311
(dp2312
g1400
I1
ss(g759
g1300
tp2313
(dp2314
g284
I1
sg384
I1
ss(g165
g602
tp2315
(dp2316
g16
I1
ss(g1706
g1355
tp2317
(dp2318
S'I'
I1
ss(S'I'
g1140
tp2319
(dp2320
g734
I1
ss(g946
g415
tp2321
(dp2322
g994
I1
ss(g403
S','
tp2323
(dp2324
S'and'
p2325
I1
ss(g261
g837
tp2326
(dp2327
S','
I1
ss(g406
g400
tp2328
(dp2329
g27
I1
ss(g1025
g363
tp2330
(dp2331
S','
I1
ss(g153
g855
tp2332
(dp2333
g1940
I1
ss(g1880
g1151
tp2334
(dp2335
g215
I1
ss(S'and'
p2336
g1287
tp2337
(dp2338
g307
I1
sg80
I1
sg30
I1
sg11
I1
sg309
I1
sg1121
I1
sg320
I1
ss(g23
g333
tp2339
(dp2340
g1655
I1
ss(g1454
g481
tp2341
(dp2342
g1351
I1
ss(g374
g774
tp2343
(dp2344
g196
I1
ss(g435
g1544
tp2345
(dp2346
S'will'
p2347
I1
ss(g626
g1735
tp2348
(dp2349
g1611
I1
ss(g420
g160
tp2350
(dp2351
g260
I1
ss(S','
g620
tp2352
(dp2353
S'I'
I1
sg616
I1
sg406
I1
ss(g69
g1316
tp2354
(dp2355
S';'
I1
ss(g50
g670
tp2356
(dp2357
g159
I1
ss(g1216
g1325
tp2358
(dp2359
g265
I1
ss(g1610
g1249
tp2360
(dp2361
g1312
I1
sg1309
I1
ss(g1735
g1611
tp2362
(dp2363
S','
I1
ss(g577
g428
tp2364
(dp2365
g209
I1
sS','
I1
ss(g1244
g255
tp2366
(dp2367
g746
I1
ss(g521
g441
tp2368
(dp2369
g318
I1
sg2118
I1
sg1126
I1
ss(g1506
g331
tp2370
(dp2371
S','
I1
ss(S'the'
p2372
g327
tp2373
(dp2374
g277
I1
ss(g269
S','
tp2375
(dp2376
g638
I1
ss(g2005
g1282
tp2377
(dp2378
g2279
I1
sg179
I1
ss(S','
g156
tp2379
(dp2380
g1103
I1
ss(g42
g396
tp2381
(dp2382
g1337
I1
ss(g410
g729
tp2383
(dp2384
g2199
I1
ss(g53
g116
tp2385
(dp2386
g1483
I1
ss(g1234
g1122
tp2387
(dp2388
g1087
I1
ss(S'as'
p2389
S'I'
tp2390
(dp2391
S'very'
p2392
I1
ss(S','
g207
tp2393
(dp2394
S'.'
I1
ss(g74
g886
tp2395
(dp2396
g1305
I1
ss(g266
g1376
tp2397
(dp2398
g1281
I1
ss(g285
g219
tp2399
(dp2400
g1649
I1
ss(g60
S','
tp2401
(dp2402
S'I'
I1
ss(g276
S','
tp2403
(dp2404
S'and'
p2405
I1
ss(S','
g352
tp2406
(dp2407
g1237
I1
ss(g241
g377
tp2408
(dp2409
g394
I1
ss(g1721
g97
tp2410
(dp2411
S','
I1
ss(g92
g1079
tp2412
(dp2413
g369
I1
ss(g1696
g430
tp2414
(dp2415
S';'
I1
ss(S'of'
p2416
g1309
tp2417
(dp2418
g1085
I1
sS','
I1
ss(g90
g216
tp2419
(dp2420
g501
I1
ss(g314
S','
tp2421
(dp2422
g619
I1
ss(g1452
g1214
tp2423
(dp2424
g169
I1
ss(g1448
g413
tp2425
(dp2426
g1017
I1
ss(g213
g221
tp2427
(dp2428
g830
I1
ss(g139
S','
tp2429
(dp2430
g629
I1
sS'who'
p2431
I2
sg85
I1
ss(g301
g662
tp2432
(dp2433
g316
I1
ss(g30
S','
tp2434
(dp2435
S'and'
p2436
I1
ss(S'not'
p2437
g347
tp2438
(dp2439
g83
I1
ss(g310
g302
tp2440
(dp2441
g321
I1
ss(S'For'
p2442
g683
tp2443
(dp2444
g518
I1
ss(g1711
g451
tp2445
(dp2446
g362
I1
ss(g1412
g143
tp2447
(dp2448
g47
I1
ss(g2209
g370
tp2449
(dp2450
g966
I1
ss(g386
g298
tp2451
(dp2452
g698
I1
ss(g125
S','
tp2453
(dp2454
S'in'
p2455
I1
ss(g217
S','
tp2456
(dp2457
S'and'
p2458
I1
ss(g362
S'.'
tp2459
(dp2460
g323
I1
ss(g118
S','
tp2461
(dp2462
S'I'
I1
ss(g70
g310
tp2463
(dp2464
g302
I1
ss(g183
g1696
tp2465
(dp2466
g430
I1
ss(g1201
g1276
tp2467
(dp2468
g881
I1
ss(g1175
g1710
tp2469
(dp2470
g291
I1
ss(g296
g197
tp2471
(dp2472
g101
I1
ss(g105
S','
tp2473
(dp2474
g312
I1
ss(g108
g1564
tp2475
(dp2476
g742
I1
ss(g295
g1668
tp2477
(dp2478
g183
I1
ss(S'our'
p2479
g384
tp2480
(dp2481
S','
I1
ss(g947
S','
tp2482
(dp2483
g640
I1
ss(g558
g739
tp2484
(dp2485
g317
I1
ss(g1282
g179
tp2486
(dp2487
g1330
I1
ss(g1422
S'I'
tp2488
(dp2489
g1140
I1
sg297
I1
ss(S'of'
p2490
g1310
tp2491
(dp2492
g1160
I1
ss(S'-'
g24
tp2493
(dp2494
S','
I1
ss(g1151
g215
tp2495
(dp2496
g608
I1
ss(g297
g279
tp2497
(dp2498
g1009
I1
ss(g188
g1433
tp2499
(dp2500
S'my'
p2501
I1
ss(g337
g946
tp2502
(dp2503
g415
I1
sg474
I1
ss(g203
g14
tp2504
(dp2505
g943
I1
ss(g1529
g176
tp2506
(dp2507
S'I'
I1
ss(g147
S'.'
tp2508
(dp2509
g42
I1
ss(g262
g1092
tp2510
(dp2511
g1303
I1
ss(g247
g45
tp2512
(dp2513
g243
I1
ss(g25
g1028
tp2514
(dp2515
S'poems'
p2516
I1
ss(g1523
g146
tp2517
(dp2518
g1265
I1
ss(S'a'
g44
tp2519
(dp2520
g36
I1
ss(S'the'
p2521
g1121
tp2522
(dp2523
g1343
I2
ss(g1150
S';'
tp2524
(dp2525
S'and'
p2526
I1
sg402
I1
ss(g246
g1730
tp2527
(dp2528
g236
I1
ss(g237
g334
tp2529
(dp2530
g295
I1
ss(g326
g228
tp2531
(dp2532
g1541
I1
ss(g347
g83
tp2533
(dp2534
g1346
I1
ss(g1505
g1040
tp2535
(dp2536
g246
I1
ss(S'a'
g202
tp2537
(dp2538
g412
I1
ss(S','
g632
tp2539
(dp2540
g940
I1
ss(g67
g1740
tp2541
(dp2542
g276
I1
ss(g1355
S'I'
tp2543
(dp2544
g87
I1
ss(g624
g338
tp2545
(dp2546
g342
I1
ss(g1631
g1487
tp2547
(dp2548
g133
I1
ss(g921
g790
tp2549
(dp2550
g403
I1
ss(g1129
g226
tp2551
(dp2552
S','
I1
ss(g492
g244
tp2553
(dp2554
g704
I1
ss(g378
g648
tp2555
(dp2556
g193
I2
ss(g385
g1106
tp2557
(dp2558
g511
I1
ss(g86
g343
tp2559
(dp2560
S','
I1
ss(g899
g372
tp2561
(dp2562
S'I'
I1
ss(g41
g1086
tp2563
(dp2564
g18
I1
ss(S'if'
p2565
S'I'
tp2566
(dp2567
S'am'
p2568
I1
sS'can'
p2569
I1
ss(g698
g1684
tp2570
(dp2571
g220
I1
ss(g396
g1337
tp2572
(dp2573
S','
I1
ss(S'a'
g357
tp2574
(dp2575
g188
I1
ss(S','
g625
tp2576
(dp2577
g2000
I1
ss(g641
g743
tp2578
(dp2579
g287
I1
ss(S' '
g198
tp2580
(dp2581
g177
I1
ss(S'a'
g256
tp2582
(dp2583
g1724
I1
ss(g575
g330
tp2584
(dp2585
g359
I1
ss(S','
g434
tp2586
(dp2587
g285
I1
ss(g636
g152
tp2588
(dp2589
g688
I1
ss(S'which'
p2590
g1454
tp2591
(dp2592
g481
I1
sg136
I1
ss(g1043
g192
tp2593
(dp2594
S'.'
I1
ss(g746
g227
tp2595
(dp2596
g1496
I1
ss(g330
g359
tp2597
(dp2598
g1526
I1
ss(g1249
g1312
tp2599
(dp2600
g300
I1
sg1124
I1
sg157
I1
sg332
I1
sg269
I1
sg245
I1
sg327
I1
sS'universe'
p2601
I1
sg299
I1
sg172
I1
ss(g743
g287
tp2602
(dp2603
S'.'
I1
ss(g1450
g175
tp2604
(dp2605
g387
I1
ss(g35
g915
tp2606
(dp2607
g1149
I1
ss(g774
g196
tp2608
(dp2609
g1382
I1
ss(g233
g104
tp2610
(dp2611
g912
I1
ss(g524
g1159
tp2612
(dp2613
g266
I1
ss(S','
g643
tp2614
(dp2615
g961
I1
ss(g1681
g52
tp2616
(dp2617
g51
I1
ss(g707
g250
tp2618
(dp2619
S','
I1
ss(g422
g507
tp2620
(dp2621
g424
I1
ss(g1330
g1125
tp2622
(dp2623
g1408
I1
sg2590
I1
ss(g430
S';'
tp2624
(dp2625
g7
I1
ss(g232
g346
tp2626
(dp2627
g1549
I1
ss(g78
g233
tp2628
(dp2629
g815
I1
sg104
I1
ss(g450
g102
tp2630
(dp2631
g1132
I1
ss(g1168
g840
tp2632
(dp2633
S'are'
p2634
I1
ss(g365
g1638
tp2635
(dp2636
S'a'
I1
ss(g389
S','
tp2637
(dp2638
S'you'
p2639
I1
ss(g1343
g315
tp2640
(dp2641
g367
I1
ss(g56
g1196
tp2642
(dp2643
g2372
I1
ss(g1214
g169
tp2644
(dp2645
g134
I1
ss(g228
g1541
tp2646
(dp2647
g1302
I1
ss(g1713
g408
tp2648
(dp2649
g1665
I1
ss(g127
g939
tp2650
(dp2651
g361
I1
ss(g1400
g258
tp2652
(dp2653
g26
I1
sg290
I1
sg115
I2
sg956
I1
ss(g273
g113
tp2654
(dp2655
g1652
I1
ss(g1140
g734
tp2656
(dp2657
g29
I1
ss(g661
g272
tp2658
(dp2659
g1470
I1
ss(g652
S'?'
tp2660
(dp2661
S'I'
I1
ss(g106
g1690
tp2662
(dp2663
g2479
I1
ss(g251
g597
tp2664
(dp2665
g556
I1
ss(g215
g608
tp2666
(dp2667
g1379
I1
ss(g226
S','
tp2668
(dp2669
S'I'
I1
ss(g345
g1706
tp2670
(dp2671
g1355
I1
ss(g186
S','
tp2672
(dp2673
g19
I1
ss(g2347
g452
tp2674
(dp2675
g2490
I1
ss(g1230
g171
tp2676
(dp2677
S'.'
I1
ss(g426
g420
tp2678
(dp2679
g160
I1
ss(g316
S';'
tp2680
(dp2681
g1422
I1
ss(g1305
g1033
tp2682
(dp2683
g1771
I1
ss(g332
g1220
tp2684
(dp2685
g41
I1
ss(g157
g533
tp2686
(dp2687
g1448
I1
ss(g402
g782
tp2688
(dp2689
S'are'
p2690
I1
ss(g1086
g18
tp2691
(dp2692
g124
I1
ss(S';'
g402
tp2693
(dp2694
g782
I1
ss(g1149
g181
tp2695
(dp2696
g1129
I1
ss(g433
g1034
tp2697
(dp2698
g186
I1
ss(g399
S','
tp2699
(dp2700
S'and'
p2701
I1
ss(g197
g101
tp2702
(dp2703
g1073
I1
ss(g1160
g615
tp2704
(dp2705
g877
I1
ss(g176
S'I'
tp2706
(dp2707
g247
I1
ss(S';'
g1424
tp2708
(dp2709
S'are'
p2710
I1
ss(g1124
g1705
tp2711
(dp2712
g1283
I1
ss(g57
S'.'
tp2713
(dp2714
S'\x00'
I1
ss(g1020
g1145
tp2715
(dp2716
g63
I1
ss(g458
g661
tp2717
(dp2718
g210
I1
sg272
I1
ss(g510
g251
tp2719
(dp2720
g597
I1
ss(g312
g409
tp2721
(dp2722
g1687
I1
ss(g960
S'-'
tp2723
(dp2724
g24
I1
ss(g172
g1076
tp2725
(dp2726
g121
I1
ss(g404
g1620
tp2727
(dp2728
g463
I1
ss(g100
g1291
tp2729
(dp2730
S'you'
p2731
I1
ss(g37
S','
tp2732
(dp2733
S'and'
p2734
I1
sg2565
I1
ss(g142
g469
tp2735
(dp2736
g313
I1
ss(g184
g286
tp2737
(dp2738
g979
I1
ss(g43
g203
tp2739
(dp2740
g14
I1
ss(g121
g1617
tp2741
(dp2742
g1925
I1
ss(g1287
g307
tp2743
(dp2744
g122
I1
ss(g2325
g1286
tp2745
(dp2746
g933
I1
ss(g238
g419
tp2747
(dp2748
g1053
I1
ss(g974
g72
tp2749
(dp2750
g1428
I1
ss(S'of'
p2751
g1308
tp2752
(dp2753
S','
I2
ss(g424
S','
tp2754
(dp2755
S'I'
I1
ss(g360
g389
tp2756
(dp2757
S','
I1
ss(g929
g429
tp2758
(dp2759
g180
I1
ss(g1146
g577
tp2760
(dp2761
g428
I1
ss(S','
g622
tp2762
(dp2763
g2437
I1
ss(g1447
g1713
tp2764
(dp2765
g408
I1
ss(g734
g29
tp2766
(dp2767
S'.'
I1
ss(g1303
g398
tp2768
(dp2769
g735
I1
ss(g2526
g125
tp2770
(dp2771
S','
I1
ss(g423
S'a'
tp2772
(dp2773
g325
I1
ss(S'I'
g174
tp2774
(dp2775
g154
I1
ss(g221
g830
tp2776
(dp2777
g98
I1
ss(g341
g1020
tp2778
(dp2779
g1145
I1
ss(g427
g834
tp2780
(dp2781
g1301
I1
ss(S'as'
p2782
g616
tp2783
(dp2784
g130
I1
ss(g1465
g1148
tp2785
(dp2786
S';'
I1
sS','
I4
ss(g773
S','
tp2787
(dp2788
S'and'
p2789
I1
ss(g333
g1655
tp2790
(dp2791
g1973
I1
ss(g198
g177
tp2792
(dp2793
S','
I1
ss(g255
g746
tp2794
(dp2795
g227
I1
ss(g87
g374
tp2796
(dp2797
g774
I1
ss(S','
g641
tp2798
(dp2799
g743
I1
ss(g190
g905
tp2800
(dp2801
g170
I1
ss(g272
g1470
tp2802
(dp2803
g339
I1
ss(g2259
g1635
tp2804
(dp2805
g1711
I1
ss(g1428
g31
tp2806
(dp2807
g267
I1
ss(g1751
g46
tp2808
(dp2809
g1234
I1
ss(g594
g335
tp2810
(dp2811
g401
I1
ss(g351
S','
tp2812
(dp2813
g2134
I1
ss(g206
g314
tp2814
(dp2815
S','
I1
ss(g126
S','
tp2816
(dp2817
g631
I1
ss(g361
g34
tp2818
(dp2819
S'I'
I1
ss(S'with'
p2820
S'a'
tp2821
(dp2822
g427
I1
ss(g242
g229
tp2823
(dp2824
g49
I1
ss(g518
g8
tp2825
(dp2826
g722
I1
ss(g572
g273
tp2827
(dp2828
g113
I1
ss(g1284
g1216
tp2829
(dp2830
g1325
I1
ss(S'I'
g1137
tp2831
(dp2832
g392
I1
ss(S','
g252
tp2833
(dp2834
S','
I1
ss(S'is'
p2835
g432
tp2836
(dp2837
g1209
I1
ss(g1159
g266
tp2838
(dp2839
g1376
I1
ss(g1066
g472
tp2840
(dp2841
S'I'
I1
ss(g1614
g397
tp2842
(dp2843
S'.'
I1
ss(g66
g1400
tp2844
(dp2845
g258
I1
ss(g994
g1043
tp2846
(dp2847
g192
I1
ss(g1583
S','
tp2848
(dp2849
g280
I1
ss(g1286
g933
tp2850
(dp2851
g1909
I1
ss(g284
g1473
tp2852
(dp2853
S'you'
p2854
I1
ss(S'.'
g150
tp2855
(dp2856
g1634
I1
sg1635
I1
ss(g381
g489
tp2857
(dp2858
g161
I1
ss(g2734
g1279
tp2859
(dp2860
S'I'
I1
ss(S'the'
p2861
g157
tp2862
(dp2863
g533
I1
ss(g637
g483
tp2864
(dp2865
S','
I2
ss(g97
S','
tp2866
(dp2867
S'and'
p2868
I1
ss(g1727
g1147
tp2869
(dp2870
g986
I1
ss(g167
g1256
tp2871
(dp2872
g131
I1
ss(g9
S'.'
tp2873
(dp2874
S'And'
p2875
I1
ss(g1487
g133
tp2876
(dp2877
g1230
I1
ss(g483
S','
tp2878
(dp2879
g639
I1
sg112
I1
sg119
I1
ss(g1438
g1307
tp2880
(dp2881
S'.'
I1
ss(g102
g1132
tp2882
(dp2883
g1950
I1
ss(g373
g553
tp2884
(dp2885
S'the'
p2886
I1
ss(g1268
g450
tp2887
(dp2888
g102
I1
ss(g401
g1163
tp2889
(dp2890
S'are'
p2891
I1
ss(g844
g195
tp2892
(dp2893
g989
I1
ss(S'I'
g58
tp2894
(dp2895
g28
I1
ss(S','
g306
tp2896
(dp2897
S'I'
I1
sg520
I2
sg519
I1
ss(g824
g1607
tp2898
(dp2899
S','
I1
ss(S','
g631
tp2900
(dp2901
g2204
I1
sg237
I1
sg1709
I1
ss(g1178
g109
tp2902
(dp2903
g1578
I1
ss(g715
g382
tp2904
(dp2905
g921
I1
ss(g265
g950
tp2906
(dp2907
S'the'
p2908
I1
ss(g1061
g1304
tp2909
(dp2910
g980
I1
ss(g120
g399
tp2911
(dp2912
S','
I1
ss(g1550
g985
tp2913
(dp2914
S','
I1
ss(g683
g518
tp2915
(dp2916
g8
I1
ss(g1449
g439
tp2917
(dp2918
g846
I1
ss(S','
g621
tp2919
(dp2920
S'the'
p2921
I1
sg440
I1
ss(g831
g861
tp2922
(dp2923
g50
I1
ss(g366
g145
tp2924
(dp2925
g1465
I1
ss(S'of'
p2926
g1297
tp2927
(dp2928
S','
I1
ss(g395
S','
tp2929
(dp2930
g624
I1
ss(S'.'
g42
tp2931
(dp2932
g396
I1
ss(g1598
g860
tp2933
(dp2934
g1447
I1
ss(g710
g676
tp2935
(dp2936
g373
I1
ss(g339
S'.'
tp2937
(dp2938
g150
I1
ss(g187
g878
tp2939
(dp2940
g981
I1
ss(g249
g208
tp2941
(dp2942
g340
I1
ss(S'speak'
p2943
g1610
tp2944
(dp2945
g1249
I2
ss(g639
g1014
tp2946
(dp2947
g23
I1
ss(g2690
g956
tp2948
(dp2949
g868
I1
ss(g256
g1724
tp2950
(dp2951
S'a'
I1
ss(S','
g371
tp2952
(dp2953
S','
I1
ss(g136
g414
tp2954
(dp2955
g1403
I1
ss(S','
g350
tp2956
(dp2957
g827
I1
ss(g311
g383
tp2958
(dp2959
g127
I1
ss(g387
g349
tp2960
(dp2961
g117
I1
ss(g19
S','
tp2962
(dp2963
g627
I1
sg642
I1
sS'that'
p2964
I1
ss(g542
g190
tp2965
(dp2966
g905
I1
ss(S'shall'
p2967
g39
tp2968
(dp2969
g1644
I1
ss(S','
g407
tp2970
(dp2971
g92
I1
ss(g193
S'.'
tp2972
(dp2973
g899
I1
sg140
I1
ss(g463
g1153
tp2974
(dp2975
S'.'
I1
ss(g72
g1428
tp2976
(dp2977
g31
I1
ss(g132
S','
tp2978
(dp2979
g81
I1
ss(g1541
g1302
tp2980
(dp2981
g165
I1
ss(S'I'
g61
tp2982
(dp2983
g1066
I1
ss(g1154
g354
tp2984
(dp2985
g871
I1
ss(g201
g874
tp2986
(dp2987
g224
I1
ss(g397
S'.'
tp2988
(dp2989
S'But'
p2990
I1
ss(g169
g134
tp2991
(dp2992
g504
I1
ss(g959
g1604
tp2993
(dp2994
g241
I1
ss(g388
g1001
tp2995
(dp2996
g1154
I1
ss(S','
g639
tp2997
(dp2998
g1014
I1
ss(g429
g180
tp2999
(dp3000
g1363
I1
ss(g1564
g742
tp3001
(dp3002
g261
I1
ss(g431
S','
tp3003
(dp3004
S'and'
p3005
I1
ss(g307
g122
tp3006
(dp3007
g1273
I1
ss(g2868
g1277
tp3008
(dp3009
g603
I1
ss(g2127
S':'
tp3010
(dp3011
g1340
I1
ss(g1009
g844
tp3012
(dp3013
g195
I1
sg1151
I1
ss(g364
g821
tp3014
(dp3015
g496
I1
ss(S' '
g360
tp3016
(dp3017
g389
I1
ss(g1147
g986
tp3018
(dp3019
S','
I1
ss(g145
g1465
tp3020
(dp3021
g1148
I1
ss(g309
g460
tp3022
(dp3023
g845
I1
ss(g140
g37
tp3024
(dp3025
S','
I1
ss(S'I'
g416
tp3026
(dp3027
g1751
I1
sg378
I2
sg390
I1
ss(g161
g262
tp3028
(dp3029
g1092
I1
ss(g323
g1623
tp3030
(dp3031
S'be'
p3032
I1
ss(g638
g1631
tp3033
(dp3034
g1487
I1
ss(g352
g1237
tp3035
(dp3036
g59
I1
ss(S','
g624
tp3037
(dp3038
g338
I1
ss(g421
g673
tp3039
(dp3040
g1453
I1
ss(g1376
g1281
tp3041
(dp3042
g576
I1
ss(S'.'
g106
tp3043
(dp3044
g1690
I1
ss(g137
g936
tp3045
(dp3046
g355
I1
ss(g329
g282
tp3047
(dp3048
S','
I1
ss(g210
g801
tp3049
(dp3050
g1298
I1
ss(g845
g955
tp3051
(dp3052
g114
I1
ss(g289
g271
tp3053
(dp3054
g1082
I1
ss(g2921
g1126
tp3055
(dp3056
g1035
I1
ss(g303
g863
tp3057
(dp3058
g40
I1
ss(g790
g403
tp3059
(dp3060
S','
I1
ss(g114
g351
tp3061
(dp3062
S','
I1
ss(g620
g406
tp3063
(dp3064
g400
I1
sS'said'
p3065
I1
ss(g425
g305
tp3066
(dp3067
S','
I1
ss(g1035
g22
tp3068
(dp3069
g1671
I1
ss(g411
g1188
tp3070
(dp3071
g270
I1
ss(g2891
g26
tp3072
(dp3073
g1626
I1
ss(g1116
g395
tp3074
(dp3075
S','
I1
ss(g322
g344
tp3076
(dp3077
g902
I1
ss(g192
S'.'
tp3078
(dp3079
g106
I1
ss(S'his'
p3080
g386
tp3081
(dp3082
g298
I1
ss(g576
g380
tp3083
(dp3084
S','
I1
ss(g209
S','
tp3085
(dp3086
g306
I1
ss(S'.'
g103
tp3087
(dp3088
g1509
I1
ss(g133
g1230
tp3089
(dp3090
g171
I1
sg2861
I1
ss(S'I'
g78
tp3091
(dp3092
g233
I1
sg381
I1
ss(g154
g924
tp3093
(dp3094
g311
I1
ss(g418
g426
tp3095
(dp3096
g420
I1
ss(g2501
g960
tp3097
(dp3098
S'-'
I1
ss(g971
g1486
tp3099
(dp3100
g1280
I1
ss(g1567
S'-'
tp3101
(dp3102
g345
I1
ss(g434
g285
tp3103
(dp3104
g219
I1
ss(g300
g348
tp3105
(dp3106
S'.'
I1
ss(g240
S'I'
tp3107
(dp3108
g1137
I1
ss(g943
g575
tp3109
(dp3110
g330
I1
ss(g281
g1358
tp3111
(dp3112
g9
I1
ss(g1109
g187
tp3113
(dp3114
g878
I1
ss(g1237
g59
tp3115
(dp3116
g301
I1
ss(g632
g940
tp3117
(dp3118
g1718
I1
ss(g178
g847
tp3119
(dp3120
S'will'
p3121
I1
sg194
I1
sg189
I1
ss(g414
g1403
tp3122
(dp3123
g3080
I1
ss(g17
g1532
tp3124
(dp3125
g1123
I1
ss(g398
g735
tp3126
(dp3127
S'by'
p3128
I1
ss(g507
g424
tp3129
(dp3130
S','
I1
ss(g353
S','
tp3131
(dp3132
g637
I1
ss(S'the'
p3133
g138
tp3134
(dp3135
g1746
I1
ss(g129
S','
tp3136
(dp3137
g636
I1
ss(g940
g1718
tp3138
(dp3139
S'the'
p3140
I1
ss(g55
S';'
tp3141
(dp3142
g1423
I1
ss(g195
g989
tp3143
(dp3144
g2943
I1
ss(g116
g1483
tp3145
(dp3146
g431
I1
ss(g205
S'.'
tp3147
(dp3148
S'And'
p3149
I1
ss(g1076
g121
tp3150
(dp3151
g1617
I1
ss(g239
g55
tp3152
(dp3153
S';'
I1
ss(g392
g268
tp3154
(dp3155
g1614
I1
ss(g75
g1061
tp3156
(dp3157
g1304
I1
ss(g982
g484
tp3158
(dp3159
g75
I1
ss(g68
S','
tp3160
(dp3161
g632
I1
ss(g912
g222
tp3162
(dp3163
g804
I1
ss(S'I'
g89
tp3164
(dp3165
g1178
I1
ss(g539
g308
tp3166
(dp3167
S'.'
I1
ss(g250
S','
tp3168
(dp3169
g641
I1
ss(g676
g373
tp3170
(dp3171
g553
I1
ss(S';'
g7
tp3172
(dp3173
g930
I1
ss(S'But'
p3174
g423
tp3175
(dp3176
S'a'
I1
ss(g955
g114
tp3177
(dp3178
g351
I1
ss(g1607
S','
tp3179
(dp3180
g2389
I1
ss(g8
g722
tp3181
(dp3182
g43
I1
ss(g1137
g392
tp3183
(dp3184
g268
I1
ss(S'.'
g77
tp3185
(dp3186
g536
I1
ss(g474
g129
tp3187
(dp3188
S','
I1
ss(g3032
S'a'
tp3189
(dp3190
g202
I1
ss(g862
g48
tp3191
(dp3192
g896
I1
ss(g298
g698
tp3193
(dp3194
g1684
I1
ss(S';'
g60
tp3195
(dp3196
S','
I1
ss(g163
g652
tp3197
(dp3198
S'?'
I1
ss(S','
g635
tp3199
(dp3200
g201
I1
sg783
I1
ss(g481
g1351
tp3201
(dp3202
g512
I1
ss(g874
g224
tp3203
(dp3204
g1438
I1
ss(g22
g1671
tp3205
(dp3206
S','
I1
ss(g1340
g974
tp3207
(dp3208
g72
I1
ss(g26
g1626
tp3209
(dp3210
g204
I1
ss(g220
g358
tp3211
(dp3212
S','
I1
ss(g868
g831
tp3213
(dp3214
g861
I1
ss(g615
g877
tp3215
(dp3216
g292
I1
ss(g1053
g649
tp3217
(dp3218
g259
I1
ss(g101
g1073
tp3219
(dp3220
g90
I1
ss(g225
g524
tp3221
(dp3222
g1159
I1
ss(g455
g1457
tp3223
(dp3224
g353
I1
ss(g83
g1346
tp3225
(dp3226
g336
I1
ss(g847
g189
tp3227
(dp3228
g234
I1
ss(g113
g1652
tp3229
(dp3230
g2058
I1
ss(S','
S'I'
tp3231
(dp3232
g58
I1
sg1982
I1
sg1138
I1
sg61
I1
sg174
I1
sg235
I1
sg70
I1
ss(g170
g135
tp3233
(dp3234
g1523
I1
ss(g1684
g220
tp3235
(dp3236
g358
I1
ss(g294
S'I'
tp3237
(dp3238
S','
I1
ss(g409
g1687
tp3239
(dp3240
g376
I1
ss(g2990
g153
tp3241
(dp3242
g855
I1
ss(S'a'
g427
tp3243
(dp3244
g834
I1
ss(S':'
g278
tp3245
(dp3246
S','
I1
ss(S'.'
g323
tp3247
(dp3248
g1623
I1
ss(g350
g827
tp3249
(dp3250
g1238
I1
ss(g1572
g217
tp3251
(dp3252
S','
I1
ss(g2088
g440
tp3253
(dp3254
S','
I1
ss(g168
S','
tp3255
(dp3256
g628
I1
ss(g52
g51
tp3257
(dp3258
g1460
I1
ss(S'well'
p3259
g105
tp3260
(dp3261
S','
I1
ss(g1122
g1087
tp3262
(dp3263
g982
I1
ss(g377
g394
tp3264
(dp3265
g1225
I1
ss(g1304
g980
tp3266
(dp3267
g1268
I1
ss(g211
g1241
tp3268
(dp3269
S','
I1
ss(g902
g82
tp3270
(dp3271
g218
I1
ss(g1391
S'a'
tp3272
(dp3273
g64
I1
sg44
I1
ss(g181
g1129
tp3274
(dp3275
g226
I1
ss(g1358
g9
tp3276
(dp3277
S'.'
I1
ss(g630
g737
tp3278
(dp3279
S'he'
p3280
I1
ss(g3149
g132
tp3281
(dp3282
S','
I1
ss(g736
g848
tp3283
(dp3284
S'of'
p3285
I1
ss(g1784
g1288
tp3286
(dp3287
S'the'
p3288
I1
ss(g871
g1311
tp3289
(dp3290
S';'
I1
ss(g1092
g1303
tp3291
(dp3292
g398
I1
ss(g3128
g788
tp3293
(dp3294
g274
I1
sg10
I1
ss(g1969
S'.'
tp3295
(dp3296
g391
I1
ss(S','
g119
tp3297
(dp3298
S':'
I1
ss(g230
g513
tp3299
(dp3300
g1451
I1
ss(S','
g312
tp3301
(dp3302
g409
I1
ss(g439
g846
tp3303
(dp3304
g337
I1
ss(g61
g1066
tp3305
(dp3306
g472
I1
ss(g419
g1053
tp3307
(dp3308
g649
I1
ss(g451
g362
tp3309
(dp3310
S'.'
I1
ss(g394
g1225
tp3311
(dp3312
S','
I1
ss(g224
g1438
tp3313
(dp3314
g1307
I1
ss(g1947
g264
tp3315
(dp3316
g1712
I1
ss(g1493
g738
tp3317
(dp3318
g473
I1
ss(g667
g1306
tp3319
(dp3320
S','
I1
ss(g306
g520
tp3321
(dp3322
S','
I2
ss(g277
g126
tp3323
(dp3324
S','
I1
ss(S','
g275
tp3325
(dp3326
g1116
I1
ss(g1273
g21
tp3327
(dp3328
g230
I1
ss(g222
g804
tp3329
(dp3330
S'I'
I1
ss(g1106
g511
tp3331
(dp3332
g99
I1
ss(g348
S'.'
tp3333
(dp3334
g365
I1
ss(g1001
g1154
tp3335
(dp3336
g354
I1
ss(g1460
g368
tp3337
(dp3338
S','
I2
ss(g821
g496
tp3339
(dp3340
g1185
I1
ss(S'have'
p3341
g69
tp3342
(dp3343
g1316
I1
ss(g335
g401
tp3344
(dp3345
g1163
I1
ss(g73
g205
tp3346
(dp3347
S'.'
I1
ss(g1425
g200
tp3348
(dp3349
g1417
I1
ss(S';'
g1423
tp3350
(dp3351
g976
I1
sg975
I1
ss(g2177
S','
tp3352
(dp3353
g2095
I1
ss(g371
S','
tp3354
(dp3355
S'if'
p3356
I1
ss(g98
g1480
tp3357
(dp3358
S','
I1
ss(S','
g619
tp3359
(dp3360
g13
I1
ss(g156
g1103
tp3361
(dp3362
g3133
I1
ss(g134
g504
tp3363
(dp3364
g1150
I1
ss(g219
g1649
tp3365
(dp3366
S'Solon'
p3367
I1
ss(g2267
g660
tp3368
(dp3369
g425
I1
ss(g1126
g1035
tp3370
(dp3371
g22
I1
ss(g1294
g128
tp3372
(dp3373
S','
I1
ss(S'I'
g328
tp3374
(dp3375
g322
I2
ss(g122
g1273
tp3376
(dp3377
g21
I1
ss(g58
g28
tp3378
(dp3379
g239
I1
ss(g11
S','
tp3380
(dp3381
S'and'
p3382
I1
ss(g701
g510
tp3383
(dp3384
g138
I1
sg2251
I1
sg251
I1
ss(g1486
g1280
tp3385
(dp3386
S','
I1
ss(g112
g53
tp3387
(dp3388
g116
I1
ss(S','
g112
tp3389
(dp3390
g53
I1
ss(g1307
S'.'
tp3391
(dp3392
g214
I1
ss(g27
g572
tp3393
(dp3394
g273
I1
ss(g2569
g381
tp3395
(dp3396
g489
I1
ss(g924
g311
tp3397
(dp3398
g158
I1
sg383
I1
sg433
I1
ss(g2731
S';'
tp3399
(dp3400
g240
I1
ss(g1185
g231
tp3401
(dp3402
g1206
I1
ss(S'-'
g345
tp3403
(dp3404
g1706
I1
ss(g1058
g73
tp3405
(dp3406
g205
I1
ss(g1004
g459
tp3407
(dp3408
g1452
I1
ss(g449
g304
tp3409
(dp3410
g539
I1
ss(g358
S','
tp3411
(dp3412
S'to'
p3413
I1
ss(S'and'
p3414
g385
tp3415
(dp3416
g1106
I1
ss(S','
g623
tp3417
(dp3418
g862
I1
sg185
I1
ss(g905
g170
tp3419
(dp3420
g135
I1
ss(S'I'
g87
tp3421
(dp3422
g374
I1
ss(g1087
g982
tp3423
(dp3424
g484
I1
ss(g29
S'.'
tp3425
(dp3426
g17
I1
ss(g1626
g204
tp3427
(dp3428
g144
I1
ss(g863
g40
tp3429
(dp3430
g1244
I1
ss(g80
S','
tp3431
(dp3432
S'and'
p3433
I1
ss(g536
g521
tp3434
(dp3435
g441
I1
ss(g1409
S','
tp3436
(dp3437
g275
I1
sg206
I1
ss(g71
S'.'
tp3438
(dp3439
g103
I1
ss(S'.'
g899
tp3440
(dp3441
g1175
I1
sg132
I1
sg372
I1
ss(g379
g86
tp3442
(dp3443
g343
I1
ss(S'.'
S'\x00'
tp3444
(dp3445
S'\x00'
I18
ss(S'I'
g341
tp3446
(dp3447
g1020
I1
ss(g227
g1496
tp3448
(dp3449
g120
I1
ss(g85
g329
tp3450
(dp3451
g282
I1
ss(S' '
g364
tp3452
(dp3453
g821
I1
ss(g512
g1572
tp3454
(dp3455
g217
I1
ss(g1082
g1278
tp3456
(dp3457
g167
I1
ss(g299
g492
tp3458
(dp3459
g244
I1
ss(g673
g1453
tp3460
(dp3461
g3341
I1
ss(g124
g1322
tp3462
(dp3463
g1716
I1
ss(g390
g1025
tp3464
(dp3465
g363
I1
ss(g1705
g1283
tp3466
(dp3467
g388
I1
ss(g370
g966
tp3468
(dp3469
g404
I1
ss(S'the'
p3470
g309
tp3471
(dp3472
g460
I1
ss(g1593
g65
tp3473
(dp3474
g1583
I1
ss(g305
S','
tp3475
(dp3476
g207
I1
ss(g393
g1575
tp3477
(dp3478
g173
I1
ss(g936
g355
tp3479
(dp3480
g76
I1
ss(g1644
g91
tp3481
(dp3482
g1058
I1
ss(g482
g1557
tp3483
(dp3484
g1505
I1
ss(g1325
g265
tp3485
(dp3486
g950
I1
ss(g278
S','
tp3487
(dp3488
g371
I1
ss(g259
g1391
tp3489
(dp3490
S'a'
I1
ss(g631
g1709
tp3491
(dp3492
g257
I1
ss(g1079
g369
tp3493
(dp3494
g889
I1
ss(S'the'
p3495
g172
tp3496
(dp3497
g1076
I1
ss(g878
g981
tp3498
(dp3499
g94
I1
ss(g104
g912
tp3500
(dp3501
g222
I1
ss(g150
g1634
tp3502
(dp3503
g658
I1
ss(g207
S'.'
tp3504
(dp3505
S'\x00'
I1
ss(g171
S'.'
tp3506
(dp3507
S'\x00'
I1
ss(g302
g321
tp3508
(dp3509
S'.'
I1
ss(g199
g411
tp3510
(dp3511
g1188
I1
ss(g859
g319
tp3512
(dp3513
g567
I1
ss(g1014
g23
tp3514
(dp3515
g333
I1
ss(S'will'
p3516
S','
tp3517
(dp3518
S'if'
p3519
I1
ss(g1743
g1152
tp3520
(dp3521
g495
I1
ss(g400
g27
tp3522
(dp3523
g572
I1
ss(g2455
g185
tp3524
(dp3525
g777
I1
ss(g216
g501
tp3526
(dp3527
g1768
I1
ss(g319
g567
tp3528
(dp3529
g1493
I1
ss(g3413
g95
tp3530
(dp3531
g1727
I1
ss(S','
g85
tp3532
(dp3533
g329
I1
ss(g466
g162
tp3534
(dp3535
g20
I1
ss(g46
g1234
tp3536
(dp3537
g1122
I1
ss(g245
g168
tp3538
(dp3539
S','
I1
ss(g279
g1009
tp3540
(dp3541
g844
I1
ss(g49
g693
tp3542
(dp3543
g326
I1
ss(g830
g98
tp3544
(dp3545
g1480
I1
ss(g634
g557
tp3546
(dp3547
g289
I1
ss(g1256
g131
tp3548
(dp3549
g667
I1
ss(S'I'
g232
tp3550
(dp3551
g346
I1
ss(g1634
g658
tp3552
(dp3553
S'I'
I1
ss(g7
g930
tp3554
(dp3555
g2835
I1
ss(g896
g482
tp3556
(dp3557
g1557
I1
ss(g48
g896
tp3558
(dp3559
g482
I1
ss(g291
g1660
tp3560
(dp3561
g2055
I1
ss(g603
g68
tp3562
(dp3563
S','
I1
ss(g608
g1379
tp3564
(dp3565
g1299
I1
ss(g274
g1681
tp3566
(dp3567
g52
I1
ss(g162
g20
tp3568
(dp3569
g281
I1
ss(g1276
g881
tp3570
(dp3571
g458
I1
sS'.'
I1
ss(g519
g1492
tp3572
(dp3573
g947
I1
ss(g408
g1665
tp3574
(dp3575
g147
I1
ss(g110
S'.'
tp3576
(dp3577
g2442
I1
ss(g642
g111
tp3578
(dp3579
g1598
I1
ss(g662
g316
tp3580
(dp3581
S';'
I1
ss(g428
g209
tp3582
(dp3583
S','
I1
ss(g331
S','
tp3584
(dp3585
g635
I1
ss(g635
g783
tp3586
(dp3587
S'indulgence'
p3588
I1
ss(S','
g626
tp3589
(dp3590
g1735
I1
ss(g325
g393
tp3591
(dp3592
g1575
I1
ss(S'.'
g365
tp3593
(dp3594
g1638
I1
ss(g495
g858
tp3595
(dp3596
S'I'
I1
ss(g44
g36
tp3597
(dp3598
g765
I1
ss(g2029
g1593
tp3599
(dp3600
g65
I1
ss(g12
g71
tp3601
(dp3602
S'.'
I1
ss(g177
S','
tp3603
(dp3604
S'Socrates'
p3605
I1
ss(g1219
g184
tp3606
(dp3607
g286
I1
ss(g405
S','
tp3608
(dp3609
g434
I1
ss(g1861
g841
tp3610
(dp3611
S','
I1
ss(S','
g637
tp3612
(dp3613
g483
I1
ss(g182
g1717
tp3614
(dp3615
S','
I1
ss(g1121
g1343
tp3616
(dp3617
g315
I1
sg1308
I1
ss(S'heavenly'
p3618
g1004
tp3619
(dp3620
g459
I1
ss(S'.'
g140
tp3621
(dp3622
g37
I1
ss(g3140
g248
tp3623
(dp3624
S'.'
I1
ss(g308
S'.'
tp3625
(dp3626
S'\x00'
I1
ss(g722
g43
tp3627
(dp3628
g203
I1
ss(S';'
g1422
tp3629
(dp3630
S'I'
I1
sg125
I1
sg1285
I1
ss(g264
g1712
tp3631
(dp3632
g93
I1
ss(g253
g1294
tp3633
(dp3634
g128
I1
ss(g985
S','
tp3635
(dp3636
g407
I1
ss(S'?'
S'I'
tp3637
(dp3638
g78
I1
ss(g1740
g276
tp3639
(dp3640
S','
I1
ss(g827
g1238
tp3641
(dp3642
g324
I1
ss(g111
g1598
tp3643
(dp3644
g860
I1
ss(g1354
g54
tp3645
(dp3646
S','
I1
ss(g1457
g353
tp3647
(dp3648
S','
I1
ss(g384
S','
tp3649
(dp3650
g350
I1
ss(g343
S','
tp3651
(dp3652
g1820
I1
sg2216
I1
sg623
I1
ss(g380
S','
tp3653
(dp3654
g2782
I1
ss(g96
g35
tp3655
(dp3656
g915
I1
ss(g602
g16
tp3657
(dp3658
g466
I1
ss(g59
g301
tp3659
(dp3660
g662
I1
ss(g131
g667
tp3661
(dp3662
g1306
I1
ss(g416
g378
tp3663
(dp3664
g648
I2
ss(g444
g1506
tp3665
(dp3666
g347
I1
sg331
I1
ss(g36
g765
tp3667
(dp3668
g249
I1
ss(g1351
g512
tp3669
(dp3670
g1572
I1
ss(g1526
g148
tp3671
(dp3672
g1004
I1
sS','
I1
ss(g966
g404
tp3673
(dp3674
g1620
I1
ss(g1709
g257
tp3675
(dp3676
g1168
I1
ss(g591
g151
tp3677
(dp3678
g1354
I1
ss(g3121
g449
tp3679
(dp3680
g304
I1
sS'a'
I1
ss(g135
g1523
tp3681
(dp3682
g146
I1
ss(S'.'
g254
tp3683
(dp3684
g296
I1
sg683
I1
ss(g18
g124
tp3685
(dp3686
g1322
I1
ss(g236
g707
tp3687
(dp3688
g250
I1
ss(g2634
g115
tp3689
(dp3690
g701
I2
ss(S','
g638
tp3691
(dp3692
g1631
I1
ss(g939
g361
tp3693
(dp3694
g34
I1
ss(g1277
g603
tp3695
(dp3696
g68
I1
ss(g76
g123
tp3697
(dp3698
g366
I1
ss(g459
g1452
tp3699
(dp3700
g1214
I1
ss(g1139
g444
tp3701
(dp3702
g1506
I1
ss(g1312
g332
tp3703
(dp3704
g1219
I1
sg1220
I1
sS'.'
I1
ss(g282
S','
tp3705
(dp3706
g191
I1
ss(g257
g1168
tp3707
(dp3708
g840
I1
ss(g3356
g519
tp3709
(dp3710
g1492
I1
ss(g258
g290
tp3711
(dp3712
g1641
I1
ss(g1674
g773
tp3713
(dp3714
S','
I1
ss(g496
g1185
tp3715
(dp3716
g231
I1
ss(g94
g199
tp3717
(dp3718
g411
I1
ss(g842
g659
tp3719
(dp3720
g375
I1
ss(g511
g99
tp3721
(dp3722
S','
I1
ss(g2568
g390
tp3723
(dp3724
g1025
I1
ss(g117
g74
tp3725
(dp3726
g886
I1
ss(g489
g161
tp3727
(dp3728
g262
I1
ss(g119
S':'
tp3729
(dp3730
g278
I1
ss(g738
g473
tp3731
(dp3732
g816
I1
ss(g1833
g141
tp3733
(dp3734
g242
I1
ss(g65
g1583
tp3735
(dp3736
S','
I1
ss(g313
S';'
tp3737
(dp3738
g1424
I1
ss(g368
S','
tp3739
(dp3740
S'I'
I1
sg3414
I1
sg2178
I1
sg2296
I1
ss(g32
S','
tp3741
(dp3742
g633
I1
ss(S' '
S'I'
tp3743
(dp3744
g3516
I2
ss(g567
g1493
tp3745
(dp3746
g738
I1
ss(g1153
S'.'
tp3747
(dp3748
g164
I1
ss(g1811
g975
tp3749
(dp3750
S','
I1
ss(g82
g218
tp3751
(dp3752
g96
I1
ss(g1231
g736
tp3753
(dp3754
g848
I1
ss(g415
g994
tp3755
(dp3756
g1043
I1
ss(g1604
g241
tp3757
(dp3758
g377
I1
ss(g2151
g1284
tp3759
(dp3760
g1216
I1
ss(S'I'
S','
tp3761
(dp3762
g139
I1
ss(g1278
g167
tp3763
(dp3764
g1256
I1
ss(g63
g84
tp3765
(dp3766
g182
I1
sg212
I1
ss(g89
g1178
tp3767
(dp3768
g109
I1
ss(g693
g326
tp3769
(dp3770
g228
I1
ss(S'I'
g70
tp3771
(dp3772
g310
I1
ss(g886
g1305
tp3773
(dp3774
g1033
I1
ss(g2875
g1175
tp3775
(dp3776
g1710
I1
ss(g3588
g212
tp3777
(dp3778
g1743
I1
ss(S'I'
g1139
tp3779
(dp3780
g444
I1
ss(g194
g163
tp3781
(dp3782
g652
I1
ss(S'his'
p3783
g288
tp3784
(dp3785
S','
I1
ss(g214
g824
tp3786
(dp3787
g1607
I1
ss(g2601
g1412
tp3788
(dp3789
g143
I1
ss(g1265
g149
tp3790
(dp3791
S'.'
I1
ss(g231
g1206
tp3792
(dp3793
S'you'
p3794
I1
ss(g1549
g1146
tp3795
(dp3796
g577
I1
ss(g47
S','
tp3797
(dp3798
g626
I1
ss(g1220
g41
tp3799
(dp3800
g1086
I1
sS':'
I1
ss(g287
S'.'
tp3801
(dp3802
S'\x00'
I1
ss(g115
g701
tp3803
(dp3804
S'a'
I1
sg510
I1
ss(g235
g655
tp3805
(dp3806
S'you'
p3807
I1
ss(g2789
g435
tp3808
(dp3809
g1544
I1
ss(g152
g688
tp3810
(dp3811
g3495
I1
ss(g77
g536
tp3812
(dp3813
g521
I1
ss(g336
S';'
tp3814
(dp3815
g1425
I1
ss(g383
g127
tp3816
(dp3817
g939
I1
ss(g469
g313
tp3818
(dp3819
S';'
I1
ss(g138
g1746
tp3820
(dp3821
g1834
I1
ss(g356
g211
tp3822
(dp3823
g1241
I1
ss(g382
g921
tp3824
(dp3825
g790
I1
ss(g407
g92
tp3826
(dp3827
g1079
I1
ss(g243
g1512
tp3828
(dp3829
g2026
I1
ss(g915
g1149
tp3830
(dp3831
g181
I1
ss(g180
g1363
tp3832
(dp3833
g1313
I1
ss(g1017
g253
tp3834
(dp3835
g1294
I1
ss(g149
S'.'
tp3836
(dp3837
g3174
I1
ss(g533
g1448
tp3838
(dp3839
g413
I1
ss(g200
g1417
tp3840
(dp3841
g2020
I1
ss(g342
g67
tp3842
(dp3843
g1740
I1
ss(g1152
g495
tp3844
(dp3845
g858
I1
ss(g815
g88
tp3846
(dp3847
g770
I1
ss(g588
g293
tp3848
(dp3849
g1109
I1
ss(g13
g405
tp3850
(dp3851
S','
I1
ss(g369
g889
tp3852
(dp3853
g3783
I1
ss(g346
g1549
tp3854
(dp3855
g1146
I1
ss(g292
S'-'
tp3856
(dp3857
g1048
I1
ss(g513
g1451
tp3858
(dp3859
g56
I1
ss(g1238
g324
tp3860
(dp3861
g108
I1
ss(g191
g418
tp3862
(dp3863
g426
I1
ss(g2886
g269
tp3864
(dp3865
S','
I1
ss(g148
S','
tp3866
(dp3867
g2336
I1
ss(g1451
g56
tp3868
(dp3869
g1196
I1
ss(g557
g289
tp3870
(dp3871
g271
I1
ss(g175
g387
tp3872
(dp3873
g349
I1
ss(g1322
g1716
tp3874
(dp3875
S'speak'
p3876
I1
ss(g1724
S'a'
tp3877
(dp3878
g357
I1
sg33
I1
ss(g14
g943
tp3879
(dp3880
g575
I1
ss(g275
g1116
tp3881
(dp3882
g395
I1
ss(g1193
g238
tp3883
(dp3884
g155
I1
sg288
I1
sg419
I1
ss(g2176
g300
tp3885
(dp3886
g348
I1
ss(g1987
g458
tp3887
(dp3888
g661
I1
ss(g123
g366
tp3889
(dp3890
g145
I1
ss(g789
g762
tp3891
(dp3892
g410
I1
ss(g173
g594
tp3893
(dp3894
g335
I1
ss(g804
S'I'
tp3895
(dp3896
g1139
I1
sg341
I1
sg2967
I1
ssa(dp3897
(g519
g1492
g947
tp3898
(dp3899
S','
I1
ss(S'.'
g2990
g153
tp3900
(dp3901
g855
I1
ss(g356
g211
g1241
tp3902
(dp3903
S','
I1
ss(g827
g1238
g324
tp3904
(dp3905
g108
I1
ss(g1201
g1276
g881
tp3906
(dp3907
S'.'
I1
ss(g1452
g1214
g169
tp3908
(dp3909
g134
I1
ss(g122
g1273
g21
tp3910
(dp3911
g230
I1
ss(g16
g466
g162
tp3912
(dp3913
g20
I1
ss(g1496
g120
g399
tp3914
(dp3915
S','
I1
ss(g670
g159
g1201
tp3916
(dp3917
g1276
I1
ss(g1297
S','
g1947
tp3918
(dp3919
g264
I1
ss(g160
g260
g178
tp3920
(dp3921
g847
I1
ss(S'I'
S','
g139
tp3922
(dp3923
S','
I1
ss(g1340
g974
g72
tp3924
(dp3925
g1428
I1
ss(g2731
S';'
g240
tp3926
(dp3927
S'I'
I1
ss(g202
g412
g759
tp3928
(dp3929
g1300
I1
ss(g196
g1382
S';'
tp3930
(dp3931
g1811
I1
ss(g2416
g1309
g1085
tp3932
(dp3933
g2127
I1
ss(S','
g630
g737
tp3934
(dp3935
g3280
I1
ss(g513
g1451
g56
tp3936
(dp3937
g1196
I1
ss(S','
g622
g2437
tp3938
(dp3939
g347
I1
ss(g455
g1457
g353
tp3940
(dp3941
S','
I1
ss(g1617
g1925
g136
tp3942
(dp3943
g414
I1
ss(g843
g859
g319
tp3944
(dp3945
g567
I1
ss(g1451
g56
g1196
tp3946
(dp3947
g2372
I1
ss(S'I'
g78
g233
tp3948
(dp3949
g104
I1
ss(g35
g915
g1149
tp3950
(dp3951
g181
I1
ss(g1123
g1231
g736
tp3952
(dp3953
g848
I1
ss(S'-'
g1048
S'.'
tp3954
(dp3955
S'\x00'
I1
ss(S','
g2455
g185
tp3956
(dp3957
g777
I1
ss(g1306
S','
g622
tp3958
(dp3959
g2437
I1
ss(g49
g693
g326
tp3960
(dp3961
g228
I1
ss(S'.'
g42
g396
tp3962
(dp3963
g1337
I1
ss(S','
g275
g1116
tp3964
(dp3965
g395
I1
ss(g1785
S','
g642
tp3966
(dp3967
g111
I1
ss(g510
g251
g597
tp3968
(dp3969
g556
I1
ss(g625
g2000
g843
tp3970
(dp3971
g859
I1
ss(S'of'
p3972
g2177
S','
tp3973
(dp3974
g2095
I1
ss(g67
g1740
g276
tp3975
(dp3976
S','
I1
ss(g834
g1301
g2272
tp3977
(dp3978
g3618
I1
ss(g104
g912
g222
tp3979
(dp3980
g804
I1
ss(g320
g1721
g97
tp3981
(dp3982
S','
I1
ss(g24
S','
g252
tp3983
(dp3984
S','
I1
ss(g1453
g3341
g69
tp3985
(dp3986
g1316
I1
ss(g12
g71
S'.'
tp3987
(dp3988
g103
I1
ss(g2437
g347
g83
tp3989
(dp3990
g1346
I1
ss(g360
g389
S','
tp3991
(dp3992
g2639
I1
ss(g1279
S'I'
g2569
tp3993
(dp3994
g381
I1
ss(g840
g2634
g115
tp3995
(dp3996
g701
I2
ss(g2921
g1126
g1035
tp3997
(dp3998
g22
I1
ss(S','
g85
g329
tp3999
(dp4000
g282
I1
ss(g1454
g481
g1351
tp4001
(dp4002
g512
I1
ss(g158
g1601
g142
tp4003
(dp4004
g469
I1
ss(g197
g101
g1073
tp4005
(dp4006
g90
I1
ss(g1541
g1302
g165
tp4007
(dp4008
g602
I1
ss(S'I'
g2569
g381
tp4009
(dp4010
g489
I1
ss(g1265
g149
S'.'
tp4011
(dp4012
g3174
I1
ss(g616
g130
g588
tp4013
(dp4014
g293
I1
ss(g961
S','
g2209
tp4015
(dp4016
g370
I1
ss(g707
g250
S','
tp4017
(dp4018
g641
I1
ss(g624
g338
g342
tp4019
(dp4020
g67
I1
ss(g848
g3285
g2861
tp4021
(dp4022
g157
I1
ss(g1611
S','
g156
tp4023
(dp4024
g1103
I1
ss(g229
g49
g693
tp4025
(dp4026
g326
I1
ss(S','
g3356
g519
tp4027
(dp4028
g1492
I1
ss(g335
g401
g1163
tp4029
(dp4030
g2891
I1
ss(g387
g349
g117
tp4031
(dp4032
g74
I1
ss(g482
g1557
g1505
tp4033
(dp4034
g1040
I1
ss(S'I'
g341
g1020
tp4035
(dp4036
g1145
I1
ss(g168
S','
g628
tp4037
(dp4038
g1450
I1
ss(g94
g199
g411
tp4039
(dp4040
g1188
I1
ss(g312
g409
g1687
tp4041
(dp4042
g376
I1
ss(g608
g1379
g1299
tp4043
(dp4044
g1987
I1
ss(g263
g213
g221
tp4045
(dp4046
g830
I1
ss(g409
g1687
g376
tp4047
(dp4048
g971
I1
ss(g3133
g138
g1746
tp4049
(dp4050
g1834
I1
ss(S'I'
g58
g28
tp4051
(dp4052
g239
I1
ss(S'and'
p4053
S'a'
g33
tp4054
(dp4055
g1693
I1
ss(g2701
g1755
g30
tp4056
(dp4057
S','
I1
ss(g899
g372
S'I'
tp4058
(dp4059
g328
I1
ss(g26
g1626
g204
tp4060
(dp4061
g144
I1
ss(g1593
g65
g1583
tp4062
(dp4063
S','
I1
ss(g354
g871
g1311
tp4064
(dp4065
S';'
I1
ss(g2835
g432
g1209
tp4066
(dp4067
S'a'
I1
ss(g432
g1209
S'a'
tp4068
(dp4069
g64
I1
ss(g88
g770
g110
tp4070
(dp4071
S'.'
I1
ss(g316
S';'
g1422
tp4072
(dp4073
S'I'
I1
ss(g511
g99
S','
tp4074
(dp4075
g2042
I1
ss(g933
g1909
g25
tp4076
(dp4077
g1028
I1
ss(g640
g1550
g985
tp4078
(dp4079
S','
I1
ss(g1159
g266
g1376
tp4080
(dp4081
g1281
I1
ss(g915
g1149
g181
tp4082
(dp4083
g1129
I1
ss(g306
g520
S','
tp4084
(dp4085
g629
I1
sg2431
I1
ss(g2199
g815
g88
tp4086
(dp4087
g770
I1
ss(g290
g1641
g1969
tp4088
(dp4089
S'.'
I1
ss(g327
g277
g126
tp4090
(dp4091
S','
I1
ss(g3414
g385
g1106
tp4092
(dp4093
g511
I1
ss(g380
S','
g2782
tp4094
(dp4095
g616
I1
ss(g257
g1168
g840
tp4096
(dp4097
g2634
I1
ss(g395
S','
g624
tp4098
(dp4099
g338
I1
ss(g1674
g773
S','
tp4100
(dp4101
g2789
I1
ss(g449
g304
g539
tp4102
(dp4103
g308
I1
ss(g878
g981
g94
tp4104
(dp4105
g199
I1
ss(g469
g313
S';'
tp4106
(dp4107
g1424
I1
ss(g287
S'.'
S'\x00'
tp4108
(dp4109
S'\x00'
I2
ss(S' '
S'I'
g3516
tp4110
(dp4111
S','
I1
sg62
I1
ss(g144
g166
S','
tp4112
(dp4113
g1833
I1
ss(g237
g334
g295
tp4114
(dp4115
g1668
I1
ss(g232
g346
g1549
tp4116
(dp4117
g1146
I1
ss(g639
g1014
g23
tp4118
(dp4119
g333
I1
ss(g98
g1480
S','
tp4120
(dp4121
g2216
I1
ss(g1283
g388
g1001
tp4122
(dp4123
g1154
I1
ss(g345
g1706
g1355
tp4124
(dp4125
S'I'
I1
ss(g1834
g1124
g1705
tp4126
(dp4127
g1283
I1
ss(g239
g55
S';'
tp4128
(dp4129
g1423
I1
ss(g404
g1620
g463
tp4130
(dp4131
g1153
I1
ss(g111
g1598
g860
tp4132
(dp4133
g1447
I1
ss(g2891
g26
g1626
tp4134
(dp4135
g204
I1
ss(S','
S'I'
g58
tp4136
(dp4137
g28
I1
ss(g353
S','
g637
tp4138
(dp4139
g483
I1
ss(S','
g139
S','
tp4140
(dp4141
g85
I1
ss(g114
g351
S','
tp4142
(dp4143
g2134
I1
ss(g1087
g982
g484
tp4144
(dp4145
g75
I1
ss(g336
S';'
g1425
tp4146
(dp4147
g200
I1
ss(g419
g1053
g649
tp4148
(dp4149
g259
I1
ss(g444
g1506
g331
tp4150
(dp4151
S','
I1
ss(g3174
g423
S'a'
tp4152
(dp4153
g325
I1
ss(g150
g1634
g658
tp4154
(dp4155
S'I'
I1
ss(g45
g243
g1512
tp4156
(dp4157
g2026
I1
ss(S'a'
g256
g1724
tp4158
(dp4159
S'a'
I1
ss(g1294
g128
S','
tp4160
(dp4161
g2088
I1
ss(g2455
g185
g777
tp4162
(dp4163
g2071
I1
ss(g947
S','
g640
tp4164
(dp4165
g1550
I1
ss(g48
g896
g482
tp4166
(dp4167
g1557
I1
ss(g1623
g3032
S'a'
tp4168
(dp4169
g202
I1
ss(g293
g1109
g187
tp4170
(dp4171
g878
I1
ss(g384
S','
g350
tp4172
(dp4173
g827
I1
ss(g1973
g245
g168
tp4174
(dp4175
S','
I1
ss(g889
g3783
g288
tp4176
(dp4177
S','
I1
ss(g40
g1244
g255
tp4178
(dp4179
g746
I1
ss(g2926
g1297
S','
tp4180
(dp4181
g1947
I1
ss(g704
g100
g1291
tp4182
(dp4183
g2731
I1
ss(g896
g482
g1557
tp4184
(dp4185
g1505
I1
ss(g1880
g1151
g215
tp4186
(dp4187
g608
I1
ss(g1564
g742
g261
tp4188
(dp4189
g837
I1
ss(g1706
g1355
S'I'
tp4190
(dp4191
g87
I1
ss(g52
g51
g1460
tp4192
(dp4193
g368
I1
ss(g594
g335
g401
tp4194
(dp4195
g1163
I1
ss(g622
g2437
g347
tp4196
(dp4197
g83
I1
ss(S'a'
g64
g542
tp4198
(dp4199
g190
I1
ss(g1092
g1303
g398
tp4200
(dp4201
g735
I1
ss(g1152
g495
g858
tp4202
(dp4203
S'I'
I1
ss(S','
g621
g2921
tp4204
(dp4205
g1126
I1
ss(g402
g782
g2690
tp4206
(dp4207
g956
I1
ss(g642
g111
g1598
tp4208
(dp4209
g860
I1
ss(g56
g1196
g2372
tp4210
(dp4211
g327
I1
ss(g2734
g1279
S'I'
tp4212
(dp4213
g2569
I1
ss(g1696
g430
S';'
tp4214
(dp4215
g7
I1
ss(g602
g16
g466
tp4216
(dp4217
g162
I1
ss(S','
g2088
g440
tp4218
(dp4219
S','
I1
ss(g659
g375
g789
tp4220
(dp4221
g762
I1
ss(S'I'
g328
g322
tp4222
(dp4223
g344
I1
sg105
I1
ss(g106
g1690
g2479
tp4224
(dp4225
g384
I1
ss(g126
S','
g631
tp4226
(dp4227
g1709
I1
ss(g2521
g1121
g1343
tp4228
(dp4229
g315
I1
sg1308
I1
ss(g1607
S','
g2389
tp4230
(dp4231
S'I'
I1
ss(g1947
g264
g1712
tp4232
(dp4233
g93
I1
ss(g2336
g1287
g307
tp4234
(dp4235
g122
I1
ss(g121
g1617
g1925
tp4236
(dp4237
g136
I1
ss(g375
g789
g762
tp4238
(dp4239
g410
I1
ss(g975
S','
g621
tp4240
(dp4241
g2921
I1
ss(S'.'
g17
g1532
tp4242
(dp4243
g1123
I1
ss(g789
g762
g410
tp4244
(dp4245
g729
I1
ss(g103
g1509
g842
tp4246
(dp4247
g659
I1
ss(g542
g190
g905
tp4248
(dp4249
g170
I1
ss(g164
g455
g1457
tp4250
(dp4251
g353
I1
ss(g189
g234
g15
tp4252
(dp4253
g283
I1
ss(g2501
g960
S'-'
tp4254
(dp4255
g24
I1
ss(g2325
g1286
g933
tp4256
(dp4257
g1909
I1
ss(S','
g2964
S'I'
tp4258
(dp4259
g1139
I1
ss(g326
g228
g1541
tp4260
(dp4261
g1302
I1
ss(g759
g1300
g284
tp4262
(dp4263
g1473
I1
ss(g430
S';'
g7
tp4264
(dp4265
g930
I1
ss(g3495
g172
g1076
tp4266
(dp4267
g121
I1
ss(S' '
g360
g389
tp4268
(dp4269
S','
I1
ss(g459
g1452
g1214
tp4270
(dp4271
g169
I1
ss(g1550
g985
S','
tp4272
(dp4273
g407
I1
ss(g2967
g39
g1644
tp4274
(dp4275
g91
I1
ss(g1139
g444
g1506
tp4276
(dp4277
g331
I1
ss(g46
g1234
g1122
tp4278
(dp4279
g1087
I1
ss(g518
g8
g722
tp4280
(dp4281
g43
I1
ss(g276
S','
g2405
tp4282
(dp4283
g2521
I1
ss(g2042
g2204
g225
tp4284
(dp4285
g524
I1
ss(g369
g889
g3783
tp4286
(dp4287
g288
I1
ss(g236
g707
g250
tp4288
(dp4289
S','
I1
ss(g318
g1529
g176
tp4290
(dp4291
S'I'
I1
ss(S' '
g294
S'I'
tp4292
(dp4293
S','
I1
ss(g1033
g1771
g320
tp4294
(dp4295
g1721
I1
ss(g1755
g30
S','
tp4296
(dp4297
g2436
I1
ss(g279
g1009
g844
tp4298
(dp4299
g195
I1
ss(g918
g2176
g300
tp4300
(dp4301
g348
I1
ss(g57
S'.'
S'\x00'
tp4302
(dp4303
S'\x00'
I2
ss(g29
S'.'
g17
tp4304
(dp4305
g1532
I1
ss(g930
g2835
g432
tp4306
(dp4307
g1209
I1
ss(g861
g50
g670
tp4308
(dp4309
g159
I1
ss(g288
S','
g2005
tp4310
(dp4311
g1282
I1
ss(g1241
S','
g2151
tp4312
(dp4313
g1284
I1
ss(g76
g123
g366
tp4314
(dp4315
g145
I1
ss(S','
g628
g1450
tp4316
(dp4317
g175
I1
ss(g636
g152
g688
tp4318
(dp4319
g3495
I1
ss(g171
S'.'
S'\x00'
tp4320
(dp4321
S'\x00'
I2
ss(g1422
S'I'
g297
tp4322
(dp4323
g279
I1
ss(S','
g641
g743
tp4324
(dp4325
g287
I1
ss(S'.'
g77
g536
tp4326
(dp4327
g521
I1
ss(g1048
S'.'
S'\x00'
tp4328
(dp4329
S'\x00'
I2
ss(g3285
g2861
g157
tp4330
(dp4331
g533
I1
ss(g96
g35
g915
tp4332
(dp4333
g1149
I1
ss(g81
g422
g507
tp4334
(dp4335
g424
I1
ss(g1730
g236
g707
tp4336
(dp4337
g250
I1
ss(S'a'
g107
g1409
tp4338
(dp4339
S','
I1
ss(g474
g129
S','
tp4340
(dp4341
g636
I1
ss(g191
g418
g426
tp4342
(dp4343
g420
I1
ss(g1150
S';'
g402
tp4344
(dp4345
g782
I1
ss(S','
g629
g1592
tp4346
(dp4347
g12
I1
ss(g955
g114
g351
tp4348
(dp4349
S','
I1
ss(S'.'
g214
g824
tp4350
(dp4351
g1607
I1
ss(g72
g1428
g31
tp4352
(dp4353
g267
I1
ss(g1219
g184
g286
tp4354
(dp4355
g979
I1
ss(g87
g374
g774
tp4356
(dp4357
g196
I1
ss(g340
g1215
g2008
tp4358
(dp4359
g2926
I1
ss(S','
g3413
g95
tp4360
(dp4361
g1727
I1
ss(g1457
g353
S','
tp4362
(dp4363
g637
I1
ss(g533
g1448
g413
tp4364
(dp4365
g1017
I1
ss(g285
g219
g1649
tp4366
(dp4367
g3367
I1
ss(g1480
S','
g2216
tp4368
(dp4369
g237
I1
ss(g960
S'-'
g24
tp4370
(dp4371
S','
I1
ss(g399
S','
g2701
tp4372
(dp4373
g1755
I1
ss(g1193
g238
g419
tp4374
(dp4375
g1053
I1
ss(g324
g108
g1564
tp4376
(dp4377
g742
I1
ss(g1284
g1216
g1325
tp4378
(dp4379
g265
I1
ss(S'a'
g325
g393
tp4380
(dp4381
g1575
I1
ss(g2177
S','
g2095
tp4382
(dp4383
g201
I1
ss(g1526
g148
S','
tp4384
(dp4385
g2336
I1
ss(g1145
g63
g84
tp4386
(dp4387
g182
I1
ss(S','
g640
g1550
tp4388
(dp4389
g985
I1
ss(g2178
g558
g739
tp4390
(dp4391
g317
I1
ss(g1076
g121
g1617
tp4392
(dp4393
g1925
I1
ss(g149
S'.'
g3174
tp4394
(dp4395
g423
I1
ss(g230
g513
g1451
tp4396
(dp4397
g56
I1
ss(S'.'
g3149
g132
tp4398
(dp4399
S','
I1
ss(g1727
g1147
g986
tp4400
(dp4401
S','
I1
ss(g1276
g881
S'.'
tp4402
(dp4403
g77
I1
ss(g410
g729
g2199
tp4404
(dp4405
g815
I1
ss(g79
g710
g676
tp4406
(dp4407
g373
I1
ss(g615
g877
g292
tp4408
(dp4409
S'-'
I1
ss(g782
g2690
g956
tp4410
(dp4411
g868
I1
ss(g623
g862
g48
tp4412
(dp4413
g896
I1
ss(S','
g350
g827
tp4414
(dp4415
g1238
I1
ss(g2272
g3618
g1004
tp4416
(dp4417
g459
I1
ss(g637
g483
S','
tp4418
(dp4419
g639
I1
sg112
I1
ss(g626
g1735
g1611
tp4420
(dp4421
S','
I1
ss(g1147
g986
S','
tp4422
(dp4423
g623
I1
ss(g1448
g413
g1017
tp4424
(dp4425
g253
I1
ss(g801
g1298
g356
tp4426
(dp4427
g211
I1
ss(g902
g82
g218
tp4428
(dp4429
g96
I1
ss(S'a'
g44
g36
tp4430
(dp4431
g765
I1
ss(S'is'
p4432
g1794
g210
tp4433
(dp4434
g801
I1
ss(g330
g359
g1526
tp4435
(dp4436
g148
I1
ss(S'-'
g24
S','
tp4437
(dp4438
g252
I1
ss(g660
g425
g305
tp4439
(dp4440
S','
I1
ss(g557
g289
g271
tp4441
(dp4442
g1082
I1
ss(S'I'
g247
g45
tp4443
(dp4444
g243
I1
ss(g65
g1583
S','
tp4445
(dp4446
g280
I1
ss(g271
g1082
g1278
tp4447
(dp4448
g167
I1
ss(g70
g310
g302
tp4449
(dp4450
g321
I1
ss(g15
g283
g379
tp4451
(dp4452
g86
I1
sg1297
I1
ss(g313
S';'
g1424
tp4453
(dp4454
g2710
I1
ss(g1379
g1299
g1987
tp4455
(dp4456
g458
I1
ss(g284
g1473
g2854
tp4457
(dp4458
S','
I1
ss(g295
g1668
g183
tp4459
(dp4460
g1696
I1
ss(g208
g340
g1215
tp4461
(dp4462
g2008
I1
ss(g1035
g22
g1671
tp4463
(dp4464
S','
I1
ss(g1925
g136
g414
tp4465
(dp4466
g1403
I1
ss(S','
g642
g111
tp4467
(dp4468
g1598
I1
ss(g427
g834
g1301
tp4469
(dp4470
g2272
I1
ss(g1244
g255
g746
tp4471
(dp4472
g227
I1
ss(g974
g72
g1428
tp4473
(dp4474
g31
I1
ss(g985
S','
g407
tp4475
(dp4476
g92
I1
ss(g496
g1185
g231
tp4477
(dp4478
g1206
I1
ss(g388
g1001
g1154
tp4479
(dp4480
g354
I1
ss(S','
g633
g263
tp4481
(dp4482
g213
I1
ss(g2526
g125
S','
tp4483
(dp4484
g2455
I1
ss(g323
g1623
g3032
tp4485
(dp4486
S'a'
I1
ss(g90
g216
g501
tp4487
(dp4488
g1768
I1
ss(g1277
g603
g68
tp4489
(dp4490
S','
I1
ss(S'.'
g106
g1690
tp4491
(dp4492
g2479
I1
ss(g1061
g1304
g980
tp4493
(dp4494
g1268
I1
ss(g1982
g1751
g46
tp4495
(dp4496
g1234
I1
ss(g143
g47
S','
tp4497
(dp4498
g626
I1
ss(g245
g168
S','
tp4499
(dp4500
g628
I1
ss(g334
g295
g1668
tp4501
(dp4502
g183
I1
ss(g344
g902
g82
tp4503
(dp4504
g218
I1
ss(g1909
g25
g1028
tp4505
(dp4506
g2516
I1
ss(g946
g415
g994
tp4507
(dp4508
g1043
I1
ss(g418
g426
g420
tp4509
(dp4510
g160
I1
ss(g641
g743
g287
tp4511
(dp4512
S'.'
I1
ss(g261
g837
S','
tp4513
(dp4514
g625
I1
ss(g42
g396
g1337
tp4515
(dp4516
S','
I1
ss(g1288
g3288
g2118
tp4517
(dp4518
g433
I1
ss(g1987
g458
g661
tp4519
(dp4520
g272
I1
ss(g1505
g1040
g246
tp4521
(dp4522
g1730
I1
ss(g790
g403
S','
tp4523
(dp4524
g2325
I1
ss(g123
g366
g145
tp4525
(dp4526
g1465
I1
ss(g13
g405
S','
tp4527
(dp4528
g434
I1
ss(g348
S'.'
g365
tp4529
(dp4530
g1638
I1
ss(S'I'
g1982
g1751
tp4531
(dp4532
g46
I1
ss(g1712
g93
g66
tp4533
(dp4534
g1400
I1
ss(g1034
g186
S','
tp4535
(dp4536
g19
I1
ss(g2442
g683
g518
tp4537
(dp4538
g8
I1
ss(g815
g88
g770
tp4539
(dp4540
g110
I1
ss(g291
g1660
g2055
tp4541
(dp4542
g158
I1
ss(S','
g643
g961
tp4543
(dp4544
S','
I1
ss(g3288
g2118
g433
tp4545
(dp4546
g1034
I1
ss(g220
g358
S','
tp4547
(dp4548
g3413
I1
ss(g421
g673
g1453
tp4549
(dp4550
g3341
I1
ss(g956
g868
g831
tp4551
(dp4552
g861
I1
ss(g425
g305
S','
tp4553
(dp4554
g207
I1
ss(S','
g2868
g1277
tp4555
(dp4556
g603
I1
ss(g2405
g2521
g1121
tp4557
(dp4558
g1343
I1
ss(S':'
g278
S','
tp4559
(dp4560
g371
I1
ss(g1465
g1148
S','
tp4561
(dp4562
S'I'
I1
sg1784
I2
sg1785
I1
ss(g1735
g1611
S','
tp4563
(dp4564
g156
I1
ss(g1146
g577
g428
tp4565
(dp4566
g209
I1
ss(g294
S'I'
S','
tp4567
(dp4568
g139
I1
ss(g842
g659
g375
tp4569
(dp4570
g789
I1
ss(g200
g1417
g2020
tp4571
(dp4572
g299
I1
ss(g649
g259
g1391
tp4573
(dp4574
S'a'
I1
ss(g1149
g181
g1129
tp4575
(dp4576
g226
I1
ss(g1020
g1145
g63
tp4577
(dp4578
g84
I1
ss(g155
S';'
g2025
tp4579
(dp4580
g1285
I1
ss(g737
g3280
g3065
tp4581
(dp4582
S','
I1
ss(g211
g1241
S','
tp4583
(dp4584
g2151
I1
ss(g1428
g31
g267
tp4585
(dp4586
g1193
I1
ss(g420
g160
g260
tp4587
(dp4588
g178
I1
ss(g272
g1470
g339
tp4589
(dp4590
S'.'
I1
ss(g1512
g2026
S','
tp4591
(dp4592
g2029
I1
ss(g352
g1237
g59
tp4593
(dp4594
g301
I1
ss(g343
S','
g1820
tp4595
(dp4596
g137
I1
ss(g21
g230
g513
tp4597
(dp4598
g1451
I1
ss(g844
g195
g989
tp4599
(dp4600
g2943
I1
ss(g1746
g1834
g1124
tp4601
(dp4602
g1705
I1
ss(g347
g83
g1346
tp4603
(dp4604
g336
I1
ss(g251
g597
g556
tp4605
(dp4606
g223
I1
ss(g397
S'.'
g2990
tp4607
(dp4608
g153
I1
ss(g1311
S';'
g60
tp4609
(dp4610
S','
I1
ss(g206
g314
S','
tp4611
(dp4612
g619
I1
ss(g1572
g217
S','
tp4613
(dp4614
g2458
I1
ss(g226
S','
S'I'
tp4615
(dp4616
g70
I1
ss(g133
g1230
g171
tp4617
(dp4618
S'.'
I1
ss(g774
g196
g1382
tp4619
(dp4620
S';'
I1
ss(g2296
g1449
g439
tp4621
(dp4622
g846
I1
ss(g66
g1400
g258
tp4623
(dp4624
g290
I1
ss(g939
g361
g34
tp4625
(dp4626
S'I'
I1
ss(g1583
S','
g280
tp4627
(dp4628
g1319
I1
ss(g156
g1103
g3133
tp4629
(dp4630
g138
I1
ss(g116
g1483
g431
tp4631
(dp4632
S','
I1
ss(g185
g777
g2071
tp4633
(dp4634
g2251
I1
ss(g1417
g2020
g299
tp4635
(dp4636
g492
I1
ss(g361
g34
S'I'
tp4637
(dp4638
g416
I1
ss(g371
S','
g3356
tp4639
(dp4640
g519
I1
ss(S'.'
g254
g296
tp4641
(dp4642
g197
I1
ss(S','
S'I'
g70
tp4643
(dp4644
g310
I1
ss(g874
g224
g1438
tp4645
(dp4646
g1307
I1
ss(g1278
g167
g1256
tp4647
(dp4648
g131
I1
ss(g181
g1129
g226
tp4649
(dp4650
S','
I1
ss(g381
g489
g161
tp4651
(dp4652
g262
I1
ss(S','
g635
g783
tp4653
(dp4654
g3588
I1
ss(g1302
g165
g602
tp4655
(dp4656
g16
I1
ss(g821
g496
g1185
tp4657
(dp4658
g231
I1
ss(g1238
g324
g108
tp4659
(dp4660
g1564
I1
ss(g1017
g253
g1294
tp4661
(dp4662
g128
I1
ss(g255
g746
g227
tp4663
(dp4664
g1496
I1
ss(g1231
g736
g848
tp4665
(dp4666
g3285
I1
ss(g137
g936
g355
tp4667
(dp4668
g76
I1
ss(g91
g1058
g73
tp4669
(dp4670
g205
I1
ss(g152
g688
g3495
tp4671
(dp4672
g172
I1
ss(g1124
g1705
g1283
tp4673
(dp4674
g388
I1
ss(S','
g112
g53
tp4675
(dp4676
g116
I1
ss(g1129
g226
S','
tp4677
(dp4678
S'I'
I1
ss(g628
g1450
g175
tp4679
(dp4680
g387
I1
ss(g2590
g1454
g481
tp4681
(dp4682
g1351
I1
ss(g36
g765
g249
tp4683
(dp4684
g208
I1
ss(g2431
g2267
g660
tp4685
(dp4686
g425
I1
ss(g1391
S'a'
g44
tp4687
(dp4688
g36
I1
ss(g1137
g392
g268
tp4689
(dp4690
g1614
I1
ss(g667
g1306
S','
tp4691
(dp4692
g622
I1
ss(g332
g1220
g41
tp4693
(dp4694
g1086
I1
ss(g1861
g841
S','
tp4695
(dp4696
S'who'
p4697
I1
ss(g1040
g246
g1730
tp4698
(dp4699
g236
I1
ss(S','
g207
S'.'
tp4700
(dp4701
S'\x00'
I1
ss(g207
S'.'
S'\x00'
tp4702
(dp4703
S'\x00'
I2
ss(g1153
S'.'
g164
tp4704
(dp4705
g455
I1
ss(g225
g524
g1159
tp4706
(dp4707
g266
I1
ss(S'I'
g61
g1066
tp4708
(dp4709
g472
I1
ss(g214
g824
g1607
tp4710
(dp4711
S','
I1
ss(g1644
g91
g1058
tp4712
(dp4713
g73
I1
ss(S','
g119
S':'
tp4714
(dp4715
g278
I1
ss(g145
g1465
g1148
tp4716
(dp4717
S','
I1
ss(g34
S'I'
g416
tp4718
(dp4719
g378
I2
ss(g209
S','
g306
tp4720
(dp4721
g520
I1
ss(S','
g620
g406
tp4722
(dp4723
g400
I1
ss(g244
g704
g100
tp4724
(dp4725
g1291
I1
ss(S','
g434
g285
tp4726
(dp4727
g219
I1
ss(g153
g855
g1940
tp4728
(dp4729
g1219
I1
ss(g940
g1718
g3140
tp4730
(dp4731
g248
I1
ss(g830
g98
g1480
tp4732
(dp4733
S','
I1
ss(g129
S','
g636
tp4734
(dp4735
g152
I1
ss(g268
g1614
g397
tp4736
(dp4737
S'.'
I1
ss(g365
g1638
S'a'
tp4738
(dp4739
g256
I1
ss(g227
g1496
g120
tp4740
(dp4741
g399
I1
ss(g2216
g237
g334
tp4742
(dp4743
g295
I1
ss(g426
g420
g160
tp4744
(dp4745
g260
I1
ss(S','
g206
g314
tp4746
(dp4747
S','
I1
ss(g3783
g288
S','
tp4748
(dp4749
g2005
I1
ss(S'a'
g33
g1693
tp4750
(dp4751
g79
I1
ss(S','
g1861
g841
tp4752
(dp4753
S','
I1
ss(g3080
g386
g298
tp4754
(dp4755
g698
I1
ss(g1304
g980
g1268
tp4756
(dp4757
g450
I1
ss(g1351
g512
g1572
tp4758
(dp4759
g217
I1
ss(S','
g81
g422
tp4760
(dp4761
g507
I1
ss(g2279
g474
g129
tp4762
(dp4763
S','
I1
ss(S','
g352
g1237
tp4764
(dp4765
g59
I1
ss(g638
g1631
g1487
tp4766
(dp4767
g133
I1
ss(g349
g117
g74
tp4768
(dp4769
g886
I1
ss(g1116
g395
S','
tp4770
(dp4771
g624
I1
ss(g43
g203
g14
tp4772
(dp4773
g943
I1
ss(g1053
g649
g259
tp4774
(dp4775
g1391
I1
ss(g351
S','
g2134
tp4776
(dp4777
g32
I1
ss(g180
g1363
g1313
tp4778
(dp4779
g959
I1
ss(g1671
S','
g630
tp4780
(dp4781
g737
I1
ss(S','
g2639
S','
tp4782
(dp4783
g634
I1
ss(g138
g1746
g1834
tp4784
(dp4785
g1124
I1
ss(g2479
g384
S','
tp4786
(dp4787
g350
I1
ss(g303
g863
g40
tp4788
(dp4789
g1244
I1
ss(g32
S','
g633
tp4790
(dp4791
g263
I1
ss(g1073
g90
g216
tp4792
(dp4793
g501
I1
ss(g321
S'.'
g254
tp4794
(dp4795
g296
I1
ss(g238
g419
g1053
tp4796
(dp4797
g649
I1
ss(g2267
g660
g425
tp4798
(dp4799
g305
I1
ss(g435
g1544
g2347
tp4800
(dp4801
g452
I1
ss(S','
g2005
g1282
tp4802
(dp4803
g2279
I1
sg179
I1
ss(g297
g279
g1009
tp4804
(dp4805
g844
I1
ss(g1355
S'I'
g87
tp4806
(dp4807
g374
I1
ss(g1234
g1122
g1087
tp4808
(dp4809
g982
I1
ss(g886
g1305
g1033
tp4810
(dp4811
g1771
I1
ss(g1690
g2479
g384
tp4812
(dp4813
S','
I1
ss(S' '
g198
g177
tp4814
(dp4815
S','
I1
ss(S';'
g1422
S'I'
tp4816
(dp4817
g297
I1
ss(g310
g302
g321
tp4818
(dp4819
S'.'
I1
ss(g223
g303
g863
tp4820
(dp4821
g40
I1
ss(g734
g29
S'.'
tp4822
(dp4823
g17
I1
ss(S'.'
g365
g1638
tp4824
(dp4825
S'a'
I1
ss(g1544
g2347
g452
tp4826
(dp4827
g2490
I1
ss(g1298
g356
g211
tp4828
(dp4829
g1241
I1
ss(g346
g1549
g1146
tp4830
(dp4831
g577
I1
ss(g130
g588
g293
tp4832
(dp4833
g1109
I1
ss(g1614
g397
S'.'
tp4834
(dp4835
g2990
I1
ss(g252
S','
g620
tp4836
(dp4837
g406
I1
ss(g2127
S':'
g1340
tp4838
(dp4839
g974
I1
ss(g246
g1730
g236
tp4840
(dp4841
g707
I1
ss(g484
g75
g1061
tp4842
(dp4843
g1304
I1
ss(g950
g2908
g2601
tp4844
(dp4845
g1412
I1
ss(g588
g293
g1109
tp4846
(dp4847
g187
I1
ss(g1009
g844
g195
tp4848
(dp4849
g989
I1
ss(g576
g380
S','
tp4850
(dp4851
g2782
I1
ss(g2221
g3972
g2177
tp4852
(dp4853
S','
I1
ss(g1154
g354
g871
tp4854
(dp4855
g1311
I1
ss(g131
g667
g1306
tp4856
(dp4857
S','
I1
ss(g84
g182
g1717
tp4858
(dp4859
S','
I1
ss(g773
S','
g2789
tp4860
(dp4861
g435
I1
ss(g1601
g142
g469
tp4862
(dp4863
g313
I1
ss(g452
g2490
g1310
tp4864
(dp4865
g1160
I1
ss(g472
S'I'
g2967
tp4866
(dp4867
g39
I1
ss(g1940
g1219
g184
tp4868
(dp4869
g286
I1
ss(S','
g2734
g1279
tp4870
(dp4871
S'I'
I1
ss(g289
g271
g1082
tp4872
(dp4873
g1278
I1
ss(g254
g296
g197
tp4874
(dp4875
g101
I1
ss(g408
g1665
g147
tp4876
(dp4877
S'.'
I1
ss(g1322
g1716
g3876
tp4878
(dp4879
S'well'
p4880
I1
ss(g1196
g2372
g327
tp4881
(dp4882
g277
I1
ss(g22
g1671
S','
tp4883
(dp4884
g630
I1
ss(g282
S','
g191
tp4885
(dp4886
g418
I1
ss(g1751
g46
g1234
tp4887
(dp4888
g1122
I1
ss(g218
g96
g35
tp4889
(dp4890
g915
I1
ss(g1743
g1152
g495
tp4891
(dp4892
g858
I1
ss(g386
g298
g698
tp4893
(dp4894
g1684
I1
ss(g385
g1106
g511
tp4895
(dp4896
g99
I1
ss(g2025
g1285
g38
tp4897
(dp4898
g591
I1
ss(g3121
g449
g304
tp4899
(dp4900
g539
I1
ss(g1438
g1307
S'.'
tp4901
(dp4902
g214
I1
ss(g521
g441
g318
tp4903
(dp4904
g1529
I1
ss(g217
S','
g2458
tp4905
(dp4906
S'had'
p4907
I1
ss(g1058
g73
g205
tp4908
(dp4909
S'.'
I1
ss(g162
g20
g281
tp4910
(dp4911
g1358
I1
ss(g1185
g231
g1206
tp4912
(dp4913
g3794
I1
ss(g3794
S','
g1785
tp4914
(dp4915
S','
I1
ss(g3367
S','
g2178
tp4916
(dp4917
g558
I1
ss(g357
g188
g1433
tp4918
(dp4919
g2501
I1
ss(g661
g272
g1470
tp4920
(dp4921
g339
I1
ss(g142
g469
g313
tp4922
(dp4923
S';'
I1
ss(g193
S'.'
g899
tp4924
(dp4925
g372
I1
ss(g648
g193
S'.'
tp4926
(dp4927
g899
I1
sg140
I1
ss(g492
g244
g704
tp4928
(dp4929
g100
I1
ss(g1912
g80
S','
tp4930
(dp4931
g3433
I1
ss(g631
g1709
g257
tp4932
(dp4933
g1168
I1
ss(g179
g1330
g1125
tp4934
(dp4935
g2590
I1
ss(g110
S'.'
g2442
tp4936
(dp4937
g683
I1
ss(g862
g48
g896
tp4938
(dp4939
g482
I1
ss(g1325
g265
g950
tp4940
(dp4941
g2908
I1
ss(g676
g373
g553
tp4942
(dp4943
g2886
I1
ss(g148
S','
g2336
tp4944
(dp4945
g1287
I1
ss(g231
g1206
g3794
tp4946
(dp4947
S','
I1
ss(g74
g886
g1305
tp4948
(dp4949
g1033
I1
ss(S'a'
g427
g834
tp4950
(dp4951
g1301
I1
ss(g1655
g1973
g245
tp4952
(dp4953
g168
I1
ss(S'.'
g3174
g423
tp4954
(dp4955
S'a'
I1
ss(S';'
g1423
g976
tp4956
(dp4957
g929
I1
ss(S','
g306
g520
tp4958
(dp4959
S','
I2
ss(S','
g1784
g1288
tp4960
(dp4961
g3288
I1
ss(g266
g1376
g1281
tp4962
(dp4963
g576
I1
ss(g501
g1768
g194
tp4964
(dp4965
g163
I1
ss(g783
g3588
g212
tp4966
(dp4967
g1743
I1
ss(g1969
S'.'
g391
tp4968
(dp4969
S'I'
I1
ss(g69
g1316
S';'
tp4970
(dp4971
g2526
I1
ss(S'.'
g2259
g1635
tp4972
(dp4973
g1711
I1
ss(S','
S'I'
g235
tp4974
(dp4975
g655
I1
ss(g117
g74
g886
tp4976
(dp4977
g1305
I1
ss(g100
g1291
g2731
tp4978
(dp4979
S';'
I1
ss(g300
g348
S'.'
tp4980
(dp4981
g365
I1
ss(g567
g1493
g738
tp4982
(dp4983
g473
I1
ss(g1343
g315
g367
tp4984
(dp4985
g715
I1
ss(S','
g632
g940
tp4986
(dp4987
g1718
I1
ss(g1249
g1312
g332
tp4988
(dp4989
g1220
I1
ss(g3032
S'a'
g202
tp4990
(dp4991
g412
I1
ss(g119
S':'
g278
tp4992
(dp4993
S','
I1
ss(g234
g15
g283
tp4994
(dp4995
g379
I1
ss(g407
g92
g1079
tp4996
(dp4997
g369
I1
ss(S'I'
g2246
g62
tp4998
(dp4999
g417
I1
ss(g77
g536
g521
tp5000
(dp5001
g441
I1
ss(g38
g591
g151
tp5002
(dp5003
g1354
I1
ss(g269
S','
g638
tp5004
(dp5005
g1631
I1
ss(g240
S'I'
g1137
tp5006
(dp5007
g392
I1
ss(g329
g282
S','
tp5008
(dp5009
g191
I1
ss(g174
g154
g924
tp5010
(dp5011
g311
I1
ss(g976
g929
g429
tp5012
(dp5013
g180
I1
ss(g3065
S','
g112
tp5014
(dp5015
g53
I1
ss(g439
g846
g337
tp5016
(dp5017
g946
I1
ss(g846
g337
g946
tp5018
(dp5019
g415
I1
ss(g2055
g158
g1601
tp5020
(dp5021
g142
I1
ss(g2058
g155
S';'
tp5022
(dp5023
g2025
I1
ss(g3516
S','
g3519
tp5024
(dp5025
S'Timaeus'
p5026
I1
ss(g512
g1572
g217
tp5027
(dp5028
S','
I1
ss(S','
g280
g1319
tp5029
(dp5030
g1880
I1
ss(g634
g557
g289
tp5031
(dp5032
g271
I1
ss(g378
g648
g193
tp5033
(dp5034
S'.'
I2
ss(S'.'
g323
g1623
tp5035
(dp5036
g3032
I1
ss(g860
g1447
g1713
tp5037
(dp5038
g408
I1
ss(g151
g1354
g54
tp5039
(dp5040
S','
I1
ss(g1492
g947
S','
tp5041
(dp5042
g640
I1
ss(g256
g1724
S'a'
tp5043
(dp5044
g357
I1
ss(g342
g67
g1740
tp5045
(dp5046
g276
I1
ss(g433
g1034
g186
tp5047
(dp5048
S','
I1
ss(g715
g382
g921
tp5049
(dp5050
g790
I1
ss(g2134
g32
S','
tp5051
(dp5052
g633
I1
ss(g27
g572
g273
tp5053
(dp5054
g113
I1
ss(g1163
g2891
g26
tp5055
(dp5056
g1626
I1
ss(g182
g1717
S','
tp5057
(dp5058
g352
I1
ss(g1768
g194
g163
tp5059
(dp5060
g652
I1
ss(g184
g286
g979
tp5061
(dp5062
g1972
I1
ss(g1549
g1146
g577
tp5063
(dp5064
g428
I1
ss(g159
g1201
g1276
tp5065
(dp5066
g881
I1
ss(g165
g602
g16
tp5067
(dp5068
g466
I1
ss(g1721
g97
S','
tp5069
(dp5070
g2868
I1
ss(g4880
g2416
g1309
tp5071
(dp5072
g1085
I1
ss(g102
g1132
g1950
tp5073
(dp5074
g10
I1
ss(g118
S','
S'I'
tp5075
(dp5076
g58
I1
ss(g64
g542
g190
tp5077
(dp5078
g905
I1
ss(g125
S','
g2455
tp5079
(dp5080
g185
I1
ss(g17
g1532
g1123
tp5081
(dp5082
g1231
I1
ss(S';'
g1811
g975
tp5083
(dp5084
S','
I1
ss(g277
g126
S','
tp5085
(dp5086
g631
I1
ss(g314
S','
g619
tp5087
(dp5088
g13
I1
ss(g362
S'.'
g323
tp5089
(dp5090
g1623
I1
ss(g424
S','
S'I'
tp5091
(dp5092
g1138
I1
ss(S'satisfied'
p5093
g2820
S'a'
tp5094
(dp5095
g427
I1
ss(g1273
g21
g230
tp5096
(dp5097
g513
I1
ss(g1299
g1987
g458
tp5098
(dp5099
g661
I1
ss(g788
g274
g1681
tp5100
(dp5101
g52
I1
ss(g431
S','
g3005
tp5102
(dp5103
S'I'
I1
ss(g264
g1712
g93
tp5104
(dp5105
g66
I1
ss(g51
g1460
g368
tp5106
(dp5107
S','
I1
ss(g31
g267
g1193
tp5108
(dp5109
g238
I1
ss(g777
g2071
g2251
tp5110
(dp5111
g1408
I1
ss(g1188
g270
g1674
tp5112
(dp5113
g773
I1
ss(g572
g273
g113
tp5114
(dp5115
g1652
I1
ss(g235
g655
g3807
tp5116
(dp5117
g3121
I1
ss(g1604
g241
g377
tp5118
(dp5119
g394
I1
ss(g366
g145
g1465
tp5120
(dp5121
g1148
I1
ss(S'I'
g235
g655
tp5122
(dp5123
g3807
I1
ss(g1660
g2055
g158
tp5124
(dp5125
g1601
I1
ss(g169
g134
g504
tp5126
(dp5127
g1150
I1
ss(g831
g861
g50
tp5128
(dp5129
g670
I1
ss(g980
g1268
g450
tp5130
(dp5131
g102
I1
ss(g262
g1092
g1303
tp5132
(dp5133
g398
I1
ss(g92
g1079
g369
tp5134
(dp5135
g889
I1
ss(S','
g19
S','
tp5136
(dp5137
g627
I1
sg642
I1
sg2964
I1
ss(S','
g4053
S'a'
tp5138
(dp5139
g33
I1
ss(S'I'
g87
g374
tp5140
(dp5141
g774
I1
ss(g2254
S','
g3414
tp5142
(dp5143
g385
I1
ss(g1631
g1487
g133
tp5144
(dp5145
g1230
I1
ss(g278
S','
g371
tp5146
(dp5147
S','
I1
ss(g1122
g1087
g982
tp5148
(dp5149
g484
I1
ss(g762
g410
g729
tp5150
(dp5151
g2199
I1
ss(g1687
g376
g971
tp5152
(dp5153
g1486
I1
ss(g2118
g433
g1034
tp5154
(dp5155
g186
I1
ss(S','
g3414
g385
tp5156
(dp5157
g1106
I1
ss(g688
g3495
g172
tp5158
(dp5159
g1076
I1
ss(g176
S'I'
g247
tp5160
(dp5161
g45
I1
ss(g309
g460
g845
tp5162
(dp5163
g955
I1
ss(g2259
g1635
g1711
tp5164
(dp5165
g451
I1
ss(S','
g2789
g435
tp5166
(dp5167
g1544
I1
ss(g75
g1061
g1304
tp5168
(dp5169
g980
I1
ss(S','
S'I'
g1982
tp5170
(dp5171
g1751
I1
ss(S'I'
g1140
g734
tp5172
(dp5173
g29
I1
ss(g3605
S','
g627
tp5174
(dp5175
S'a'
I1
ss(S'I'
g1138
g57
tp5176
(dp5177
S'.'
I1
ss(g2392
g3259
g105
tp5178
(dp5179
S','
I1
ss(g693
g326
g228
tp5180
(dp5181
g1541
I1
ss(S'I'
g89
g1178
tp5182
(dp5183
g109
I1
ss(g1121
g1343
g315
tp5184
(dp5185
g367
I1
ss(g2000
g843
g859
tp5186
(dp5187
g319
I1
ss(g241
g377
g394
tp5188
(dp5189
g1225
I1
ss(g1282
g179
g1330
tp5190
(dp5191
g1125
I1
ss(S','
g2296
g1449
tp5192
(dp5193
g439
I1
ss(S':'
g1340
g974
tp5194
(dp5195
g72
I1
ss(g627
S'a'
g107
tp5196
(dp5197
g1409
I1
ss(S','
g1833
g141
tp5198
(dp5199
g242
I1
ss(g259
g1391
S'a'
tp5200
(dp5201
g44
I1
ss(g339
S'.'
g150
tp5202
(dp5203
g1634
I1
ss(g1449
g439
g846
tp5204
(dp5205
g337
I1
ss(g2458
g4907
g2279
tp5206
(dp5207
g474
I1
ss(g722
g43
g203
tp5208
(dp5209
g14
I1
ss(g53
g116
g1483
tp5210
(dp5211
g431
I1
ss(g317
g918
g2176
tp5212
(dp5213
g300
I1
ss(g440
S','
g275
tp5214
(dp5215
g1116
I1
ss(g1151
g215
g608
tp5216
(dp5217
g1379
I1
ss(g2820
S'a'
g427
tp5218
(dp5219
g834
I1
ss(g1641
g1969
S'.'
tp5220
(dp5221
g391
I1
ss(g260
g178
g847
tp5222
(dp5223
g189
I1
ss(g1043
g192
S'.'
tp5224
(dp5225
g106
I1
ss(g1168
g840
g2634
tp5226
(dp5227
g115
I1
ss(S'.'
g140
g37
tp5228
(dp5229
S','
I1
ss(g2088
g440
S','
tp5230
(dp5231
g275
I1
ss(S','
g156
g1103
tp5232
(dp5233
g3133
I1
ss(g1106
g511
g99
tp5234
(dp5235
S','
I1
ss(S','
g191
g418
tp5236
(dp5237
g426
I1
ss(g735
g3128
g788
tp5238
(dp5239
g274
I1
ss(g3128
g788
g274
tp5240
(dp5241
g1681
I1
ss(g2008
g2926
g1297
tp5242
(dp5243
S','
I1
ss(g2908
g2601
g1412
tp5244
(dp5245
g143
I1
ss(g97
S','
g2868
tp5246
(dp5247
g1277
I1
ss(g1610
g1249
g1312
tp5248
(dp5249
g332
I1
ss(g163
g652
S'?'
tp5250
(dp5251
S'I'
I1
ss(g1447
g1713
g408
tp5252
(dp5253
g1665
I1
ss(g292
S'-'
g1048
tp5254
(dp5255
S'.'
I1
ss(g2565
S'I'
g2568
tp5256
(dp5257
g390
I1
ss(g736
g848
g3285
tp5258
(dp5259
g2861
I1
ss(g1820
g137
g936
tp5260
(dp5261
g355
I1
ss(g331
S','
g635
tp5262
(dp5263
g783
I1
ss(g73
g205
S'.'
tp5264
(dp5265
g3149
I1
ss(S','
g624
g338
tp5266
(dp5267
g342
I1
ss(g1175
g1710
g291
tp5268
(dp5269
g1660
I1
ss(g5026
S','
g2431
tp5270
(dp5271
g2267
I2
ss(g1412
g143
g47
tp5272
(dp5273
S','
I1
ss(S','
g631
g1709
tp5274
(dp5275
g257
I1
ss(g216
g501
g1768
tp5276
(dp5277
g194
I1
ss(g1668
g183
g1696
tp5278
(dp5279
g430
I1
ss(g1178
g109
g1578
tp5280
(dp5281
g2262
I1
ss(g338
g342
g67
tp5282
(dp5283
g1740
I1
ss(g379
g86
g343
tp5284
(dp5285
S','
I1
ss(g1079
g369
g889
tp5286
(dp5287
g3783
I1
ss(S'I'
g1139
g444
tp5288
(dp5289
g1506
I1
ss(g1346
g336
S';'
tp5290
(dp5291
g1425
I1
ss(g2246
g62
g417
tp5292
(dp5293
g1567
I1
ss(g986
S','
g623
tp5294
(dp5295
g862
I1
ss(S'I'
g416
g378
tp5296
(dp5297
g648
I2
ss(g460
g845
g955
tp5298
(dp5299
g114
I1
ss(g400
g27
g572
tp5300
(dp5301
g273
I1
ss(g54
S','
g643
tp5302
(dp5303
g961
I1
ss(g765
g249
g208
tp5304
(dp5305
g340
I1
ss(g135
g1523
g146
tp5306
(dp5307
g1265
I1
ss(g1319
g1880
g1151
tp5308
(dp5309
g215
I1
ss(g78
g233
g104
tp5310
(dp5311
g912
I1
ss(g1713
g408
g1665
tp5312
(dp5313
g147
I1
ss(g1220
g41
g1086
tp5314
(dp5315
g18
I1
ss(g1281
g576
g380
tp5316
(dp5317
S','
I1
ss(S'.'
g2875
g1175
tp5318
(dp5319
g1710
I1
ss(g368
S','
S'I'
tp5320
(dp5321
g61
I1
ss(g187
g878
g981
tp5322
(dp5323
g94
I1
ss(g204
g144
g166
tp5324
(dp5325
S','
I1
ss(g2204
g225
g524
tp5326
(dp5327
g1159
I1
ss(g1109
g187
g878
tp5328
(dp5329
g981
I1
ss(g824
g1607
S','
tp5330
(dp5331
g2389
I1
ss(g1280
S','
g119
tp5332
(dp5333
S':'
I1
ss(g2943
g1610
g1249
tp5334
(dp5335
g1312
I1
sg1309
I1
ss(g274
g1681
g52
tp5336
(dp5337
g51
I1
ss(g250
S','
g641
tp5338
(dp5339
g743
I1
ss(S','
g619
g13
tp5340
(dp5341
g405
I1
ss(g311
g383
g127
tp5342
(dp5343
g939
I1
ss(g1286
g933
g1909
tp5344
(dp5345
g25
I1
ss(g2020
g299
g492
tp5346
(dp5347
g244
I1
ss(g837
S','
g625
tp5348
(dp5349
g2000
I1
ss(S'I'
g174
g154
tp5350
(dp5351
g924
I1
ss(g393
g1575
g173
tp5352
(dp5353
g594
I1
ss(g134
g504
g1150
tp5354
(dp5355
S';'
I1
ss(g370
g966
g404
tp5356
(dp5357
g1620
I1
ss(g113
g1652
g2058
tp5358
(dp5359
g155
I1
ss(g161
g262
g1092
tp5360
(dp5361
g1303
I1
ss(g597
g556
g223
tp5362
(dp5363
g303
I1
ss(g325
g393
g1575
tp5364
(dp5365
g173
I1
ss(g101
g1073
g90
tp5366
(dp5367
g216
I1
ss(g441
g318
g1529
tp5368
(dp5369
g176
I1
ss(g1337
S','
g1861
tp5370
(dp5371
g841
I1
ss(S';'
g240
S'I'
tp5372
(dp5373
g1137
I1
ss(g382
g921
g790
tp5374
(dp5375
g403
I1
ss(S';'
g7
g930
tp5376
(dp5377
g2835
I1
ss(S'I'
g232
g346
tp5378
(dp5379
g1549
I1
ss(g1684
g220
g358
tp5380
(dp5381
S','
I1
ss(g28
g239
g55
tp5382
(dp5383
S';'
I1
ss(g742
g261
g837
tp5384
(dp5385
S','
I1
ss(g83
g1346
g336
tp5386
(dp5387
S';'
I1
ss(g710
g676
g373
tp5388
(dp5389
g553
I1
ss(S','
g636
g152
tp5390
(dp5391
g688
I1
ss(g2601
g1412
g143
tp5392
(dp5393
g47
I1
ss(S','
g371
S','
tp5394
(dp5395
g3356
I1
ss(g1710
g291
g1660
tp5396
(dp5397
g2055
I1
ss(S','
g2782
g616
tp5398
(dp5399
g130
I1
ss(g273
g113
g1652
tp5400
(dp5401
g2058
I1
ss(g1025
g363
S','
tp5402
(dp5403
S'I'
I1
ss(S'I'
g297
g279
tp5404
(dp5405
g1009
I1
ss(g1833
g141
g242
tp5406
(dp5407
g229
I1
ss(g1493
g738
g473
tp5408
(dp5409
g816
I1
ss(g333
g1655
g1973
tp5410
(dp5411
g245
I1
ss(g481
g1351
g512
tp5412
(dp5413
g1572
I1
ss(S','
g638
g1631
tp5414
(dp5415
g1487
I1
ss(g1268
g450
g102
tp5416
(dp5417
g1132
I1
ss(g413
g1017
g253
tp5418
(dp5419
g1294
I1
ss(g109
g1578
g2262
tp5420
(dp5421
S','
I1
ss(g845
g955
g114
tp5422
(dp5423
g351
I1
ss(g71
S'.'
g103
tp5424
(dp5425
g1509
I1
ss(g228
g1541
g1302
tp5426
(dp5427
g165
I1
ss(g172
g1076
g121
tp5428
(dp5429
g1617
I1
ss(g3470
g309
g460
tp5430
(dp5431
g845
I1
ss(g575
g330
g359
tp5432
(dp5433
g1526
I1
ss(g855
g1940
g1219
tp5434
(dp5435
g184
I1
ss(g417
g1567
S'-'
tp5436
(dp5437
g345
I1
ss(g2568
g390
g1025
tp5438
(dp5439
g363
I1
ss(g1626
g204
g144
tp5440
(dp5441
g166
I1
ss(g635
g783
g3588
tp5442
(dp5443
g212
I1
ss(S','
g2216
g237
tp5444
(dp5445
g334
I1
ss(g283
g379
g86
tp5446
(dp5447
g343
I1
ss(g1148
S','
S'I'
tp5448
(dp5449
g174
I1
ss(g341
g1020
g1145
tp5450
(dp5451
g63
I1
ss(g3341
g69
g1316
tp5452
(dp5453
S';'
I1
ss(g473
g816
g2221
tp5454
(dp5455
g3972
I1
ss(g1794
g210
g801
tp5456
(dp5457
g1298
I1
ss(g188
g1433
g2501
tp5458
(dp5459
g960
I1
ss(g739
g317
g918
tp5460
(dp5461
g2176
I1
sg2177
I1
ss(g2490
g1310
g1160
tp5462
(dp5463
g615
I1
ss(g3005
S'I'
g1140
tp5464
(dp5465
g734
I1
ss(g979
g1972
g118
tp5466
(dp5467
S','
I1
ss(g1066
g472
S'I'
tp5468
(dp5469
g2967
I1
ss(g203
g14
g943
tp5470
(dp5471
g575
I1
ss(g1705
g1283
g388
tp5472
(dp5473
g1001
I1
ss(g374
g774
g196
tp5474
(dp5475
g1382
I1
ss(g175
g387
g349
tp5476
(dp5477
g117
I1
ss(g1950
g10
g421
tp5478
(dp5479
g673
I1
ss(g307
g122
g1273
tp5480
(dp5481
g21
I1
ss(g1004
g459
g1452
tp5482
(dp5483
g1214
I1
ss(S','
S'I'
g174
tp5484
(dp5485
g154
I1
ss(g871
g1311
S';'
tp5486
(dp5487
g60
I1
ss(g146
g1265
g149
tp5488
(dp5489
S'.'
I1
ss(g959
g1604
g241
tp5490
(dp5491
g377
I1
ss(g1305
g1033
g1771
tp5492
(dp5493
g320
I1
ss(g194
g163
g652
tp5494
(dp5495
S'?'
I1
ss(S','
g2336
g1287
tp5496
(dp5497
g307
I1
sg80
I1
sg30
I1
sg11
I1
sg309
I1
sg1121
I1
ss(g1126
g1035
g22
tp5498
(dp5499
g1671
I1
ss(g242
g229
g49
tp5500
(dp5501
g693
I1
ss(g1310
g1160
g615
tp5502
(dp5503
g877
I1
ss(g1972
g118
S','
tp5504
(dp5505
S'I'
I1
ss(S','
S'I'
g61
tp5506
(dp5507
g1066
I1
ss(g1575
g173
g594
tp5508
(dp5509
g335
I1
ss(g620
g406
g400
tp5510
(dp5511
g27
I1
ss(g1784
g1288
g3288
tp5512
(dp5513
g2118
I1
ss(g1256
g131
g667
tp5514
(dp5515
g1306
I1
ss(g205
S'.'
g3149
tp5516
(dp5517
g132
I1
ss(S','
g2209
g370
tp5518
(dp5519
g966
I1
ss(g359
g1526
g148
tp5520
(dp5521
g1004
I1
sS','
I1
ss(g301
g662
g316
tp5522
(dp5523
S';'
I1
ss(g603
g68
S','
tp5524
(dp5525
g632
I1
ss(g921
g790
g403
tp5526
(dp5527
S','
I1
ss(S','
g625
g2000
tp5528
(dp5529
g843
I1
ss(g770
g110
S'.'
tp5530
(dp5531
g2442
I1
ss(g655
g3807
g3121
tp5532
(dp5533
g449
I1
ss(g1216
g1325
g265
tp5534
(dp5535
g950
I1
ss(S','
g2029
g1593
tp5536
(dp5537
g65
I1
ss(g195
g989
g2943
tp5538
(dp5539
g1610
I1
ss(g1086
g18
g124
tp5540
(dp5541
g1322
I1
ss(g82
g218
g96
tp5542
(dp5543
g35
I1
ss(g1308
S','
g2296
tp5544
(dp5545
g1449
I1
ss(g1363
g1313
g959
tp5546
(dp5547
g1604
I1
ss(g358
S','
g3413
tp5548
(dp5549
g95
I1
ss(g877
g292
S'-'
tp5550
(dp5551
g1048
I1
ss(g683
g518
g8
tp5552
(dp5553
g722
I1
ss(g253
g1294
g128
tp5554
(dp5555
S','
I1
ss(g140
g37
S','
tp5556
(dp5557
g2565
I1
ss(g924
g311
g383
tp5558
(dp5559
g127
I1
ss(g2861
g157
g533
tp5560
(dp5561
g1448
I1
ss(g746
g227
g1496
tp5562
(dp5563
g120
I1
ss(g1740
g276
S','
tp5564
(dp5565
g2405
I1
ss(g93
g66
g1400
tp5566
(dp5567
g258
I1
ss(g127
g939
g361
tp5568
(dp5569
g34
I1
ss(g68
S','
g632
tp5570
(dp5571
g940
I1
ss(g18
g124
g1322
tp5572
(dp5573
g1716
I1
ss(g376
g971
g1486
tp5574
(dp5575
g1280
I1
ss(g8
g722
g43
tp5576
(dp5577
g203
I1
ss(S','
g627
S'a'
tp5578
(dp5579
g107
I1
ss(g112
g53
g116
tp5580
(dp5581
g1483
I1
ss(g212
g1743
g1152
tp5582
(dp5583
g495
I1
ss(g1237
g59
g301
tp5584
(dp5585
g662
I1
ss(g328
g322
g344
tp5586
(dp5587
g902
I1
ss(g86
g343
S','
tp5588
(dp5589
g1820
I1
ss(g2639
S','
g634
tp5590
(dp5591
g557
I1
ss(g398
g735
g3128
tp5592
(dp5593
g788
I1
ss(g2262
S','
g1784
tp5594
(dp5595
S'a'
I1
sg1288
I1
ss(g619
g13
g405
tp5596
(dp5597
S','
I1
ss(g1470
g339
S'.'
tp5598
(dp5599
g150
I1
ss(g210
g801
g1298
tp5600
(dp5601
g356
I1
ss(g281
g1358
g9
tp5602
(dp5603
S'.'
I1
ss(g85
g329
g282
tp5604
(dp5605
S','
I1
ss(g2151
g1284
g1216
tp5606
(dp5607
g1325
I1
ss(g2005
g1282
g179
tp5608
(dp5609
g1330
I1
ss(g390
g1025
g363
tp5610
(dp5611
S','
I1
ss(S','
g2325
g1286
tp5612
(dp5613
g933
I1
ss(S','
g2389
S'I'
tp5614
(dp5615
g2392
I1
ss(g394
g1225
S','
tp5616
(dp5617
g2734
I1
ss(g701
g510
g251
tp5618
(dp5619
g597
I1
ss(g630
g737
g3280
tp5620
(dp5621
g3065
I1
ss(g1523
g146
g1265
tp5622
(dp5623
g149
I1
ss(S','
g637
g483
tp5624
(dp5625
S','
I1
ss(g1285
g38
g591
tp5626
(dp5627
g151
I1
ss(g1487
g133
g1230
tp5628
(dp5629
g171
I1
ss(g308
S'.'
S'\x00'
tp5630
(dp5631
S'\x00'
I2
ss(g2347
g452
g2490
tp5632
(dp5633
g1310
I1
ss(g2017
g11
S','
tp5634
(dp5635
g3382
I1
ss(g221
g830
g98
tp5636
(dp5637
g1480
I1
ss(g3618
g1004
g459
tp5638
(dp5639
g1452
I1
ss(g1209
S'a'
g64
tp5640
(dp5641
g542
I1
ss(g847
g189
g234
tp5642
(dp5643
g15
I1
ss(S';'
g2025
g1285
tp5644
(dp5645
g38
I1
ss(g147
S'.'
g42
tp5646
(dp5647
g396
I1
ss(g428
g209
S','
tp5648
(dp5649
g306
I1
ss(g267
g1193
g238
tp5650
(dp5651
g419
I1
ss(S','
g623
g862
tp5652
(dp5653
g48
I1
ss(g1598
g860
g1447
tp5654
(dp5655
g1713
I1
ss(g372
S'I'
g328
tp5656
(dp5657
g322
I1
ss(g247
g45
g243
tp5658
(dp5659
g1512
I1
ss(g451
g362
S'.'
tp5660
(dp5661
g323
I1
ss(g971
g1486
g1280
tp5662
(dp5663
S','
I1
ss(g912
g222
g804
tp5664
(dp5665
S'I'
I1
ss(g105
S','
g312
tp5666
(dp5667
g409
I1
ss(g1125
g2590
g1454
tp5668
(dp5669
g481
I1
ss(g429
g180
g1363
tp5670
(dp5671
g1313
I1
ss(g989
g2943
g1610
tp5672
(dp5673
g1249
I2
ss(g215
g608
g1379
tp5674
(dp5675
g1299
I1
ss(g863
g40
g1244
tp5676
(dp5677
g255
I1
ss(g141
g242
g229
tp5678
(dp5679
g49
I1
ss(g1160
g615
g877
tp5680
(dp5681
g292
I1
ss(g3140
g248
S'.'
tp5682
(dp5683
g2259
I1
ss(g280
g1319
g1880
tp5684
(dp5685
g1151
I1
ss(g286
g979
g1972
tp5686
(dp5687
g118
I1
ss(S';'
g1425
g200
tp5688
(dp5689
g1417
I1
ss(g296
g197
g101
tp5690
(dp5691
g1073
I1
ss(g170
g135
g1523
tp5692
(dp5693
g146
I1
ss(g1724
S'a'
g357
tp5694
(dp5695
g188
I1
ss(g2071
g2251
g1408
tp5696
(dp5697
g2254
I1
ss(g434
g285
g219
tp5698
(dp5699
g1649
I1
ss(g95
g1727
g1147
tp5700
(dp5701
g986
I1
ss(g994
g1043
g192
tp5702
(dp5703
S'.'
I1
ss(g1316
S';'
g2526
tp5704
(dp5705
g125
I1
ss(g495
g858
S'I'
tp5706
(dp5707
S'am'
p5708
I1
ss(g139
S','
g85
tp5709
(dp5710
g329
I1
ss(g1506
g331
S','
tp5711
(dp5712
g635
I1
ss(g868
g831
g861
tp5713
(dp5714
g50
I1
ss(S';'
g2526
g125
tp5715
(dp5716
S','
I1
ss(g1309
g1085
g2127
tp5717
(dp5718
S':'
I1
ss(g2095
g201
g874
tp5719
(dp5720
g224
I1
ss(g63
g84
g182
tp5721
(dp5722
g1717
I1
ss(g1303
g398
g735
tp5723
(dp5724
g3128
I1
ss(g154
g924
g311
tp5725
(dp5726
g383
I1
ss(S','
g2042
g2204
tp5727
(dp5728
g225
I1
ss(S','
g1947
g264
tp5729
(dp5730
g1712
I1
ss(g662
g316
S';'
tp5731
(dp5732
g1422
I1
ss(g391
S'I'
g232
tp5733
(dp5734
g346
I1
ss(g3433
g3470
g309
tp5735
(dp5736
g460
I1
ss(S'say'
p5737
S'.'
g140
tp5738
(dp5739
g37
I1
ss(g396
g1337
S','
tp5740
(dp5741
g1861
I1
ss(S'.'
g391
S'I'
tp5742
(dp5743
g232
I1
ss(g412
g759
g1300
tp5744
(dp5745
g284
I1
ss(g489
g161
g262
tp5746
(dp5747
g1092
I1
ss(g1771
g320
g1721
tp5748
(dp5749
g97
I1
ss(S'.'
g164
g455
tp5750
(dp5751
g1457
I1
ss(g406
g400
g27
tp5752
(dp5753
g572
I1
ss(g1312
g332
g1220
tp5754
(dp5755
g41
I1
ss(g463
g1153
S'.'
tp5756
(dp5757
g164
I1
ss(g304
g539
g308
tp5758
(dp5759
S'.'
I1
ss(g1403
g3080
g386
tp5760
(dp5761
g298
I1
ss(g377
g394
g1225
tp5762
(dp5763
S','
I1
ss(g322
g344
g902
tp5764
(dp5765
g82
I1
ss(g2389
S'I'
g2392
tp5766
(dp5767
g3259
I1
ss(g1693
g79
g710
tp5768
(dp5769
g676
I1
ss(g337
g946
g415
tp5770
(dp5771
g994
I1
ss(g373
g553
g2886
tp5772
(dp5773
g269
I1
ss(g1400
g258
g290
tp5774
(dp5775
g1641
I1
ss(S','
g2134
g32
tp5776
(dp5777
S','
I1
ss(g1509
g842
g659
tp5778
(dp5779
g375
I1
ss(g629
g1592
g12
tp5780
(dp5781
g71
I1
ss(g1409
S','
g206
tp5782
(dp5783
g314
I1
ss(g178
g847
g189
tp5784
(dp5785
g234
I1
ss(g2868
g1277
g603
tp5786
(dp5787
g68
I1
ss(g2026
S','
g2029
tp5788
(dp5789
g1593
I1
ss(g2634
g115
g701
tp5790
(dp5791
S'a'
I1
sg510
I1
ss(g2690
g956
g868
tp5792
(dp5793
g831
I1
ss(g108
g1564
g742
tp5794
(dp5795
g261
I1
ss(S'.'
g103
g1509
tp5796
(dp5797
g842
I1
ss(g383
g127
g939
tp5798
(dp5799
g361
I1
ss(g943
g575
g330
tp5800
(dp5801
g359
I1
ss(g1652
g2058
g155
tp5802
(dp5803
S';'
I1
ss(g1291
g2731
S';'
tp5804
(dp5805
g240
I1
ss(g198
g177
S','
tp5806
(dp5807
g3605
I1
ss(g47
S','
g626
tp5808
(dp5809
g1735
I1
ss(g1433
g2501
g960
tp5810
(dp5811
S'-'
I1
ss(g1014
g23
g333
tp5812
(dp5813
g1655
I1
ss(g41
g1086
g18
tp5814
(dp5815
g124
I1
ss(g222
g804
S'I'
tp5816
(dp5817
g341
I1
ss(g1140
g734
g29
tp5818
(dp5819
S'.'
I1
ss(g136
g414
g1403
tp5820
(dp5821
g3080
I1
ss(S','
g2151
g1284
tp5822
(dp5823
g1216
I1
ss(g2029
g1593
g65
tp5824
(dp5825
g1583
I1
ss(g50
g670
g159
tp5826
(dp5827
g1201
I1
ss(g37
S','
g2565
tp5828
(dp5829
S'I'
I1
ss(g350
g827
g1238
tp5830
(dp5831
g324
I1
ss(S','
g639
g1014
tp5832
(dp5833
g23
I1
ss(g248
S'.'
g2259
tp5834
(dp5835
g1635
I1
ss(g982
g484
g75
tp5836
(dp5837
g1061
I1
ss(S','
g2095
g201
tp5838
(dp5839
g874
I1
ss(g115
g701
g510
tp5840
(dp5841
g251
I1
ss(g213
g221
g830
tp5842
(dp5843
g98
I1
ss(g1085
g2127
S':'
tp5844
(dp5845
g1340
I1
ss(g401
g1163
g2891
tp5846
(dp5847
g26
I1
ss(g483
S','
g639
tp5848
(dp5849
g1014
I1
ss(g305
S','
g207
tp5850
(dp5851
S'.'
I1
ss(g905
g170
g135
tp5852
(dp5853
g1523
I1
ss(g729
g2199
g815
tp5854
(dp5855
g88
I1
ss(S'?'
S'I'
g78
tp5856
(dp5857
g233
I1
ss(g1620
g463
g1153
tp5858
(dp5859
S'.'
I1
ss(g4697
g4432
g1794
tp5860
(dp5861
g210
I1
ss(g1634
g658
S'I'
tp5862
(dp5863
g89
I1
ss(g157
g533
g1448
tp5864
(dp5865
g413
I1
ss(S','
g626
g1735
tp5866
(dp5867
g1611
I1
ss(g167
g1256
g131
tp5868
(dp5869
g667
I1
ss(g319
g567
g1493
tp5870
(dp5871
g738
I1
ss(g520
S','
g629
tp5872
(dp5873
g1592
I1
ss(g643
g961
S','
tp5874
(dp5875
g2209
I1
ss(g1665
g147
S'.'
tp5876
(dp5877
g42
I1
ss(g411
g1188
g270
tp5878
(dp5879
g1674
I1
ss(g1450
g175
g387
tp5880
(dp5881
g349
I1
ss(S'a'
g202
g412
tp5882
(dp5883
g759
I1
ss(S','
S'I'
g1138
tp5884
(dp5885
g57
I1
ss(g355
g76
g123
tp5886
(dp5887
g366
I1
ss(g1382
S';'
g1811
tp5888
(dp5889
g975
I1
ss(g1638
S'a'
g256
tp5890
(dp5891
g1724
I1
ss(g1230
g171
S'.'
tp5892
(dp5893
S'\x00'
I1
ss(g190
g905
g170
tp5894
(dp5895
g135
I1
ss(g363
S','
S'I'
tp5896
(dp5897
g235
I1
ss(g9
S'.'
g2875
tp5898
(dp5899
g1175
I1
ss(g3149
g132
S','
tp5900
(dp5901
g81
I1
ss(g3413
g95
g1727
tp5902
(dp5903
g1147
I1
ss(S'I'
g70
g310
tp5904
(dp5905
g302
I1
ss(g265
g950
g2908
tp5906
(dp5907
g2601
I1
ss(g124
g1322
g1716
tp5908
(dp5909
g3876
I1
ss(g507
g424
S','
tp5910
(dp5911
S'I'
I1
ss(S';'
g402
g782
tp5912
(dp5913
g2690
I1
ss(S','
g2431
g2267
tp5914
(dp5915
g660
I1
sg1794
I1
ss(g2782
g616
g130
tp5916
(dp5917
g588
I1
ss(g249
g208
g340
tp5918
(dp5919
g1215
I1
ss(g3588
g212
g1743
tp5920
(dp5921
g1152
I1
ss(g1635
g1711
g451
tp5922
(dp5923
g362
I1
ss(g673
g1453
g3341
tp5924
(dp5925
g69
I1
ss(g270
g1674
g773
tp5926
(dp5927
S','
I1
ss(g19
S','
g2964
tp5928
(dp5929
S'I'
I1
ss(g1425
g200
g1417
tp5930
(dp5931
g2020
I1
ss(S'I'
g2967
g39
tp5932
(dp5933
g1644
I1
ss(S'I'
g2568
g390
tp5934
(dp5935
g1025
I1
ss(g591
g151
g1354
tp5936
(dp5937
g54
I1
ss(g1709
g257
g1168
tp5938
(dp5939
g840
I1
ss(g1592
g12
g71
tp5940
(dp5941
S'.'
I1
ss(g183
g1696
g430
tp5942
(dp5943
S';'
I1
ss(g536
g521
g441
tp5944
(dp5945
g318
I1
ss(g192
S'.'
g106
tp5946
(dp5947
g1690
I1
ss(g658
S'I'
g89
tp5948
(dp5949
g1178
I1
ss(g1376
g1281
g576
tp5950
(dp5951
g380
I1
ss(S'-'
g345
g1706
tp5952
(dp5953
g1355
I1
ss(g23
g333
g1655
tp5954
(dp5955
g1973
I1
ss(g20
g281
g1358
tp5956
(dp5957
g9
I1
ss(g504
g1150
S';'
tp5958
(dp5959
g402
I1
ss(g302
g321
S'.'
tp5960
(dp5961
g254
I1
ss(g1460
g368
S','
tp5962
(dp5963
S'I'
I1
sg2178
I1
ss(g392
g268
g1614
tp5964
(dp5965
g397
I1
ss(g3259
g105
S','
tp5966
(dp5967
g312
I1
ss(g416
g378
g648
tp5968
(dp5969
g193
I2
ss(S'a'
g357
g188
tp5970
(dp5971
g1433
I1
ss(g11
S','
g3382
tp5972
(dp5973
g1912
I1
ss(S','
g3005
S'I'
tp5974
(dp5975
g1140
I1
ss(g2516
g2751
g1308
tp5976
(dp5977
S','
I1
ss(S'I'
g3516
S','
tp5978
(dp5979
g3519
I1
ss(g2990
g153
g855
tp5980
(dp5981
g1940
I1
ss(g2886
g269
S','
tp5982
(dp5983
g638
I1
ss(g1358
g9
S'.'
tp5984
(dp5985
g2875
I1
ss(g698
g1684
g220
tp5986
(dp5987
g358
I1
ss(g243
g1512
g2026
tp5988
(dp5989
S','
I1
ss(S','
g2178
g558
tp5990
(dp5991
g739
I1
ss(g219
g1649
g3367
tp5992
(dp5993
S','
I1
ss(g621
g2921
g1126
tp5994
(dp5995
g1035
I1
ss(g364
g821
g496
tp5996
(dp5997
g1185
I1
ss(g30
S','
g2436
tp5998
(dp5999
g2017
I1
ss(g558
g739
g317
tp6000
(dp6001
g918
I1
ss(g2875
g1175
g1710
tp6002
(dp6003
g291
I1
ss(g33
g1693
g79
tp6004
(dp6005
g710
I1
ss(g389
S','
g2639
tp6006
(dp6007
S','
I1
ss(g2751
g1308
S','
tp6008
(dp6009
g3414
I1
sg2296
I1
ss(S','
g407
g92
tp6010
(dp6011
g1079
I1
ss(S'.'
g899
g372
tp6012
(dp6013
S'I'
I1
ss(S'I'
g1137
g392
tp6014
(dp6015
g268
I1
ss(g1313
g959
g1604
tp6016
(dp6017
g241
I1
ss(g556
g223
g303
tp6018
(dp6019
g863
I1
ss(g177
S','
g3605
tp6020
(dp6021
S','
I1
ss(g186
S','
g19
tp6022
(dp6023
S','
I1
ss(g298
g698
g1684
tp6024
(dp6025
g220
I1
ss(g60
S','
S'I'
tp6026
(dp6027
g1982
I1
ss(S','
g634
g557
tp6028
(dp6029
g289
I1
ss(g80
S','
g3433
tp6030
(dp6031
g3470
I1
ss(g2436
g2017
g11
tp6032
(dp6033
S','
I1
ss(S','
g252
S','
tp6034
(dp6035
g620
I1
ss(g929
g429
g180
tp6036
(dp6037
g1363
I1
ss(g539
g308
S'.'
tp6038
(dp6039
S'\x00'
I1
ss(g10
g421
g673
tp6040
(dp6041
g1453
I1
ss(g44
g36
g765
tp6042
(dp6043
g249
I1
ss(g224
g1438
g1307
tp6044
(dp6045
S'.'
I1
ss(g1001
g1154
g354
tp6046
(dp6047
g871
I1
ss(g173
g594
g335
tp6048
(dp6049
g401
I1
ss(g4907
g2279
g474
tp6050
(dp6051
g129
I1
ss(g1718
g3140
g248
tp6052
(dp6053
S'.'
I1
ss(g166
S','
g1833
tp6054
(dp6055
g141
I1
ss(S','
g2565
S'I'
tp6056
(dp6057
g2568
I1
ss(g1567
S'-'
g345
tp6058
(dp6059
g1706
I1
ss(g89
g1178
g109
tp6060
(dp6061
g1578
I1
ss(g423
S'a'
g325
tp6062
(dp6063
g393
I1
ss(g128
S','
g2088
tp6064
(dp6065
g440
I1
ss(g981
g94
g199
tp6066
(dp6067
g411
I1
ss(g3807
g3121
g449
tp6068
(dp6069
g304
I1
ss(g738
g473
g816
tp6070
(dp6071
g2221
I1
ss(g743
g287
S'.'
tp6072
(dp6073
S'\x00'
I1
ss(g39
g1644
g91
tp6074
(dp6075
g1058
I1
ss(g2789
g435
g1544
tp6076
(dp6077
g2347
I1
ss(g1423
g976
g929
tp6078
(dp6079
g429
I1
ss(g1711
g451
g362
tp6080
(dp6081
S'.'
I1
ss(g1138
g57
S'.'
tp6082
(dp6083
S'\x00'
I1
ss(g652
S'?'
S'I'
tp6084
(dp6085
g78
I1
ss(g3382
g1912
g80
tp6086
(dp6087
S','
I1
ss(g1330
g1125
g2590
tp6088
(dp6089
g1454
I1
ss(g405
S','
g434
tp6090
(dp6091
g285
I1
ss(g2964
S'I'
g1139
tp6092
(dp6093
g444
I1
ss(S'.'
g2442
g683
tp6094
(dp6095
g518
I1
ss(g7
g930
g2835
tp6096
(dp6097
g432
I1
ss(g1307
S'.'
g214
tp6098
(dp6099
g824
I1
ss(g2209
g370
g966
tp6100
(dp6101
g404
I1
ss(g1214
g169
g134
tp6102
(dp6103
g504
I1
ss(g466
g162
g20
tp6104
(dp6105
g281
I1
ss(g299
g492
g244
tp6106
(dp6107
g704
I1
ss(S';'
g1424
g2710
tp6108
(dp6109
g5093
I1
ss(g1132
g1950
g10
tp6110
(dp6111
g421
I1
ss(g1287
g307
g122
tp6112
(dp6113
g1273
I1
ss(g458
g661
g272
tp6114
(dp6115
g1470
I1
ss(g1532
g1123
g1231
tp6116
(dp6117
g736
I1
ss(g25
g1028
g2516
tp6118
(dp6119
g2751
I1
ss(g804
S'I'
g341
tp6120
(dp6121
g1020
I1
ss(g524
g1159
g266
tp6122
(dp6123
g1376
I1
ss(g199
g411
g1188
tp6124
(dp6125
g270
I1
ss(g966
g404
g1620
tp6126
(dp6127
g463
I1
ss(g1082
g1278
g167
tp6128
(dp6129
g1256
I1
ss(g1103
g3133
g138
tp6130
(dp6131
g1746
I1
ss(g2372
g327
g277
tp6132
(dp6133
g126
I1
ss(g577
g428
g209
tp6134
(dp6135
S','
I1
ss(g55
S';'
g1423
tp6136
(dp6137
g976
I1
ss(g1557
g1505
g1040
tp6138
(dp6139
g246
I1
ss(g1681
g52
g51
tp6140
(dp6141
g1460
I1
ss(g1354
g54
S','
tp6142
(dp6143
g643
I1
ss(g1225
S','
g2734
tp6144
(dp6145
g1279
I1
ss(g99
S','
g2042
tp6146
(dp6147
g2204
I1
ss(g1529
g176
S'I'
tp6148
(dp6149
g247
I1
ss(g1811
g975
S','
tp6150
(dp6151
g621
I1
ss(g1717
S','
g352
tp6152
(dp6153
g1237
I1
ss(g120
g399
S','
tp6154
(dp6155
g2701
I1
ss(g414
g1403
g3080
tp6156
(dp6157
g386
I1
ss(S';'
g60
S','
tp6158
(dp6159
S'I'
I1
ss(g1300
g284
g1473
tp6160
(dp6161
g2854
I1
ss(g553
g2886
g269
tp6162
(dp6163
S','
I1
ss(g58
g28
g239
tp6164
(dp6165
g55
I1
ss(S'.'
g150
g1634
tp6166
(dp6167
g658
I1
ss(g315
g367
g715
tp6168
(dp6169
g382
I1
ss(g415
g994
g1043
tp6170
(dp6171
g192
I1
ss(g450
g102
g1132
tp6172
(dp6173
g1950
I1
ss(g2251
g1408
g2254
tp6174
(dp6175
S','
I1
ss(S','
g312
g409
tp6176
(dp6177
g1687
I1
ss(g132
S','
g81
tp6178
(dp6179
g422
I1
ss(g201
g874
g224
tp6180
(dp6181
g1438
I1
ss(g2569
g381
g489
tp6182
(dp6183
g161
I1
ss(g61
g1066
g472
tp6184
(dp6185
S'I'
I1
ss(g258
g290
g1641
tp6186
(dp6187
g1969
I1
ss(g859
g319
g567
tp6188
(dp6189
g1493
I1
ss(g633
g263
g213
tp6190
(dp6191
g221
I1
ss(g62
g417
g1567
tp6192
(dp6193
S'-'
I1
ss(g107
g1409
S','
tp6194
(dp6195
g206
I1
ss(g881
S'.'
g77
tp6196
(dp6197
g536
I1
ss(g1483
g431
S','
tp6198
(dp6199
g3005
I1
ss(g367
g715
g382
tp6200
(dp6201
g921
I1
ss(g3356
g519
g1492
tp6202
(dp6203
g947
I1
ss(g1486
g1280
S','
tp6204
(dp6205
g119
I1
ss(g936
g355
g76
tp6206
(dp6207
g123
I1
ss(g14
g943
g575
tp6208
(dp6209
g330
I1
ss(g632
g940
g1718
tp6210
(dp6211
g3140
I1
ss(g275
g1116
g395
tp6212
(dp6213
S','
I1
ss(g422
g507
g424
tp6214
(dp6215
S','
I1
ss(S' '
g364
g821
tp6216
(dp6217
g496
I1
ss(g59
g301
g662
tp6218
(dp6219
g316
I1
ss(S','
g1820
g137
tp6220
(dp6221
g936
I1
ss(g233
g104
g912
tp6222
(dp6223
g222
I1
ss(g2176
g300
g348
tp6224
(dp6225
S'.'
I1
ss(g403
S','
g2325
tp6226
(dp6227
g1286
I1
ssa(dp6228
(g738
g473
g816
g2221
tp6229
(dp6230
g3972
I1
ss(S','
g2431
g2267
g660
tp6231
(dp6232
g425
I1
ss(g1526
g148
S','
g2336
tp6233
(dp6234
g1287
I1
ss(g1834
g1124
g1705
g1283
tp6235
(dp6236
g388
I1
ss(S','
g252
S','
g620
tp6237
(dp6238
g406
I1
ss(g1820
g137
g936
g355
tp6239
(dp6240
g76
I1
ss(g205
S'.'
g3149
g132
tp6241
(dp6242
S','
I1
ss(g2029
g1593
g65
g1583
tp6243
(dp6244
S','
I1
ss(g114
g351
S','
g2134
tp6245
(dp6246
g32
I1
ss(g1982
g1751
g46
g1234
tp6247
(dp6248
g1122
I1
ss(g474
g129
S','
g636
tp6249
(dp6250
g152
I1
ss(g982
g484
g75
g1061
tp6251
(dp6252
g1304
I1
ss(g1684
g220
g358
S','
tp6253
(dp6254
g3413
I1
ss(g1123
g1231
g736
g848
tp6255
(dp6256
g3285
I1
ss(g1196
g2372
g327
g277
tp6257
(dp6258
g126
I1
ss(g78
g233
g104
g912
tp6259
(dp6260
g222
I1
ss(g2789
g435
g1544
g2347
tp6261
(dp6262
g452
I1
ss(g130
g588
g293
g1109
tp6263
(dp6264
g187
I1
ss(g3794
S','
g1785
S','
tp6265
(dp6266
g642
I1
ss(g2990
g153
g855
g1940
tp6267
(dp6268
g1219
I1
ss(g1311
S';'
g60
S','
tp6269
(dp6270
S'I'
I1
ss(g377
g394
g1225
S','
tp6271
(dp6272
g2734
I1
ss(S'I'
g2568
g390
g1025
tp6273
(dp6274
g363
I1
ss(g1298
g356
g211
g1241
tp6275
(dp6276
S','
I1
ss(g1696
g430
S';'
g7
tp6277
(dp6278
g930
I1
ss(g1771
g320
g1721
g97
tp6279
(dp6280
S','
I1
ss(g715
g382
g921
g790
tp6281
(dp6282
g403
I1
ss(g51
g1460
g368
S','
tp6283
(dp6284
S'I'
I1
ss(S';'
g1425
g200
g1417
tp6285
(dp6286
g2020
I1
ss(g244
g704
g100
g1291
tp6287
(dp6288
g2731
I1
ss(g240
S'I'
g1137
g392
tp6289
(dp6290
g268
I1
ss(g382
g921
g790
g403
tp6291
(dp6292
S','
I1
ss(S','
g1833
g141
g242
tp6293
(dp6294
g229
I1
ss(g7
g930
g2835
g432
tp6295
(dp6296
g1209
I1
ss(g1035
g22
g1671
S','
tp6297
(dp6298
g630
I1
ss(g577
g428
g209
S','
tp6299
(dp6300
g306
I1
ss(g871
g1311
S';'
g60
tp6301
(dp6302
S','
I1
ss(g121
g1617
g1925
g136
tp6303
(dp6304
g414
I1
ss(g265
g950
g2908
g2601
tp6305
(dp6306
g1412
I1
ss(g288
S','
g2005
g1282
tp6307
(dp6308
g179
I1
ss(g123
g366
g145
g1465
tp6309
(dp6310
g1148
I1
ss(g398
g735
g3128
g788
tp6311
(dp6312
g274
I1
ss(g94
g199
g411
g1188
tp6313
(dp6314
g270
I1
ss(g92
g1079
g369
g889
tp6315
(dp6316
g3783
I1
ss(g20
g281
g1358
g9
tp6317
(dp6318
S'.'
I1
ss(S','
g637
g483
S','
tp6319
(dp6320
g639
I1
ss(g373
g553
g2886
g269
tp6321
(dp6322
S','
I1
ss(g263
g213
g221
g830
tp6323
(dp6324
g98
I1
ss(g558
g739
g317
g918
tp6325
(dp6326
g2176
I1
ss(g859
g319
g567
g1493
tp6327
(dp6328
g738
I1
ss(S','
g1947
g264
g1712
tp6329
(dp6330
g93
I1
ss(g1940
g1219
g184
g286
tp6331
(dp6332
g979
I1
ss(g208
g340
g1215
g2008
tp6333
(dp6334
g2926
I1
ss(g426
g420
g160
g260
tp6335
(dp6336
g178
I1
ss(g408
g1665
g147
S'.'
tp6337
(dp6338
g42
I1
ss(S','
g112
g53
g116
tp6339
(dp6340
g1483
I1
ss(g198
g177
S','
g3605
tp6341
(dp6342
S','
I1
ss(g1073
g90
g216
g501
tp6343
(dp6344
g1768
I1
ss(g459
g1452
g1214
g169
tp6345
(dp6346
g134
I1
ss(S','
g2701
g1755
g30
tp6347
(dp6348
S','
I1
ss(g143
g47
S','
g626
tp6349
(dp6350
g1735
I1
ss(g658
S'I'
g89
g1178
tp6351
(dp6352
g109
I1
ss(S'I'
g61
g1066
g472
tp6353
(dp6354
S'I'
I1
ss(g204
g144
g166
S','
tp6355
(dp6356
g1833
I1
ss(g1447
g1713
g408
g1665
tp6357
(dp6358
g147
I1
ss(g173
g594
g335
g401
tp6359
(dp6360
g1163
I1
ss(g1273
g21
g230
g513
tp6361
(dp6362
g1451
I1
ss(S','
g434
g285
g219
tp6363
(dp6364
g1649
I1
ss(g421
g673
g1453
g3341
tp6365
(dp6366
g69
I1
ss(S'I'
g1139
g444
g1506
tp6367
(dp6368
g331
I1
ss(g422
g507
g424
S','
tp6369
(dp6370
S'I'
I1
ss(g216
g501
g1768
g194
tp6371
(dp6372
g163
I1
ss(g1721
g97
S','
g2868
tp6373
(dp6374
g1277
I1
ss(g11
S','
g3382
g1912
tp6375
(dp6376
g80
I1
ss(g186
S','
g19
S','
tp6377
(dp6378
g2964
I1
ss(g846
g337
g946
g415
tp6379
(dp6380
g994
I1
ss(g210
g801
g1298
g356
tp6381
(dp6382
g211
I1
ss(S','
g81
g422
g507
tp6383
(dp6384
g424
I1
ss(g1423
g976
g929
g429
tp6385
(dp6386
g180
I1
ss(g13
g405
S','
g434
tp6387
(dp6388
g285
I1
ss(g774
g196
g1382
S';'
tp6389
(dp6390
g1811
I1
ss(g388
g1001
g1154
g354
tp6391
(dp6392
g871
I1
ss(g277
g126
S','
g631
tp6393
(dp6394
g1709
I1
ss(S','
S'I'
g58
g28
tp6395
(dp6396
g239
I1
ss(g55
S';'
g1423
g976
tp6397
(dp6398
g929
I1
ss(g827
g1238
g324
g108
tp6399
(dp6400
g1564
I1
ss(S'.'
g3174
g423
S'a'
tp6401
(dp6402
g325
I1
ss(S','
g1861
g841
S','
tp6403
(dp6404
g4697
I1
ss(g1282
g179
g1330
g1125
tp6405
(dp6406
g2590
I1
ss(S'.'
g164
g455
g1457
tp6407
(dp6408
g353
I1
ss(g286
g979
g1972
g118
tp6409
(dp6410
S','
I1
ss(g43
g203
g14
g943
tp6411
(dp6412
g575
I1
ss(S'a'
g256
g1724
S'a'
tp6413
(dp6414
g357
I1
ss(S'I'
g247
g45
g243
tp6415
(dp6416
g1512
I1
ss(g831
g861
g50
g670
tp6417
(dp6418
g159
I1
ss(g414
g1403
g3080
g386
tp6419
(dp6420
g298
I1
ss(g1278
g167
g1256
g131
tp6421
(dp6422
g667
I1
ss(g370
g966
g404
g1620
tp6423
(dp6424
g463
I1
ss(g298
g698
g1684
g220
tp6425
(dp6426
g358
I1
ss(g621
g2921
g1126
g1035
tp6427
(dp6428
g22
I1
ss(S'I'
g174
g154
g924
tp6429
(dp6430
g311
I1
ss(g2026
S','
g2029
g1593
tp6431
(dp6432
g65
I1
ss(g177
S','
g3605
S','
tp6433
(dp6434
g627
I1
ss(g149
S'.'
g3174
g423
tp6435
(dp6436
S'a'
I1
ss(g75
g1061
g1304
g980
tp6437
(dp6438
g1268
I1
ss(g722
g43
g203
g14
tp6439
(dp6440
g943
I1
ss(S','
g156
g1103
g3133
tp6441
(dp6442
g138
I1
ss(g359
g1526
g148
S','
tp6443
(dp6444
g2336
I1
ss(S'.'
g2442
g683
g518
tp6445
(dp6446
g8
I1
ss(g1146
g577
g428
g209
tp6447
(dp6448
S','
I1
ss(S','
g625
g2000
g843
tp6449
(dp6450
g859
I1
ss(g1124
g1705
g1283
g388
tp6451
(dp6452
g1001
I1
ss(g3382
g1912
g80
S','
tp6453
(dp6454
g3433
I1
ss(g183
g1696
g430
S';'
tp6455
(dp6456
g7
I1
ss(g1861
g841
S','
g4697
tp6457
(dp6458
g4432
I1
ss(g501
g1768
g194
g163
tp6459
(dp6460
g652
I1
ss(S'I'
g87
g374
g774
tp6461
(dp6462
g196
I1
ss(g1382
S';'
g1811
g975
tp6463
(dp6464
S','
I1
ss(g387
g349
g117
g74
tp6465
(dp6466
g886
I1
ss(S','
g641
g743
g287
tp6467
(dp6468
S'.'
I1
ss(g2405
g2521
g1121
g1343
tp6469
(dp6470
g315
I1
ss(g1718
g3140
g248
S'.'
tp6471
(dp6472
g2259
I1
ss(g202
g412
g759
g1300
tp6473
(dp6474
g284
I1
ss(S','
g2209
g370
g966
tp6475
(dp6476
g404
I1
ss(g2000
g843
g859
g319
tp6477
(dp6478
g567
I1
ss(g608
g1379
g1299
g1987
tp6479
(dp6480
g458
I1
ss(g178
g847
g189
g234
tp6481
(dp6482
g15
I1
ss(g1061
g1304
g980
g1268
tp6483
(dp6484
g450
I1
ss(g111
g1598
g860
g1447
tp6485
(dp6486
g1713
I1
ss(g533
g1448
g413
g1017
tp6487
(dp6488
g253
I1
ss(g1140
g734
g29
S'.'
tp6489
(dp6490
g17
I1
ss(g1449
g439
g846
g337
tp6491
(dp6492
g946
I1
ss(g602
g16
g466
g162
tp6493
(dp6494
g20
I1
ss(g285
g219
g1649
g3367
tp6495
(dp6496
S','
I1
ss(g495
g858
S'I'
g5708
tp6497
(dp6498
S'about'
p6499
I1
ss(g164
g455
g1457
g353
tp6500
(dp6501
S','
I1
ss(g323
g1623
g3032
S'a'
tp6502
(dp6503
g202
I1
ss(g101
g1073
g90
g216
tp6504
(dp6505
g501
I1
ss(g258
g290
g1641
g1969
tp6506
(dp6507
S'.'
I1
ss(g34
S'I'
g416
g378
tp6508
(dp6509
g648
I2
ss(g158
g1601
g142
g469
tp6510
(dp6511
g313
I1
ss(g1020
g1145
g63
g84
tp6512
(dp6513
g182
I1
ss(S','
g624
g338
g342
tp6514
(dp6515
g67
I1
ss(g326
g228
g1541
g1302
tp6516
(dp6517
g165
I1
ss(g1355
S'I'
g87
g374
tp6518
(dp6519
g774
I1
ss(g2861
g157
g533
g1448
tp6520
(dp6521
g413
I1
ss(g150
g1634
g658
S'I'
tp6522
(dp6523
g89
I1
ss(g637
g483
S','
g639
tp6524
(dp6525
g1014
I1
ss(g2568
g390
g1025
g363
tp6526
(dp6527
S','
I1
ss(S'a'
g202
g412
g759
tp6528
(dp6529
g1300
I1
ss(g342
g67
g1740
g276
tp6530
(dp6531
S','
I1
ss(g1451
g56
g1196
g2372
tp6532
(dp6533
g327
I1
ss(g603
g68
S','
g632
tp6534
(dp6535
g940
I1
ss(S'?'
S'I'
g78
g233
tp6536
(dp6537
g104
I1
ss(g628
g1450
g175
g387
tp6538
(dp6539
g349
I1
ss(S'.'
g899
g372
S'I'
tp6540
(dp6541
g328
I1
ss(g309
g460
g845
g955
tp6542
(dp6543
g114
I1
ss(g230
g513
g1451
g56
tp6544
(dp6545
g1196
I1
ss(g1549
g1146
g577
g428
tp6546
(dp6547
g209
I1
ss(g256
g1724
S'a'
g357
tp6548
(dp6549
g188
I1
ss(g272
g1470
g339
S'.'
tp6550
(dp6551
g150
I1
ss(g132
S','
g81
g422
tp6552
(dp6553
g507
I1
ss(g1188
g270
g1674
g773
tp6554
(dp6555
S','
I1
ss(S','
g627
S'a'
g107
tp6556
(dp6557
g1409
I1
ss(g2177
S','
g2095
g201
tp6558
(dp6559
g874
I1
ss(g777
g2071
g2251
g1408
tp6560
(dp6561
g2254
I1
ss(g1457
g353
S','
g637
tp6562
(dp6563
g483
I1
ss(g597
g556
g223
g303
tp6564
(dp6565
g863
I1
ss(g974
g72
g1428
g31
tp6566
(dp6567
g267
I1
ss(g1147
g986
S','
g623
tp6568
(dp6569
g862
I1
ss(g1209
S'a'
g64
g542
tp6570
(dp6571
g190
I1
ss(S' '
g198
g177
S','
tp6572
(dp6573
g3605
I1
ss(g248
S'.'
g2259
g1635
tp6574
(dp6575
g1711
I1
ss(g234
g15
g283
g379
tp6576
(dp6577
g86
I1
ss(g660
g425
g305
S','
tp6578
(dp6579
g207
I1
ss(g425
g305
S','
g207
tp6580
(dp6581
S'.'
I1
ss(g1593
g65
g1583
S','
tp6582
(dp6583
g280
I1
ss(g905
g170
g135
g1523
tp6584
(dp6585
g146
I1
ss(S','
g621
g2921
g1126
tp6586
(dp6587
g1035
I1
ss(g2127
S':'
g1340
g974
tp6588
(dp6589
g72
I1
ss(S'I'
g341
g1020
g1145
tp6590
(dp6591
g63
I1
ss(g44
g36
g765
g249
tp6592
(dp6593
g208
I1
ss(g460
g845
g955
g114
tp6594
(dp6595
g351
I1
ss(g1607
S','
g2389
S'I'
tp6596
(dp6597
g2392
I1
ss(g1693
g79
g710
g676
tp6598
(dp6599
g373
I1
ss(g801
g1298
g356
g211
tp6600
(dp6601
g1241
I1
ss(g1299
g1987
g458
g661
tp6602
(dp6603
g272
I1
ss(g3470
g309
g460
g845
tp6604
(dp6605
g955
I1
ss(g1340
g974
g72
g1428
tp6606
(dp6607
g31
I1
ss(g1280
S','
g119
S':'
tp6608
(dp6609
g278
I1
ss(g1487
g133
g1230
g171
tp6610
(dp6611
S'.'
I1
ss(g1486
g1280
S','
g119
tp6612
(dp6613
S':'
I1
ss(g627
S'a'
g107
g1409
tp6614
(dp6615
S','
I1
ss(g1238
g324
g108
g1564
tp6616
(dp6617
g742
I1
ss(g623
g862
g48
g896
tp6618
(dp6619
g482
I1
ss(g1604
g241
g377
g394
tp6620
(dp6621
g1225
I1
ss(g268
g1614
g397
S'.'
tp6622
(dp6623
g2990
I1
ss(g97
S','
g2868
g1277
tp6624
(dp6625
g603
I1
ss(g407
g92
g1079
g369
tp6626
(dp6627
g889
I1
ss(g844
g195
g989
g2943
tp6628
(dp6629
g1610
I1
ss(g192
S'.'
g106
g1690
tp6630
(dp6631
g2479
I1
ss(g743
g287
S'.'
S'\x00'
tp6632
(dp6633
S'\x00'
I1
ss(g137
g936
g355
g76
tp6634
(dp6635
g123
I1
ss(g1287
g307
g122
g1273
tp6636
(dp6637
g21
I1
ss(g889
g3783
g288
S','
tp6638
(dp6639
g2005
I1
ss(g1277
g603
g68
S','
tp6640
(dp6641
g632
I1
ss(g3588
g212
g1743
g1152
tp6642
(dp6643
g495
I1
ss(g433
g1034
g186
S','
tp6644
(dp6645
g19
I1
ss(S','
g636
g152
g688
tp6646
(dp6647
g3495
I1
ss(S'a'
g64
g542
g190
tp6648
(dp6649
g905
I1
ss(g391
S'I'
g232
g346
tp6650
(dp6651
g1549
I1
ss(g1337
S','
g1861
g841
tp6652
(dp6653
S','
I1
ss(g1288
g3288
g2118
g433
tp6654
(dp6655
g1034
I1
ss(g175
g387
g349
g117
tp6656
(dp6657
g74
I1
ss(g1532
g1123
g1231
g736
tp6658
(dp6659
g848
I1
ss(g166
S','
g1833
g141
tp6660
(dp6661
g242
I1
ss(g243
g1512
g2026
S','
tp6662
(dp6663
g2029
I1
ss(g1925
g136
g414
g1403
tp6664
(dp6665
g3080
I1
ss(g1087
g982
g484
g75
tp6666
(dp6667
g1061
I1
ss(g116
g1483
g431
S','
tp6668
(dp6669
g3005
I1
ss(S','
g1785
S','
g642
tp6670
(dp6671
g111
I1
ss(g379
g86
g343
S','
tp6672
(dp6673
g1820
I1
ss(g1496
g120
g399
S','
tp6674
(dp6675
g2701
I1
ss(g1523
g146
g1265
g149
tp6676
(dp6677
S'.'
I1
ss(g396
g1337
S','
g1861
tp6678
(dp6679
g841
I1
ss(g634
g557
g289
g271
tp6680
(dp6681
g1082
I1
ss(g169
g134
g504
g1150
tp6682
(dp6683
S';'
I1
ss(g1614
g397
S'.'
g2990
tp6684
(dp6685
g153
I1
ss(S'a'
g33
g1693
g79
tp6686
(dp6687
g710
I1
ss(g2254
S','
g3414
g385
tp6688
(dp6689
g1106
I1
ss(g1610
g1249
g1312
g332
tp6690
(dp6691
g1220
I1
ss(g139
S','
g85
g329
tp6692
(dp6693
g282
I1
ss(g2490
g1310
g1160
g615
tp6694
(dp6695
g877
I1
ss(g1660
g2055
g158
g1601
tp6696
(dp6697
g142
I1
ss(g1241
S','
g2151
g1284
tp6698
(dp6699
g1216
I1
ss(g1592
g12
g71
S'.'
tp6700
(dp6701
g103
I1
ss(S','
g626
g1735
g1611
tp6702
(dp6703
S','
I1
ss(g380
S','
g2782
g616
tp6704
(dp6705
g130
I1
ss(g28
g239
g55
S';'
tp6706
(dp6707
g1423
I1
ss(g430
S';'
g7
g930
tp6708
(dp6709
g2835
I1
ss(g511
g99
S','
g2042
tp6710
(dp6711
g2204
I1
ss(g402
g782
g2690
g956
tp6712
(dp6713
g868
I1
ss(g1428
g31
g267
g1193
tp6714
(dp6715
g238
I1
ss(g1706
g1355
S'I'
g87
tp6716
(dp6717
g374
I1
ss(g141
g242
g229
g49
tp6718
(dp6719
g693
I1
ss(g71
S'.'
g103
g1509
tp6720
(dp6721
g842
I1
ss(S','
g4697
g4432
g1794
tp6722
(dp6723
g210
I1
ss(g739
g317
g918
g2176
tp6724
(dp6725
g300
I1
ss(S','
g2134
g32
S','
tp6726
(dp6727
g633
I1
ss(g360
g389
S','
g2639
tp6728
(dp6729
S','
I1
ss(g134
g504
g1150
S';'
tp6730
(dp6731
g402
I1
ss(g3618
g1004
g459
g1452
tp6732
(dp6733
g1214
I1
ss(g2279
g474
g129
S','
tp6734
(dp6735
g636
I1
ss(g26
g1626
g204
g144
tp6736
(dp6737
g166
I1
ss(g305
S','
g207
S'.'
tp6738
(dp6739
S'\x00'
I1
ss(g403
S','
g2325
g1286
tp6740
(dp6741
g933
I1
ss(g788
g274
g1681
g52
tp6742
(dp6743
g51
I1
ss(g1033
g1771
g320
g1721
tp6744
(dp6745
g97
I1
ss(g12
g71
S'.'
g103
tp6746
(dp6747
g1509
I1
ss(g321
S'.'
g254
g296
tp6748
(dp6749
g197
I1
ss(g1635
g1711
g451
g362
tp6750
(dp6751
S'.'
I1
ss(g553
g2886
g269
S','
tp6752
(dp6753
g638
I1
ss(g1448
g413
g1017
g253
tp6754
(dp6755
g1294
I1
ss(g616
g130
g588
g293
tp6756
(dp6757
g1109
I1
ss(g2437
g347
g83
g1346
tp6758
(dp6759
g336
I1
ss(g1302
g165
g602
g16
tp6760
(dp6761
g466
I1
ss(g940
g1718
g3140
g248
tp6762
(dp6763
S'.'
I1
ss(g213
g221
g830
g98
tp6764
(dp6765
g1480
I1
ss(g633
g263
g213
g221
tp6766
(dp6767
g830
I1
ss(g278
S','
g371
S','
tp6768
(dp6769
g3356
I1
ss(g1014
g23
g333
g1655
tp6770
(dp6771
g1973
I1
ss(g483
S','
g639
g1014
tp6772
(dp6773
g23
I1
ss(g3605
S','
g627
S'a'
tp6774
(dp6775
g107
I1
ss(g1529
g176
S'I'
g247
tp6776
(dp6777
g45
I1
ss(g15
g283
g379
g86
tp6778
(dp6779
g343
I1
ss(g441
g318
g1529
g176
tp6780
(dp6781
S'I'
I1
ss(g2521
g1121
g1343
g315
tp6782
(dp6783
g367
I1
ss(g1598
g860
g1447
g1713
tp6784
(dp6785
g408
I1
ss(g261
g837
S','
g625
tp6786
(dp6787
g2000
I1
ss(g1121
g1343
g315
g367
tp6788
(dp6789
g715
I1
ss(g245
g168
S','
g628
tp6790
(dp6791
g1450
I1
ss(g642
g111
g1598
g860
tp6792
(dp6793
g1447
I1
ss(g67
g1740
g276
S','
tp6794
(dp6795
g2405
I1
ss(S','
g2789
g435
g1544
tp6796
(dp6797
g2347
I1
ss(g384
S','
g350
g827
tp6798
(dp6799
g1238
I1
ss(g956
g868
g831
g861
tp6800
(dp6801
g50
I1
ss(g1322
g1716
g3876
g4880
tp6802
(dp6803
g2416
I1
ss(S';'
g2526
g125
S','
tp6804
(dp6805
g2455
I1
ss(g1122
g1087
g982
g484
tp6806
(dp6807
g75
I1
ss(S','
g620
g406
g400
tp6808
(dp6809
g27
I1
ss(g25
g1028
g2516
g2751
tp6810
(dp6811
g1308
I1
ss(g630
g737
g3280
g3065
tp6812
(dp6813
S','
I1
ss(g2095
g201
g874
g224
tp6814
(dp6815
g1438
I1
ss(g1727
g1147
g986
S','
tp6816
(dp6817
g623
I1
ss(g332
g1220
g41
g1086
tp6818
(dp6819
g18
I1
ss(S','
g2042
g2204
g225
tp6820
(dp6821
g524
I1
ss(g344
g902
g82
g218
tp6822
(dp6823
g96
I1
ss(S','
g2868
g1277
g603
tp6824
(dp6825
g68
I1
ss(g868
g831
g861
g50
tp6826
(dp6827
g670
I1
ss(g1286
g933
g1909
g25
tp6828
(dp6829
g1028
I1
ss(g1354
g54
S','
g643
tp6830
(dp6831
g961
I1
ss(g1712
g93
g66
g1400
tp6832
(dp6833
g258
I1
ss(S'I'
g58
g28
g239
tp6834
(dp6835
g55
I1
ss(g489
g161
g262
g1092
tp6836
(dp6837
g1303
I1
ss(g176
S'I'
g247
g45
tp6838
(dp6839
g243
I1
ss(g1794
g210
g801
g1298
tp6840
(dp6841
g356
I1
ss(g1655
g1973
g245
g168
tp6842
(dp6843
S','
I1
ss(S'I'
S','
g139
S','
tp6844
(dp6845
g85
I1
ss(g212
g1743
g1152
g495
tp6846
(dp6847
g858
I1
ss(g38
g591
g151
g1354
tp6848
(dp6849
g54
I1
ss(g56
g1196
g2372
g327
tp6850
(dp6851
g277
I1
ss(g1307
S'.'
g214
g824
tp6852
(dp6853
g1607
I1
ss(S','
g630
g737
g3280
tp6854
(dp6855
g3065
I1
ss(g36
g765
g249
g208
tp6856
(dp6857
g340
I1
ss(g361
g34
S'I'
g416
tp6858
(dp6859
g378
I1
ss(g423
S'a'
g325
g393
tp6860
(dp6861
g1575
I1
ss(S'.'
g365
g1638
S'a'
tp6862
(dp6863
g256
I1
ss(S','
g628
g1450
g175
tp6864
(dp6865
g387
I1
ss(g275
g1116
g395
S','
tp6866
(dp6867
g624
I1
ss(S','
g3356
g519
g1492
tp6868
(dp6869
g947
I1
ss(g185
g777
g2071
g2251
tp6870
(dp6871
g1408
I1
ss(g82
g218
g96
g35
tp6872
(dp6873
g915
I1
ss(g222
g804
S'I'
g341
tp6874
(dp6875
g1020
I1
ss(g254
g296
g197
g101
tp6876
(dp6877
g1073
I1
ss(g290
g1641
g1969
S'.'
tp6878
(dp6879
g391
I1
ss(g58
g28
g239
g55
tp6880
(dp6881
S';'
I1
ss(g1638
S'a'
g256
g1724
tp6882
(dp6883
S'a'
I1
ss(S'a'
g325
g393
g1575
tp6884
(dp6885
g173
I1
ss(g2690
g956
g868
g831
tp6886
(dp6887
g861
I1
ss(g378
g648
g193
S'.'
tp6888
(dp6889
g899
I1
sg140
I1
ss(g35
g915
g1149
g181
tp6890
(dp6891
g1129
I1
ss(g450
g102
g1132
g1950
tp6892
(dp6893
g10
I1
ss(S'I'
g2569
g381
g489
tp6894
(dp6895
g161
I1
ss(g770
g110
S'.'
g2442
tp6896
(dp6897
g683
I1
ss(S','
g350
g827
g1238
tp6898
(dp6899
g324
I1
ss(g358
S','
g3413
g95
tp6900
(dp6901
g1727
I1
ss(g2908
g2601
g1412
g143
tp6902
(dp6903
g47
I1
ss(g229
g49
g693
g326
tp6904
(dp6905
g228
I1
ss(g363
S','
S'I'
g235
tp6906
(dp6907
g655
I1
ss(g557
g289
g271
g1082
tp6908
(dp6909
g1278
I1
ss(S','
g2458
g4907
g2279
tp6910
(dp6911
g474
I1
ss(S','
g2095
g201
g874
tp6912
(dp6913
g224
I1
ss(g250
S','
g641
g743
tp6914
(dp6915
g287
I1
ss(g70
g310
g302
g321
tp6916
(dp6917
S'.'
I1
ss(S'.'
g150
g1634
g658
tp6918
(dp6919
S'I'
I1
ss(g4697
g4432
g1794
g210
tp6920
(dp6921
g801
I1
ss(g3495
g172
g1076
g121
tp6922
(dp6923
g1617
I1
ss(g2251
g1408
g2254
S','
tp6924
(dp6925
g3414
I1
ss(g46
g1234
g1122
g1087
tp6926
(dp6927
g982
I1
ss(g351
S','
g2134
g32
tp6928
(dp6929
S','
I1
ss(g519
g1492
g947
S','
tp6930
(dp6931
g640
I1
ss(g427
g834
g1301
g2272
tp6932
(dp6933
g3618
I1
ss(g710
g676
g373
g553
tp6934
(dp6935
g2886
I1
ss(S','
S'I'
g70
g310
tp6936
(dp6937
g302
I1
ss(S';'
g60
S','
S'I'
tp6938
(dp6939
g1982
I1
ss(g232
g346
g1549
g1146
tp6940
(dp6941
g577
I1
ss(g1058
g73
g205
S'.'
tp6942
(dp6943
g3149
I1
ss(g109
g1578
g2262
S','
tp6944
(dp6945
g1784
I1
ss(g117
g74
g886
g1305
tp6946
(dp6947
g1033
I1
ss(g3140
g248
S'.'
g2259
tp6948
(dp6949
g1635
I1
ss(g3414
g385
g1106
g511
tp6950
(dp6951
g99
I1
ss(g1611
S','
g156
g1103
tp6952
(dp6953
g3133
I1
ss(g3149
g132
S','
g81
tp6954
(dp6955
g422
I1
ss(g567
g1493
g738
g473
tp6956
(dp6957
g816
I1
ss(g393
g1575
g173
g594
tp6958
(dp6959
g335
I1
ss(g1284
g1216
g1325
g265
tp6960
(dp6961
g950
I1
ss(g3519
g5026
S','
g2431
tp6962
(dp6963
g2267
I1
ss(g1219
g184
g286
g979
tp6964
(dp6965
g1972
I1
ss(g85
g329
g282
S','
tp6966
(dp6967
g191
I1
ss(g976
g929
g429
g180
tp6968
(dp6969
g1363
I1
ss(g113
g1652
g2058
g155
tp6970
(dp6971
S';'
I1
ss(g1512
g2026
S','
g2029
tp6972
(dp6973
g1593
I1
ss(S','
g207
S'.'
S'\x00'
tp6974
(dp6975
S'\x00'
I1
ss(g734
g29
S'.'
g17
tp6976
(dp6977
g1532
I1
ss(g419
g1053
g649
g259
tp6978
(dp6979
g1391
I1
ss(g536
g521
g441
g318
tp6980
(dp6981
g1529
I1
ss(g2416
g1309
g1085
g2127
tp6982
(dp6983
S':'
I1
ss(g324
g108
g1564
g742
tp6984
(dp6985
g261
I1
ss(g1294
g128
S','
g2088
tp6986
(dp6987
g440
I1
ss(g233
g104
g912
g222
tp6988
(dp6989
g804
I1
ss(g2854
S','
g4053
S'a'
tp6990
(dp6991
g33
I1
ss(S'I'
g2246
g62
g417
tp6992
(dp6993
g1567
I1
ss(g484
g75
g1061
g1304
tp6994
(dp6995
g980
I1
ss(g1237
g59
g301
g662
tp6996
(dp6997
g316
I1
ss(g2347
g452
g2490
g1310
tp6998
(dp6999
g1160
I1
ss(g120
g399
S','
g2701
tp7000
(dp7001
g1755
I1
ss(g1152
g495
g858
S'I'
tp7002
(dp7003
g5708
I1
ss(g69
g1316
S';'
g2526
tp7004
(dp7005
g125
I1
ss(g615
g877
g292
S'-'
tp7006
(dp7007
g1048
I1
ss(S','
g2734
g1279
S'I'
tp7008
(dp7009
g2569
I1
ss(S'.'
g140
g37
S','
tp7010
(dp7011
g2565
I1
ss(g1505
g1040
g246
g1730
tp7012
(dp7013
g236
I1
ss(g626
g1735
g1611
S','
tp7014
(dp7015
g156
I1
ss(g397
S'.'
g2990
g153
tp7016
(dp7017
g855
I1
ss(g886
g1305
g1033
g1771
tp7018
(dp7019
g320
I1
ss(g1564
g742
g261
g837
tp7020
(dp7021
S','
I1
ss(S'.'
g2259
g1635
g1711
tp7022
(dp7023
g451
I1
ss(g1668
g183
g1696
g430
tp7024
(dp7025
S';'
I1
ss(g406
g400
g27
g572
tp7026
(dp7027
g273
I1
ss(g466
g162
g20
g281
tp7028
(dp7029
g1358
I1
ss(S';'
g2025
g1285
g38
tp7030
(dp7031
g591
I1
ss(g670
g159
g1201
g1276
tp7032
(dp7033
g881
I1
ss(g3413
g95
g1727
g1147
tp7034
(dp7035
g986
I1
ss(S','
g85
g329
g282
tp7036
(dp7037
S','
I1
ss(g336
S';'
g1425
g200
tp7038
(dp7039
g1417
I1
ss(g242
g229
g49
g693
tp7040
(dp7041
g326
I1
ss(g1025
g363
S','
S'I'
tp7042
(dp7043
g235
I1
ss(g1631
g1487
g133
g1230
tp7044
(dp7045
g171
I1
ss(g1671
S','
g630
g737
tp7046
(dp7047
g3280
I1
ss(g102
g1132
g1950
g10
tp7048
(dp7049
g421
I1
ss(g1285
g38
g591
g151
tp7050
(dp7051
g1354
I1
ss(g54
S','
g643
g961
tp7052
(dp7053
S','
I1
ss(S'.'
g106
g1690
g2479
tp7054
(dp7055
g384
I1
ss(g62
g417
g1567
S'-'
tp7056
(dp7057
g345
I1
ss(g174
g154
g924
g311
tp7058
(dp7059
g383
I1
ss(g5737
S'.'
g140
g37
tp7060
(dp7061
S','
I1
ss(g513
g1451
g56
g1196
tp7062
(dp7063
g2372
I1
ss(g193
S'.'
g899
g372
tp7064
(dp7065
S'I'
I1
ss(g95
g1727
g1147
g986
tp7066
(dp7067
S','
I1
ss(g1400
g258
g290
g1641
tp7068
(dp7069
g1969
I1
ss(g400
g27
g572
g273
tp7070
(dp7071
g113
I1
ss(g284
g1473
g2854
S','
tp7072
(dp7073
g4053
I1
ss(g1126
g1035
g22
g1671
tp7074
(dp7075
S','
I1
ss(S','
g642
g111
g1598
tp7076
(dp7077
g860
I1
ss(g239
g55
S';'
g1423
tp7078
(dp7079
g976
I1
ss(g1125
g2590
g1454
g481
tp7080
(dp7081
g1351
I1
ss(g60
S','
S'I'
g1982
tp7082
(dp7083
g1751
I1
ss(S','
g206
g314
S','
tp7084
(dp7085
g619
I1
ss(g395
S','
g624
g338
tp7086
(dp7087
g342
I1
ss(g59
g301
g662
g316
tp7088
(dp7089
S';'
I1
ss(g274
g1681
g52
g51
tp7090
(dp7091
g1460
I1
ss(g843
g859
g319
g567
tp7092
(dp7093
g1493
I1
ss(g915
g1149
g181
g1129
tp7094
(dp7095
g226
I1
ss(g131
g667
g1306
S','
tp7096
(dp7097
g622
I1
ss(g37
S','
g2565
S'I'
tp7098
(dp7099
g2568
I1
ss(g223
g303
g863
g40
tp7100
(dp7101
g1244
I1
ss(g112
g53
g116
g1483
tp7102
(dp7103
g431
I1
ss(g8
g722
g43
g203
tp7104
(dp7105
g14
I1
ss(g971
g1486
g1280
S','
tp7106
(dp7107
g119
I1
ss(g107
g1409
S','
g206
tp7108
(dp7109
g314
I1
ss(g473
g816
g2221
g3972
tp7110
(dp7111
g2177
I1
ss(g9
S'.'
g2875
g1175
tp7112
(dp7113
g1710
I1
ss(g1214
g169
g134
g504
tp7114
(dp7115
g1150
I1
ss(g1973
g245
g168
S','
tp7116
(dp7117
g628
I1
ss(g394
g1225
S','
g2734
tp7118
(dp7119
g1279
I1
ss(S','
g622
g2437
g347
tp7120
(dp7121
g83
I1
ss(g220
g358
S','
g3413
tp7122
(dp7123
g95
I1
ss(g355
g76
g123
g366
tp7124
(dp7125
g145
I1
ss(S','
g640
g1550
g985
tp7126
(dp7127
S','
I1
ss(g2442
g683
g518
g8
tp7128
(dp7129
g722
I1
ss(g153
g855
g1940
g1219
tp7130
(dp7131
g184
I1
ss(g1412
g143
g47
S','
tp7132
(dp7133
g626
I1
ss(S','
g191
g418
g426
tp7134
(dp7135
g420
I1
ss(g1452
g1214
g169
g134
tp7136
(dp7137
g504
I1
ss(g2431
g2267
g660
g425
tp7138
(dp7139
g305
I1
ss(g1652
g2058
g155
S';'
tp7140
(dp7141
g2025
I1
ss(g2176
g300
g348
S'.'
tp7142
(dp7143
g365
I1
ss(g404
g1620
g463
g1153
tp7144
(dp7145
S'.'
I1
ss(g2835
g432
g1209
S'a'
tp7146
(dp7147
g64
I1
ss(g1617
g1925
g136
g414
tp7148
(dp7149
g1403
I1
ss(g1303
g398
g735
g3128
tp7150
(dp7151
g788
I1
ss(g1231
g736
g848
g3285
tp7152
(dp7153
g2861
I1
ss(g302
g321
S'.'
g254
tp7154
(dp7155
g296
I1
ss(g1649
g3367
S','
g2178
tp7156
(dp7157
g558
I1
ss(g190
g905
g170
g135
tp7158
(dp7159
g1523
I1
ss(g348
S'.'
g365
g1638
tp7160
(dp7161
S'a'
I1
ss(g259
g1391
S'a'
g44
tp7162
(dp7163
g36
I1
ss(g737
g3280
g3065
S','
tp7164
(dp7165
g112
I1
ss(g1583
S','
g280
g1319
tp7166
(dp7167
g1880
I1
ss(g5026
S','
g2431
g2267
tp7168
(dp7169
g660
I1
sg1794
I1
ss(g195
g989
g2943
g1610
tp7170
(dp7171
g1249
I1
ss(S','
g2296
g1449
g439
tp7172
(dp7173
g846
I1
ss(g1947
g264
g1712
g93
tp7174
(dp7175
g66
I1
ss(g432
g1209
S'a'
g64
tp7176
(dp7177
g542
I1
ss(g83
g1346
g336
S';'
tp7178
(dp7179
g1425
I1
ss(g80
S','
g3433
g3470
tp7180
(dp7181
g309
I1
ss(g311
g383
g127
g939
tp7182
(dp7183
g361
I1
ss(g693
g326
g228
g1541
tp7184
(dp7185
g1302
I1
ss(S'I'
g1982
g1751
g46
tp7186
(dp7187
g1234
I1
ss(g1705
g1283
g388
g1001
tp7188
(dp7189
g1154
I1
ss(g1312
g332
g1220
g41
tp7190
(dp7191
g1086
I1
ss(g214
g824
g1607
S','
tp7192
(dp7193
g2389
I1
ss(g165
g602
g16
g466
tp7194
(dp7195
g162
I1
ss(g2782
g616
g130
g588
tp7196
(dp7197
g293
I1
ss(g429
g180
g1363
g1313
tp7198
(dp7199
g959
I1
ss(S' '
g294
S'I'
S','
tp7200
(dp7201
g139
I1
ss(g416
g378
g648
g193
tp7202
(dp7203
S'.'
I2
ss(g180
g1363
g1313
g959
tp7204
(dp7205
g1604
I1
ss(g2336
g1287
g307
g122
tp7206
(dp7207
g1273
I1
ss(g698
g1684
g220
g358
tp7208
(dp7209
S','
I1
ss(g3288
g2118
g433
g1034
tp7210
(dp7211
g186
I1
ss(g147
S'.'
g42
g396
tp7212
(dp7213
g1337
I1
ss(g235
g655
g3807
g3121
tp7214
(dp7215
g449
I1
ss(g218
g96
g35
g915
tp7216
(dp7217
g1149
I1
ss(g224
g1438
g1307
S'.'
tp7218
(dp7219
g214
I1
ss(S'I'
g78
g233
g104
tp7220
(dp7221
g912
I1
ss(g68
S','
g632
g940
tp7222
(dp7223
g1718
I1
ss(g1185
g231
g1206
g3794
tp7224
(dp7225
S','
I1
ss(S'a'
g427
g834
g1301
tp7226
(dp7227
g2272
I1
ss(g253
g1294
g128
S','
tp7228
(dp7229
g2088
I1
ss(g452
g2490
g1310
g1160
tp7230
(dp7231
g615
I1
ss(g518
g8
g722
g43
tp7232
(dp7233
g203
I1
ss(g1230
g171
S'.'
S'\x00'
tp7234
(dp7235
S'\x00'
I1
ss(g93
g66
g1400
g258
tp7236
(dp7237
g290
I1
ss(g334
g295
g1668
g183
tp7238
(dp7239
g1696
I1
ss(g98
g1480
S','
g2216
tp7240
(dp7241
g237
I1
ss(g524
g1159
g266
g1376
tp7242
(dp7243
g1281
I1
ss(g439
g846
g337
g946
tp7244
(dp7245
g415
I1
ss(S';'
g7
g930
g2835
tp7246
(dp7247
g432
I1
ss(g411
g1188
g270
g1674
tp7248
(dp7249
g773
I1
ss(g418
g426
g420
g160
tp7250
(dp7251
g260
I1
ss(S','
g2782
g616
g130
tp7252
(dp7253
g588
I1
ss(g246
g1730
g236
g707
tp7254
(dp7255
g250
I1
ss(g2267
g660
g425
g305
tp7256
(dp7257
S','
I1
ss(S' '
S'I'
g3516
S','
tp7258
(dp7259
g3519
I1
ss(S','
g3382
g1912
g80
tp7260
(dp7261
S','
I1
ss(g170
g135
g1523
g146
tp7262
(dp7263
g1265
I1
ss(g1717
S','
g352
g1237
tp7264
(dp7265
g59
I1
ss(g2516
g2751
g1308
S','
tp7266
(dp7267
g2296
I1
ss(g16
g466
g162
g20
tp7268
(dp7269
g281
I1
ss(g88
g770
g110
S'.'
tp7270
(dp7271
g2442
I1
ss(g350
g827
g1238
g324
tp7272
(dp7273
g108
I1
ss(S','
S'I'
g61
g1066
tp7274
(dp7275
g472
I1
ss(g1912
g80
S','
g3433
tp7276
(dp7277
g3470
I1
ss(g375
g789
g762
g410
tp7278
(dp7279
g729
I1
ss(g31
g267
g1193
g238
tp7280
(dp7281
g419
I1
ss(g1358
g9
S'.'
g2875
tp7282
(dp7283
g1175
I1
ss(g5093
g2820
S'a'
g427
tp7284
(dp7285
g834
I1
ss(g122
g1273
g21
g230
tp7286
(dp7287
g513
I1
ss(g115
g701
g510
g251
tp7288
(dp7289
g597
I1
ss(g33
g1693
g79
g710
tp7290
(dp7291
g676
I1
ss(g2639
S','
g634
g557
tp7292
(dp7293
g289
I1
ss(S','
g1784
g1288
g3288
tp7294
(dp7295
g2118
I1
ss(g933
g1909
g25
g1028
tp7296
(dp7297
g2516
I1
ss(g1079
g369
g889
g3783
tp7298
(dp7299
g288
I1
ss(g688
g3495
g172
g1076
tp7300
(dp7301
g121
I1
ss(S','
g280
g1319
g1880
tp7302
(dp7303
g1151
I1
ss(S'.'
g214
g824
g1607
tp7304
(dp7305
S','
I1
ss(S'I'
g416
g378
g648
tp7306
(dp7307
g193
I2
ss(g368
S','
S'I'
g61
tp7308
(dp7309
g1066
I1
ss(g247
g45
g243
g1512
tp7310
(dp7311
g2026
I1
ss(g629
g1592
g12
g71
tp7312
(dp7313
S'.'
I1
ss(g201
g874
g224
g1438
tp7314
(dp7315
g1307
I1
ss(g1139
g444
g1506
g331
tp7316
(dp7317
S','
I1
ss(g124
g1322
g1716
g3876
tp7318
(dp7319
g4880
I1
ss(g2734
g1279
S'I'
g2569
tp7320
(dp7321
g381
I1
ss(g2134
g32
S','
g633
tp7322
(dp7323
g263
I1
ss(g294
S'I'
S','
g139
tp7324
(dp7325
S','
I1
ss(g154
g924
g311
g383
tp7326
(dp7327
g127
I1
ss(g878
g981
g94
g199
tp7328
(dp7329
g411
I1
ss(g357
g188
g1433
g2501
tp7330
(dp7331
g960
I1
ss(g431
S','
g3005
S'I'
tp7332
(dp7333
g1140
I1
ss(g2071
g2251
g1408
g2254
tp7334
(dp7335
S','
I1
ss(S','
g2029
g1593
g65
tp7336
(dp7337
g1583
I1
ss(g156
g1103
g3133
g138
tp7338
(dp7339
g1746
I1
ss(S'to'
g5737
S'.'
g140
tp7340
(dp7341
g37
I1
ss(g1768
g194
g163
g652
tp7342
(dp7343
S'?'
I1
ss(g152
g688
g3495
g172
tp7344
(dp7345
g1076
I1
ss(g405
S','
g434
g285
tp7346
(dp7347
g219
I1
ss(g1746
g1834
g1124
g1705
tp7348
(dp7349
g1283
I1
ss(g458
g661
g272
g1470
tp7350
(dp7351
g339
I1
ss(S','
g3005
S'I'
g1140
tp7352
(dp7353
g734
I1
ss(g2886
g269
S','
g638
tp7354
(dp7355
g1631
I1
ss(S','
g2639
S','
g634
tp7356
(dp7357
g557
I1
ss(g3341
g69
g1316
S';'
tp7358
(dp7359
g2526
I1
ss(g1623
g3032
S'a'
g202
tp7360
(dp7361
g412
I1
ss(g1138
g57
S'.'
S'\x00'
tp7362
(dp7363
S'\x00'
I1
ss(S' '
g364
g821
g496
tp7364
(dp7365
g1185
I1
ss(g148
S','
g2336
g1287
tp7366
(dp7367
g307
I1
ss(g283
g379
g86
g343
tp7368
(dp7369
S','
I1
ss(g2891
g26
g1626
g204
tp7370
(dp7371
g144
I1
ss(g3516
S','
g3519
g5026
tp7372
(dp7373
S','
I1
ss(g103
g1509
g842
g659
tp7374
(dp7375
g375
I1
ss(S','
g2325
g1286
g933
tp7376
(dp7377
g1909
I1
ss(g271
g1082
g1278
g167
tp7378
(dp7379
g1256
I1
ss(g440
S','
g275
g1116
tp7380
(dp7381
g395
I1
ss(g343
S','
g1820
g137
tp7382
(dp7383
g936
I1
ss(g2088
g440
S','
g275
tp7384
(dp7385
g1116
I1
ss(g221
g830
g98
g1480
tp7386
(dp7387
S','
I1
ss(g676
g373
g553
g2886
tp7388
(dp7389
g269
I1
ss(S';'
g240
S'I'
g1137
tp7390
(dp7391
g392
I1
ss(S'I'
g89
g1178
g109
tp7392
(dp7393
g1578
I1
ss(g1085
g2127
S':'
g1340
tp7394
(dp7395
g974
I1
ss(g1665
g147
S'.'
g42
tp7396
(dp7397
g396
I1
ss(g1276
g881
S'.'
g77
tp7398
(dp7399
g536
I1
ss(g319
g567
g1493
g738
tp7400
(dp7401
g473
I1
ss(S','
g638
g1631
g1487
tp7402
(dp7403
g133
I1
ss(g961
S','
g2209
g370
tp7404
(dp7405
g966
I1
ss(g318
g1529
g176
S'I'
tp7406
(dp7407
g247
I1
ss(g1066
g472
S'I'
g2967
tp7408
(dp7409
g39
I1
ss(g765
g249
g208
g340
tp7410
(dp7411
g1215
I1
ss(g157
g533
g1448
g413
tp7412
(dp7413
g1017
I1
ss(g975
S','
g621
g2921
tp7414
(dp7415
g1126
I1
ss(g994
g1043
g192
S'.'
tp7416
(dp7417
g106
I1
ss(g339
S'.'
g150
g1634
tp7418
(dp7419
g658
I1
ss(g2590
g1454
g481
g1351
tp7420
(dp7421
g512
I1
ss(g371
S','
g3356
g519
tp7422
(dp7423
g1492
I1
ss(g1316
S';'
g2526
g125
tp7424
(dp7425
S','
I1
ss(g110
S'.'
g2442
g683
tp7426
(dp7427
g518
I1
ss(g759
g1300
g284
g1473
tp7428
(dp7429
g2854
I1
ss(g307
g122
g1273
g21
tp7430
(dp7431
g230
I1
ss(g504
g1150
S';'
g402
tp7432
(dp7433
g782
I1
ss(g2008
g2926
g1297
S','
tp7434
(dp7435
g1947
I1
ss(g2926
g1297
S','
g1947
tp7436
(dp7437
g264
I1
ss(g1244
g255
g746
g227
tp7438
(dp7439
g1496
I1
ss(g2058
g155
S';'
g2025
tp7440
(dp7441
g1285
I1
ss(S'I'
g328
g322
g344
tp7442
(dp7443
g902
I1
ss(g1279
S'I'
g2569
g381
tp7444
(dp7445
g489
I1
ss(g661
g272
g1470
g339
tp7446
(dp7447
S'.'
I1
ss(S','
g634
g557
g289
tp7448
(dp7449
g271
I1
ss(g352
g1237
g59
g301
tp7450
(dp7451
g662
I1
ss(g410
g729
g2199
g815
tp7452
(dp7453
g88
I1
ss(g1735
g1611
S','
g156
tp7454
(dp7455
g1103
I1
ss(g746
g227
g1496
g120
tp7456
(dp7457
g399
I1
ss(g161
g262
g1092
g1303
tp7458
(dp7459
g398
I1
ss(g989
g2943
g1610
g1249
tp7460
(dp7461
g1312
I1
sg1309
I1
ss(g482
g1557
g1505
g1040
tp7462
(dp7463
g246
I1
ss(g330
g359
g1526
g148
tp7464
(dp7465
S','
I1
ss(S','
g635
g783
g3588
tp7466
(dp7467
g212
I1
ss(g428
g209
S','
g306
tp7468
(dp7469
g520
I1
ss(S';'
g1424
g2710
g5093
tp7470
(dp7471
g2820
I1
ss(g255
g746
g227
g1496
tp7472
(dp7473
g120
I1
ss(g2565
S'I'
g2568
g390
tp7474
(dp7475
g1025
I1
ss(g735
g3128
g788
g274
tp7476
(dp7477
g1681
I1
ss(g42
g396
g1337
S','
tp7478
(dp7479
g1861
I1
ss(g1206
g3794
S','
g1785
tp7480
(dp7481
S','
I1
ss(g736
g848
g3285
g2861
tp7482
(dp7483
g157
I1
ss(g3783
g288
S','
g2005
tp7484
(dp7485
g1282
I1
ss(g353
S','
g637
g483
tp7486
(dp7487
S','
I1
ss(g160
g260
g178
g847
tp7488
(dp7489
g189
I1
ss(g542
g190
g905
g170
tp7490
(dp7491
g135
I1
ss(g980
g1268
g450
g102
tp7492
(dp7493
g1132
I1
ss(S'.'
g3149
g132
S','
tp7494
(dp7495
g81
I1
ss(g27
g572
g273
g113
tp7496
(dp7497
g1652
I1
ss(g312
g409
g1687
g376
tp7498
(dp7499
g971
I1
ss(g385
g1106
g511
g99
tp7500
(dp7501
S','
I1
ss(g315
g367
g715
g382
tp7502
(dp7503
g921
I1
ss(g1492
g947
S','
g640
tp7504
(dp7505
g1550
I1
ss(g1740
g276
S','
g2405
tp7506
(dp7507
g2521
I1
ss(g1043
g192
S'.'
g106
tp7508
(dp7509
g1690
I1
ss(g374
g774
g196
g1382
tp7510
(dp7511
S';'
I1
ss(g1724
S'a'
g357
g188
tp7512
(dp7513
g1433
I1
ss(g184
g286
g979
g1972
tp7514
(dp7515
g118
I1
ss(S'-'
g24
S','
g252
tp7516
(dp7517
S','
I1
ss(S'.'
g391
S'I'
g232
tp7518
(dp7519
g346
I1
ss(g2964
S'I'
g1139
g444
tp7520
(dp7521
g1506
I1
ss(g66
g1400
g258
g290
tp7522
(dp7523
g1641
I1
ss(g1465
g1148
S','
S'I'
tp7524
(dp7525
g174
I1
ss(g1163
g2891
g26
g1626
tp7526
(dp7527
g204
I1
ss(g1040
g246
g1730
g236
tp7528
(dp7529
g707
I1
ss(g1493
g738
g473
g816
tp7530
(dp7531
g2221
I1
ss(g2372
g327
g277
g126
tp7532
(dp7533
S','
I1
ss(g837
S','
g625
g2000
tp7534
(dp7535
g843
I1
ss(g521
g441
g318
g1529
tp7536
(dp7537
g176
I1
ss(S','
g639
g1014
g23
tp7538
(dp7539
g333
I1
ss(g3433
g3470
g309
g460
tp7540
(dp7541
g845
I1
ss(g1620
g463
g1153
S'.'
tp7542
(dp7543
g164
I1
ss(g1256
g131
g667
g1306
tp7544
(dp7545
S','
I1
ss(S','
g623
g862
g48
tp7546
(dp7547
g896
I1
ss(g24
S','
g252
S','
tp7548
(dp7549
g620
I1
ss(S'I'
g1137
g392
g268
tp7550
(dp7551
g1614
I1
ss(g372
S'I'
g328
g322
tp7552
(dp7553
g344
I1
ss(g322
g344
g902
g82
tp7554
(dp7555
g218
I1
ss(S','
g275
g1116
g395
tp7556
(dp7557
S','
I1
ss(g1082
g1278
g167
g1256
tp7558
(dp7559
g131
I1
ss(g142
g469
g313
S';'
tp7560
(dp7561
g1424
I1
ss(g3356
g519
g1492
g947
tp7562
(dp7563
S','
I1
ss(g365
g1638
S'a'
g256
tp7564
(dp7565
g1724
I1
ss(g707
g250
S','
g641
tp7566
(dp7567
g743
I1
ss(g151
g1354
g54
S','
tp7568
(dp7569
g643
I1
ss(g413
g1017
g253
g1294
tp7570
(dp7571
g128
I1
ss(g512
g1572
g217
S','
tp7572
(dp7573
g2458
I1
ss(g401
g1163
g2891
g26
tp7574
(dp7575
g1626
I1
ss(g281
g1358
g9
S'.'
tp7576
(dp7577
g2875
I1
ss(g1509
g842
g659
g375
tp7578
(dp7579
g789
I1
ss(g1309
g1085
g2127
S':'
tp7580
(dp7581
g1340
I1
ss(g191
g418
g426
g420
tp7582
(dp7583
g160
I1
ss(g1308
S','
g2296
g1449
tp7584
(dp7585
g439
I1
ss(g146
g1265
g149
S'.'
tp7586
(dp7587
g3174
I1
ss(S','
g631
g1709
g257
tp7588
(dp7589
g1168
I1
ss(g896
g482
g1557
g1505
tp7590
(dp7591
g1040
I1
ss(S' '
g360
g389
S','
tp7592
(dp7593
g2639
I1
ss(g125
S','
g2455
g185
tp7594
(dp7595
g777
I1
ss(g1215
g2008
g2926
g1297
tp7596
(dp7597
S','
I1
ss(g316
S';'
g1422
S'I'
tp7598
(dp7599
g297
I1
ss(g1969
S'.'
g391
S'I'
tp7600
(dp7601
g232
I1
ss(g383
g127
g939
g361
tp7602
(dp7603
g34
I1
ss(g742
g261
g837
S','
tp7604
(dp7605
g625
I1
ss(g129
S','
g636
g152
tp7606
(dp7607
g688
I1
ss(g979
g1972
g118
S','
tp7608
(dp7609
S'I'
I1
ss(g1450
g175
g387
g349
tp7610
(dp7611
g117
I1
ss(g1092
g1303
g398
g735
tp7612
(dp7613
g3128
I1
ss(g1972
g118
S','
S'I'
tp7614
(dp7615
g58
I1
ss(g269
S','
g638
g1631
tp7616
(dp7617
g1487
I1
ss(g912
g222
g804
S'I'
tp7618
(dp7619
g341
I1
ss(g354
g871
g1311
S';'
tp7620
(dp7621
g60
I1
ss(g1076
g121
g1617
g1925
tp7622
(dp7623
g136
I1
ss(g2526
g125
S','
g2455
tp7624
(dp7625
g185
I1
ss(g966
g404
g1620
g463
tp7626
(dp7627
g1153
I1
ss(g1249
g1312
g332
g1220
tp7628
(dp7629
g41
I1
ss(g789
g762
g410
g729
tp7630
(dp7631
g2199
I1
ss(S'a'
g107
g1409
S','
tp7632
(dp7633
g206
I1
ss(g4907
g2279
g474
g129
tp7634
(dp7635
S','
I1
ss(g955
g114
g351
S','
tp7636
(dp7637
g2134
I1
ss(g2259
g1635
g1711
g451
tp7638
(dp7639
g362
I1
ss(g347
g83
g1346
g336
tp7640
(dp7641
S';'
I1
ss(g206
g314
S','
g619
tp7642
(dp7643
g13
I1
ss(g41
g1086
g18
g124
tp7644
(dp7645
g1322
I1
ss(g848
g3285
g2861
g157
tp7646
(dp7647
g533
I1
ss(S','
g2389
S'I'
g2392
tp7648
(dp7649
g3259
I1
ss(S';'
g1423
g976
g929
tp7650
(dp7651
g429
I1
ss(g821
g496
g1185
g231
tp7652
(dp7653
g1206
I1
ss(g830
g98
g1480
S','
tp7654
(dp7655
g2216
I1
ss(S'a'
g44
g36
g765
tp7656
(dp7657
g249
I1
ss(S' '
S'I'
g2246
g62
tp7658
(dp7659
g417
I1
ss(g1319
g1880
g1151
g215
tp7660
(dp7661
g608
I1
ss(g2246
g62
g417
g1567
tp7662
(dp7663
S'-'
I1
ss(g215
g608
g1379
g1299
tp7664
(dp7665
g1987
I1
ss(g1175
g1710
g291
g1660
tp7666
(dp7667
g2055
I1
ss(g1148
S','
S'I'
g174
tp7668
(dp7669
g154
I1
ss(g1145
g63
g84
g182
tp7670
(dp7671
g1717
I1
ss(S','
g2151
g1284
g1216
tp7672
(dp7673
g1325
I1
ss(g81
g422
g507
g424
tp7674
(dp7675
S','
I1
ss(S','
g619
g13
g405
tp7676
(dp7677
S','
I1
ss(g3005
S'I'
g1140
g734
tp7678
(dp7679
g29
I1
ss(S','
g2565
S'I'
g2568
tp7680
(dp7681
g390
I1
ss(g1880
g1151
g215
g608
tp7682
(dp7683
g1379
I1
ss(g264
g1712
g93
g66
tp7684
(dp7685
g1400
I1
ss(S'.'
g77
g536
g521
tp7686
(dp7687
g441
I1
ss(g556
g223
g303
g863
tp7688
(dp7689
g40
I1
ss(g1106
g511
g99
S','
tp7690
(dp7691
g2042
I1
ss(g1153
S'.'
g164
g455
tp7692
(dp7693
g1457
I1
ss(S','
g633
g263
g213
tp7694
(dp7695
g221
I1
ss(g138
g1746
g1834
g1124
tp7696
(dp7697
g1705
I1
ss(g507
g424
S','
S'I'
tp7698
(dp7699
g1138
I1
ss(g918
g2176
g300
g348
tp7700
(dp7701
S'.'
I1
ss(g1470
g339
S'.'
g150
tp7702
(dp7703
g1634
I1
ss(g902
g82
g218
g96
tp7704
(dp7705
g35
I1
ss(g236
g707
g250
S','
tp7706
(dp7707
g641
I1
ss(g2389
S'I'
g2392
g3259
tp7708
(dp7709
g105
I1
ss(g572
g273
g113
g1652
tp7710
(dp7711
g2058
I1
ss(g1572
g217
S','
g2458
tp7712
(dp7713
g4907
I1
ss(g1743
g1152
g495
g858
tp7714
(dp7715
S'I'
I1
ss(g1506
g331
S','
g635
tp7716
(dp7717
g783
I1
ss(g1154
g354
g871
g1311
tp7718
(dp7719
S';'
I1
ss(g266
g1376
g1281
g576
tp7720
(dp7721
g380
I1
ss(S'.'
g2875
g1175
g1710
tp7722
(dp7723
g291
I1
ss(g921
g790
g403
S','
tp7724
(dp7725
g2325
I1
ss(g2701
g1755
g30
S','
tp7726
(dp7727
g2436
I1
ss(g346
g1549
g1146
g577
tp7728
(dp7729
g428
I1
ss(g861
g50
g670
g159
tp7730
(dp7731
g1201
I1
ss(g640
g1550
g985
S','
tp7732
(dp7733
g407
I1
ss(g1137
g392
g268
g1614
tp7734
(dp7735
g397
I1
ss(g1300
g284
g1473
g2854
tp7736
(dp7737
S','
I1
ss(g943
g575
g330
g359
tp7738
(dp7739
g1526
I1
ss(g1403
g3080
g386
g298
tp7740
(dp7741
g698
I1
ss(g1028
g2516
g2751
g1308
tp7742
(dp7743
S','
I1
ss(g313
S';'
g1424
g2710
tp7744
(dp7745
g5093
I1
ss(S'I'
g1138
g57
S'.'
tp7746
(dp7747
S'\x00'
I1
ss(g189
g234
g15
g283
tp7748
(dp7749
g379
I1
ss(g1811
g975
S','
g621
tp7750
(dp7751
g2921
I1
ss(g1541
g1302
g165
g602
tp7752
(dp7753
g16
I1
ss(g104
g912
g222
g804
tp7754
(dp7755
S'I'
I1
ss(g356
g211
g1241
S','
tp7756
(dp7757
g2151
I1
ss(g209
S','
g306
g520
tp7758
(dp7759
S','
I1
ss(g1265
g149
S'.'
g3174
tp7760
(dp7761
g423
I1
ss(g79
g710
g676
g373
tp7762
(dp7763
g553
I1
ss(g276
S','
g2405
g2521
tp7764
(dp7765
g1121
I1
ss(S'I'
g232
g346
g1549
tp7766
(dp7767
g1146
I1
ss(g100
g1291
g2731
S';'
tp7768
(dp7769
g240
I1
ss(g492
g244
g704
g100
tp7770
(dp7771
g1291
I1
ss(g455
g1457
g353
S','
tp7772
(dp7773
g637
I1
ss(g86
g343
S','
g1820
tp7774
(dp7775
g137
I1
ss(S':'
g1340
g974
g72
tp7776
(dp7777
g1428
I1
ss(g187
g878
g981
g94
tp7778
(dp7779
g199
I1
ss(g2020
g299
g492
g244
tp7780
(dp7781
g704
I1
ss(g1784
g1288
g3288
g2118
tp7782
(dp7783
g433
I1
ss(g314
S','
g619
g13
tp7784
(dp7785
g405
I1
ss(g376
g971
g1486
g1280
tp7786
(dp7787
S','
I1
ss(S'I'
g2392
g3259
g105
tp7788
(dp7789
S','
I1
ss(S','
g1820
g137
g936
tp7790
(dp7791
g355
I1
ss(g1681
g52
g51
g1460
tp7792
(dp7793
g368
I1
ss(g862
g48
g896
g482
tp7794
(dp7795
g1557
I1
ss(g90
g216
g501
g1768
tp7796
(dp7797
g194
I1
ss(S'.'
g323
g1623
g3032
tp7798
(dp7799
S'a'
I1
ss(g2731
S';'
g240
S'I'
tp7800
(dp7801
g1137
I1
ss(g1641
g1969
S'.'
g391
tp7802
(dp7803
S'I'
I1
ss(g594
g335
g401
g1163
tp7804
(dp7805
g2891
I1
ss(g1086
g18
g124
g1322
tp7806
(dp7807
g1716
I1
ss(g729
g2199
g815
g88
tp7808
(dp7809
g770
I1
ss(g1151
g215
g608
g1379
tp7810
(dp7811
g1299
I1
ss(g701
g510
g251
g597
tp7812
(dp7813
g556
I1
ss(g2199
g815
g88
g770
tp7814
(dp7815
g110
I1
ss(g2436
g2017
g11
S','
tp7816
(dp7817
g3382
I1
ss(g118
S','
S'I'
g58
tp7818
(dp7819
g28
I1
ss(g136
g414
g1403
g3080
tp7820
(dp7821
g386
I1
ss(g1626
g204
g144
g166
tp7822
(dp7823
S','
I1
ss(g295
g1668
g183
g1696
tp7824
(dp7825
g430
I1
ss(g270
g1674
g773
S','
tp7826
(dp7827
g2789
I1
ss(g1281
g576
g380
S','
tp7828
(dp7829
g2782
I1
ss(g325
g393
g1575
g173
tp7830
(dp7831
g594
I1
ss(g824
g1607
S','
g2389
tp7832
(dp7833
S'I'
I1
ss(g2943
g1610
g1249
g1312
tp7834
(dp7835
g332
I1
ss(g1129
g226
S','
S'I'
tp7836
(dp7837
g70
I1
ss(S'I'
g3516
S','
g3519
tp7838
(dp7839
g5026
I1
ss(g947
S','
g640
g1550
tp7840
(dp7841
g985
I1
ss(g877
g292
S'-'
g1048
tp7842
(dp7843
S'.'
I1
ss(g2221
g3972
g2177
S','
tp7844
(dp7845
g2095
I1
ss(g1305
g1033
g1771
g320
tp7846
(dp7847
g1721
I1
ss(g855
g1940
g1219
g184
tp7848
(dp7849
g286
I1
ss(g341
g1020
g1145
g63
tp7850
(dp7851
g84
I1
ss(g345
g1706
g1355
S'I'
tp7852
(dp7853
g87
I1
ss(g1634
g658
S'I'
g89
tp7854
(dp7855
g1178
I1
ss(S','
g2088
g440
S','
tp7856
(dp7857
g275
I1
ss(S','
g2005
g1282
g179
tp7858
(dp7859
g1330
I1
ss(g273
g113
g1652
g2058
tp7860
(dp7861
g155
I1
ss(g140
g37
S','
g2565
tp7862
(dp7863
S'I'
I1
ss(g1674
g773
S','
g2789
tp7864
(dp7865
g435
I1
ss(g390
g1025
g363
S','
tp7866
(dp7867
S'I'
I1
ss(g172
g1076
g121
g1617
tp7868
(dp7869
g1925
I1
ss(g96
g35
g915
g1149
tp7870
(dp7871
g181
I1
ss(g860
g1447
g1713
g408
tp7872
(dp7873
g1665
I1
ss(S','
g629
g1592
g12
tp7874
(dp7875
g71
I1
ss(g783
g3588
g212
g1743
tp7876
(dp7877
g1152
I1
ss(g3259
g105
S','
g312
tp7878
(dp7879
g409
I1
ss(g3032
S'a'
g202
g412
tp7880
(dp7881
g759
I1
ss(g1480
S','
g2216
g237
tp7882
(dp7883
g334
I1
ss(g3121
g449
g304
g539
tp7884
(dp7885
g308
I1
ss(g320
g1721
g97
S','
tp7886
(dp7887
g2868
I1
ss(g2501
g960
S'-'
g24
tp7888
(dp7889
S','
I1
ss(g659
g375
g789
g762
tp7890
(dp7891
g410
I1
ss(S','
g352
g1237
g59
tp7892
(dp7893
g301
I1
ss(g1193
g238
g419
g1053
tp7894
(dp7895
g649
I1
ss(g1438
g1307
S'.'
g214
tp7896
(dp7897
g824
I1
ss(g3080
g386
g298
g698
tp7898
(dp7899
g1684
I1
ss(g304
g539
g308
S'.'
tp7900
(dp7901
S'\x00'
I1
ss(g289
g271
g1082
g1278
tp7902
(dp7903
g167
I1
ss(g1567
S'-'
g345
g1706
tp7904
(dp7905
g1355
I1
ss(g228
g1541
g1302
g165
tp7906
(dp7907
g602
I1
ss(g399
S','
g2701
g1755
tp7908
(dp7909
g30
I1
ss(g296
g197
g101
g1073
tp7910
(dp7911
g90
I1
ss(g1422
S'I'
g297
g279
tp7912
(dp7913
g1009
I1
ss(g652
S'?'
S'I'
g78
tp7914
(dp7915
g233
I1
ss(g625
g2000
g843
g859
tp7916
(dp7917
g319
I1
ss(g622
g2437
g347
g83
tp7918
(dp7919
g1346
I1
ss(g1297
S','
g1947
g264
tp7920
(dp7921
g1712
I1
ss(g946
g415
g994
g1043
tp7922
(dp7923
g192
I1
ss(g231
g1206
g3794
S','
tp7924
(dp7925
g1785
I1
ss(g74
g886
g1305
g1033
tp7926
(dp7927
g1771
I1
ss(S','
g306
g520
S','
tp7928
(dp7929
g629
I1
sg2431
I1
ss(g317
g918
g2176
g300
tp7930
(dp7931
g348
I1
ss(g145
g1465
g1148
S','
tp7932
(dp7933
S'I'
I1
ss(g155
S';'
g2025
g1285
tp7934
(dp7935
g38
I1
ss(g3133
g138
g1746
g1834
tp7936
(dp7937
g1124
I1
ss(g251
g597
g556
g223
tp7938
(dp7939
g303
I1
ss(g815
g88
g770
g110
tp7940
(dp7941
S'.'
I1
ss(g520
S','
g629
g1592
tp7942
(dp7943
g12
I1
ss(g179
g1330
g1125
g2590
tp7944
(dp7945
g1454
I1
ss(g127
g939
g361
g34
tp7946
(dp7947
S'I'
I1
ss(g881
S'.'
g77
g536
tp7948
(dp7949
g521
I1
ss(g338
g342
g67
g1740
tp7950
(dp7951
g276
I1
ss(g72
g1428
g31
g267
tp7952
(dp7953
g1193
I1
ss(S','
S'I'
g1982
g1751
tp7954
(dp7955
g46
I1
ss(g226
S','
S'I'
g70
tp7956
(dp7957
g310
I1
ss(S'.'
g42
g396
g1337
tp7958
(dp7959
S','
I1
ss(g257
g1168
g840
g2634
tp7960
(dp7961
g115
I1
ss(g18
g124
g1322
g1716
tp7962
(dp7963
g3876
I1
ss(g252
S','
g620
g406
tp7964
(dp7965
g400
I1
ss(g2204
g225
g524
g1159
tp7966
(dp7967
g266
I1
ss(g306
g520
S','
g629
tp7968
(dp7969
g1592
I1
ss(g301
g662
g316
S';'
tp7970
(dp7971
g1422
I1
ss(g52
g51
g1460
g368
tp7972
(dp7973
S','
I1
ss(g279
g1009
g844
g195
tp7974
(dp7975
g989
I1
ss(g237
g334
g295
g1668
tp7976
(dp7977
g183
I1
ss(g842
g659
g375
g789
tp7978
(dp7979
g762
I1
ss(g2601
g1412
g143
g47
tp7980
(dp7981
S','
I1
ss(g950
g2908
g2601
g1412
tp7982
(dp7983
g143
I1
ss(g1578
g2262
S','
g1784
tp7984
(dp7985
S'a'
I1
sg1288
I1
ss(g2017
g11
S','
g3382
tp7986
(dp7987
g1912
I1
ss(g874
g224
g1438
g1307
tp7988
(dp7989
S'.'
I1
ss(g1557
g1505
g1040
g246
tp7990
(dp7991
g1730
I1
ss(g2151
g1284
g1216
g1325
tp7992
(dp7993
g265
I1
ss(S','
g139
S','
g85
tp7994
(dp7995
g329
I1
ss(g364
g821
g496
g1185
tp7996
(dp7997
g231
I1
ss(g420
g160
g260
g178
tp7998
(dp7999
g847
I1
ss(g899
g372
S'I'
g328
tp8000
(dp8001
g322
I1
ss(g417
g1567
S'-'
g345
tp8002
(dp8003
g1706
I1
ss(g1711
g451
g362
S'.'
tp8004
(dp8005
g323
I1
ss(S','
S'I'
g1138
g57
tp8006
(dp8007
S'.'
I1
ss(g292
S'-'
g1048
S'.'
tp8008
(dp8009
S'\x00'
I1
ss(S'I'
g70
g310
g302
tp8010
(dp8011
g321
I1
ss(g1306
S','
g622
g2437
tp8012
(dp8013
g347
I1
ss(g106
g1690
g2479
g384
tp8014
(dp8015
S','
I1
ss(g329
g282
S','
g191
tp8016
(dp8017
g418
I1
ss(g1644
g91
g1058
g73
tp8018
(dp8019
g205
I1
ss(g435
g1544
g2347
g452
tp8020
(dp8021
g2490
I1
ss(g19
S','
g2964
S'I'
tp8022
(dp8023
g1139
I1
ss(S'.'
g2990
g153
g855
tp8024
(dp8025
g1940
I1
ss(g1220
g41
g1086
g18
tp8026
(dp8027
g124
I1
ss(g389
S','
g2639
S','
tp8028
(dp8029
g634
I1
ss(g119
S':'
g278
S','
tp8030
(dp8031
g371
I1
ss(g327
g277
g126
S','
tp8032
(dp8033
g631
I1
ss(g649
g259
g1391
S'a'
tp8034
(dp8035
g44
I1
ss(g293
g1109
g187
g878
tp8036
(dp8037
g981
I1
ss(g2055
g158
g1601
g142
tp8038
(dp8039
g469
I1
ss(g3174
g423
S'a'
g325
tp8040
(dp8041
g393
I1
ss(g648
g193
S'.'
g899
tp8042
(dp8043
g372
I1
ss(g936
g355
g76
g123
tp8044
(dp8045
g366
I1
ss(g2272
g3618
g1004
g459
tp8046
(dp8047
g1452
I1
ss(S','
g3433
g3470
g309
tp8048
(dp8049
g460
I1
ss(g168
S','
g628
g1450
tp8050
(dp8051
g175
I1
ss(g782
g2690
g956
g868
tp8052
(dp8053
g831
I1
ss(g1351
g512
g1572
g217
tp8054
(dp8055
S','
I1
ss(g1150
S';'
g402
g782
tp8056
(dp8057
g2690
I1
ss(g50
g670
g159
g1201
tp8058
(dp8059
g1276
I1
ss(g32
S','
g633
g263
tp8060
(dp8061
g213
I1
ss(S'.'
g254
g296
g197
tp8062
(dp8063
g101
I1
ss(g1408
g2254
S','
g3414
tp8064
(dp8065
g385
I1
ss(g2296
g1449
g439
g846
tp8066
(dp8067
g337
I1
ss(g333
g1655
g1973
g245
tp8068
(dp8069
g168
I1
ss(g1690
g2479
g384
S','
tp8070
(dp8071
g350
I1
ss(g3285
g2861
g157
g533
tp8072
(dp8073
g1448
I1
ss(S','
g3413
g95
g1727
tp8074
(dp8075
g1147
I1
ss(g84
g182
g1717
S','
tp8076
(dp8077
g352
I1
ss(g1785
S','
g642
g111
tp8078
(dp8079
g1598
I1
ss(g816
g2221
g3972
g2177
tp8080
(dp8081
S','
I1
ss(g2479
g384
S','
g350
tp8082
(dp8083
g827
I1
ss(g1178
g109
g1578
g2262
tp8084
(dp8085
S','
I1
ss(g3876
g4880
g2416
g1309
tp8086
(dp8087
g1085
I1
ss(g366
g145
g1465
g1148
tp8088
(dp8089
S','
I1
ss(g1001
g1154
g354
g871
tp8090
(dp8091
g1311
I1
ss(g662
g316
S';'
g1422
tp8092
(dp8093
S'I'
I1
ss(g632
g940
g1718
g3140
tp8094
(dp8095
g248
I1
ss(g636
g152
g688
g3495
tp8096
(dp8097
g172
I1
ss(g200
g1417
g2020
g299
tp8098
(dp8099
g492
I1
ss(g1116
g395
S','
g624
tp8100
(dp8101
g338
I1
ss(g1710
g291
g1660
g2055
tp8102
(dp8103
g158
I1
ss(S'I'
g2967
g39
g1644
tp8104
(dp8105
g91
I1
ss(g1017
g253
g1294
g128
tp8106
(dp8107
S','
I1
ss(g2967
g39
g1644
g91
tp8108
(dp8109
g1058
I1
ss(g3065
S','
g112
g53
tp8110
(dp8111
g116
I1
ss(g135
g1523
g146
g1265
tp8112
(dp8113
g149
I1
ss(g291
g1660
g2055
g158
tp8114
(dp8115
g1601
I1
ss(g17
g1532
g1123
g1231
tp8116
(dp8117
g736
I1
ss(g64
g542
g190
g905
tp8118
(dp8119
g170
I1
ss(g929
g429
g180
g1363
tp8120
(dp8121
g1313
I1
ss(g99
S','
g2042
g2204
tp8122
(dp8123
g225
I1
ss(g367
g715
g382
g921
tp8124
(dp8125
g790
I1
ss(g1909
g25
g1028
g2516
tp8126
(dp8127
g2751
I1
ss(g3807
g3121
g449
g304
tp8128
(dp8129
g539
I1
ss(g1460
g368
S','
S'I'
tp8130
(dp8131
g61
I1
ss(g434
g285
g219
g1649
tp8132
(dp8133
g3367
I1
ss(g1417
g2020
g299
g492
tp8134
(dp8135
g244
I1
ss(g2634
g115
g701
g510
tp8136
(dp8137
g251
I1
ss(S','
g407
g92
g1079
tp8138
(dp8139
g369
I1
ss(S','
g3605
S','
g627
tp8140
(dp8141
S'a'
I1
ss(g196
g1382
S';'
g1811
tp8142
(dp8143
g975
I1
ss(g126
S','
g631
g1709
tp8144
(dp8145
g257
I1
ss(g167
g1256
g131
g667
tp8146
(dp8147
g1306
I1
ss(g1103
g3133
g138
g1746
tp8148
(dp8149
g1834
I1
ss(g241
g377
g394
g1225
tp8150
(dp8151
S','
I1
ss(g1301
g2272
g3618
g1004
tp8152
(dp8153
g459
I1
ss(g773
S','
g2789
g435
tp8154
(dp8155
g1544
I1
ss(g280
g1319
g1880
g1151
tp8156
(dp8157
g215
I1
ss(g2325
g1286
g933
g1909
tp8158
(dp8159
g25
I1
ss(g21
g230
g513
g1451
tp8160
(dp8161
g56
I1
ss(S','
g643
g961
S','
tp8162
(dp8163
g2209
I1
ss(g4432
g1794
g210
g801
tp8164
(dp8165
g1298
I1
ss(S','
g371
S','
g3356
tp8166
(dp8167
g519
I1
ss(g704
g100
g1291
g2731
tp8168
(dp8169
S';'
I1
ss(S','
S'I'
g174
g154
tp8170
(dp8171
g924
I1
ss(g2569
g381
g489
g161
tp8172
(dp8173
g262
I1
ss(g1601
g142
g469
g313
tp8174
(dp8175
S';'
I1
ss(g1234
g1122
g1087
g982
tp8176
(dp8177
g484
I1
ss(g108
g1564
g742
g261
tp8178
(dp8179
g837
I1
ss(g1291
g2731
S';'
g240
tp8180
(dp8181
S'I'
I1
ss(g1168
g840
g2634
g115
tp8182
(dp8183
g701
I1
ss(g1313
g959
g1604
g241
tp8184
(dp8185
g377
I1
ss(g197
g101
g1073
g90
tp8186
(dp8187
g216
I1
ss(g939
g361
g34
S'I'
tp8188
(dp8189
g416
I1
ss(g331
S','
g635
g783
tp8190
(dp8191
g3588
I1
ss(S','
g119
S':'
g278
tp8192
(dp8193
S','
I1
ss(g804
S'I'
g341
g1020
tp8194
(dp8195
g1145
I1
ss(g449
g304
g539
g308
tp8196
(dp8197
S'.'
I1
ss(g1709
g257
g1168
g840
tp8198
(dp8199
g2634
I1
ss(g930
g2835
g432
g1209
tp8200
(dp8201
S'a'
I1
ss(g985
S','
g407
g92
tp8202
(dp8203
g1079
I1
ss(S'I'
g1140
g734
g29
tp8204
(dp8205
S'.'
I1
ss(g840
g2634
g115
g701
tp8206
(dp8207
S'a'
I1
sg510
I1
ss(g76
g123
g366
g145
tp8208
(dp8209
g1465
I1
ss(S','
g632
g940
g1718
tp8210
(dp8211
g3140
I1
ss(g1132
g1950
g10
g421
tp8212
(dp8213
g673
I1
ss(g1453
g3341
g69
g1316
tp8214
(dp8215
S';'
I1
ss(g424
S','
S'I'
g1138
tp8216
(dp8217
g57
I1
ss(g49
g693
g326
g228
tp8218
(dp8219
g1541
I1
ss(g847
g189
g234
g15
tp8220
(dp8221
g283
I1
ss(g249
g208
g340
g1215
tp8222
(dp8223
g2008
I1
ss(g219
g1649
g3367
S','
tp8224
(dp8225
g2178
I1
ss(g1391
S'a'
g44
g36
tp8226
(dp8227
g765
I1
ss(g1550
g985
S','
g407
tp8228
(dp8229
g92
I1
ss(g845
g955
g114
g351
tp8230
(dp8231
S','
I1
ss(S'I'
g235
g655
g3807
tp8232
(dp8233
g3121
I1
ss(g3128
g788
g274
g1681
tp8234
(dp8235
g52
I1
ss(g91
g1058
g73
g205
tp8236
(dp8237
S'.'
I1
ss(g2216
g237
g334
g295
tp8238
(dp8239
g1668
I1
ss(g4880
g2416
g1309
g1085
tp8240
(dp8241
g2127
I1
ss(g575
g330
g359
g1526
tp8242
(dp8243
g148
I1
ss(g211
g1241
S','
g2151
tp8244
(dp8245
g1284
I1
ss(g2005
g1282
g179
g1330
tp8246
(dp8247
g1125
I1
ss(g1160
g615
g877
g292
tp8248
(dp8249
S'-'
I1
ss(g89
g1178
g109
g1578
tp8250
(dp8251
g2262
I1
ss(g53
g116
g1483
g431
tp8252
(dp8253
S','
I1
ss(g2178
g558
g739
g317
tp8254
(dp8255
g918
I1
ss(g1346
g336
S';'
g1425
tp8256
(dp8257
g200
I1
ss(g1304
g980
g1268
g450
tp8258
(dp8259
g102
I1
ss(S','
S'I'
g235
g655
tp8260
(dp8261
g3807
I1
ss(g1216
g1325
g265
g950
tp8262
(dp8263
g2908
I1
ss(g335
g401
g1163
g2891
tp8264
(dp8265
g26
I1
ss(S','
g2964
S'I'
g1139
tp8266
(dp8267
g444
I1
ss(g159
g1201
g1276
g881
tp8268
(dp8269
S'.'
I1
ss(g451
g362
S'.'
g323
tp8270
(dp8271
g1623
I1
ss(g182
g1717
S','
g352
tp8272
(dp8273
g1237
I1
ss(S';'
g402
g782
g2690
tp8274
(dp8275
g956
I1
ss(g2820
S'a'
g427
g834
tp8276
(dp8277
g1301
I1
ss(g576
g380
S','
g2782
tp8278
(dp8279
g616
I1
ss(S','
g2455
g185
g777
tp8280
(dp8281
g2071
I1
ss(g3280
g3065
S','
g112
tp8282
(dp8283
g53
I1
ss(g23
g333
g1655
g1973
tp8284
(dp8285
g245
I1
ss(g1379
g1299
g1987
g458
tp8286
(dp8287
g661
I1
ss(g1833
g141
g242
g229
tp8288
(dp8289
g49
I1
ss(g924
g311
g383
g127
tp8290
(dp8291
g939
I1
ss(g30
S','
g2436
g2017
tp8292
(dp8293
g11
I1
ss(S'-'
g1048
S'.'
S'\x00'
tp8294
(dp8295
S'\x00'
I1
ss(g1950
g10
g421
g673
tp8296
(dp8297
g1453
I1
ss(g61
g1066
g472
S'I'
tp8298
(dp8299
g2967
I1
ss(g1343
g315
g367
g715
tp8300
(dp8301
g382
I1
ss(g1149
g181
g1129
g226
tp8302
(dp8303
S','
I1
ss(S'.'
g103
g1509
g842
tp8304
(dp8305
g659
I1
ss(g1310
g1160
g615
g877
tp8306
(dp8307
g292
I1
ss(S','
g2216
g237
g334
tp8308
(dp8309
g295
I1
ss(g2458
g4907
g2279
g474
tp8310
(dp8311
g129
I1
ss(g1687
g376
g971
g1486
tp8312
(dp8313
g1280
I1
ss(g65
g1583
S','
g280
tp8314
(dp8315
g1319
I1
ss(g29
S'.'
g17
g1532
tp8316
(dp8317
g1123
I1
ss(g469
g313
S';'
g1424
tp8318
(dp8319
g2710
I1
ss(S','
g2405
g2521
g1121
tp8320
(dp8321
g1343
I1
ss(S','
g312
g409
g1687
tp8322
(dp8323
g376
I1
ss(g643
g961
S','
g2209
tp8324
(dp8325
g370
I1
ss(g624
g338
g342
g67
tp8326
(dp8327
g1740
I1
ss(g415
g994
g1043
g192
tp8328
(dp8329
S'.'
I1
ss(g267
g1193
g238
g419
tp8330
(dp8331
g1053
I1
ss(g2921
g1126
g1035
g22
tp8332
(dp8333
g1671
I1
ss(g227
g1496
g120
g399
tp8334
(dp8335
S','
I1
ss(g337
g946
g415
g994
tp8336
(dp8337
g1043
I1
ss(g496
g1185
g231
g1206
tp8338
(dp8339
g3794
I1
ss(g328
g322
g344
g902
tp8340
(dp8341
g82
I1
ss(g225
g524
g1159
g266
tp8342
(dp8343
g1376
I1
ss(g834
g1301
g2272
g3618
tp8344
(dp8345
g1004
I1
ss(S'a'
g357
g188
g1433
tp8346
(dp8347
g2501
I1
ss(g641
g743
g287
S'.'
tp8348
(dp8349
S'\x00'
I1
ss(g1201
g1276
g881
S'.'
tp8350
(dp8351
g77
I1
ss(g386
g298
g698
g1684
tp8352
(dp8353
g220
I1
ss(g349
g117
g74
g886
tp8354
(dp8355
g1305
I1
ss(g683
g518
g8
g722
tp8356
(dp8357
g43
I1
ss(g300
g348
S'.'
g365
tp8358
(dp8359
g1638
I1
ss(g762
g410
g729
g2199
tp8360
(dp8361
g815
I1
ss(g2209
g370
g966
g404
tp8362
(dp8363
g1620
I1
ss(g631
g1709
g257
g1168
tp8364
(dp8365
g840
I1
ss(g1009
g844
g195
g989
tp8366
(dp8367
g2943
I1
ss(g2025
g1285
g38
g591
tp8368
(dp8369
g151
I1
ss(g87
g374
g774
g196
tp8370
(dp8371
g1382
I1
ss(S','
g2178
g558
g739
tp8372
(dp8373
g317
I1
ss(g673
g1453
g3341
g69
tp8374
(dp8375
g1316
I1
ss(g1730
g236
g707
g250
tp8376
(dp8377
S','
I1
ss(S','
g4053
S'a'
g33
tp8378
(dp8379
g1693
I1
ss(g472
S'I'
g2967
g39
tp8380
(dp8381
g1644
I1
ss(g1159
g266
g1376
g1281
tp8382
(dp8383
g576
I1
ss(g1755
g30
S','
g2436
tp8384
(dp8385
g2017
I1
ss(S'I'
g297
g279
g1009
tp8386
(dp8387
g844
I1
ss(S','
g2436
g2017
g11
tp8388
(dp8389
S','
I1
ss(g2875
g1175
g1710
g291
tp8390
(dp8391
g1660
I1
ss(S','
g3414
g385
g1106
tp8392
(dp8393
g511
I1
ss(g409
g1687
g376
g971
tp8394
(dp8395
g1486
I1
ss(g199
g411
g1188
g270
tp8396
(dp8397
g1674
I1
ss(g4053
S'a'
g33
g1693
tp8398
(dp8399
g79
I1
ss(g381
g489
g161
g262
tp8400
(dp8401
g1092
I1
ss(g1751
g46
g1234
g1122
tp8402
(dp8403
g1087
I1
ss(g163
g652
S'?'
S'I'
tp8404
(dp8405
g78
I1
ss(g203
g14
g943
g575
tp8406
(dp8407
g330
I1
ss(g181
g1129
g226
S','
tp8408
(dp8409
S'I'
I1
ss(S';'
g1422
S'I'
g297
tp8410
(dp8411
g279
I1
ss(g45
g243
g1512
g2026
tp8412
(dp8413
S','
I1
ss(g63
g84
g182
g1717
tp8414
(dp8415
S','
I1
ss(S':'
g278
S','
g371
tp8416
(dp8417
S','
I1
ss(g667
g1306
S','
g622
tp8418
(dp8419
g2437
I1
ss(g412
g759
g1300
g284
tp8420
(dp8421
g1473
I1
ss(g48
g896
g482
g1557
tp8422
(dp8423
g1505
I1
ss(g591
g151
g1354
g54
tp8424
(dp8425
S','
I1
ss(g620
g406
g400
g27
tp8426
(dp8427
g572
I1
ss(g619
g13
g405
S','
tp8428
(dp8429
g434
I1
ss(g638
g1631
g1487
g133
tp8430
(dp8431
g1230
I1
ss(S','
g2336
g1287
g307
tp8432
(dp8433
g122
I1
ss(g1376
g1281
g576
g380
tp8434
(dp8435
S','
I1
ss(g986
S','
g623
g862
tp8436
(dp8437
g48
I1
ss(g510
g251
g597
g556
tp8438
(dp8439
g223
I1
ss(g3972
g2177
S','
g2095
tp8440
(dp8441
g201
I1
ss(g1053
g649
g259
g1391
tp8442
(dp8443
S'a'
I1
ss(g238
g419
g1053
g649
tp8444
(dp8445
g259
I1
ss(g1483
g431
S','
g3005
tp8446
(dp8447
S'I'
I1
ss(g1325
g265
g950
g2908
tp8448
(dp8449
g2601
I1
ss(g188
g1433
g2501
g960
tp8450
(dp8451
S'-'
I1
ss(g444
g1506
g331
S','
tp8452
(dp8453
g635
I1
ss(g2868
g1277
g603
g68
tp8454
(dp8455
S','
I1
ss(g2118
g433
g1034
g186
tp8456
(dp8457
S','
I1
ss(g1225
S','
g2734
g1279
tp8458
(dp8459
S'I'
I1
ss(g539
g308
S'.'
S'\x00'
tp8460
(dp8461
S'\x00'
I1
ss(g1363
g1313
g959
g1604
tp8462
(dp8463
g241
I1
ss(g981
g94
g199
g411
tp8464
(dp8465
g1188
I1
ss(S'-'
g345
g1706
g1355
tp8466
(dp8467
S'I'
I1
ss(g2392
g3259
g105
S','
tp8468
(dp8469
g312
I1
ss(g790
g403
S','
g2325
tp8470
(dp8471
g1286
I1
ss(g959
g1604
g241
g377
tp8472
(dp8473
g394
I1
ss(g960
S'-'
g24
S','
tp8474
(dp8475
g252
I1
ss(g2042
g2204
g225
g524
tp8476
(dp8477
g1159
I1
ss(g635
g783
g3588
g212
tp8478
(dp8479
g1743
I1
ss(S'.'
g17
g1532
g1123
tp8480
(dp8481
g1231
I1
ss(g1544
g2347
g452
g2490
tp8482
(dp8483
g1310
I1
ss(g39
g1644
g91
g1058
tp8484
(dp8485
g73
I1
ss(g77
g536
g521
g441
tp8486
(dp8487
g318
I1
ss(g262
g1092
g1303
g398
tp8488
(dp8489
g735
I1
ss(g1268
g450
g102
g1132
tp8490
(dp8491
g1950
I1
ss(g1409
S','
g206
g314
tp8492
(dp8493
S','
I1
ss(g655
g3807
g3121
g449
tp8494
(dp8495
g304
I1
ss(g194
g163
g652
S'?'
tp8496
(dp8497
S'I'
I1
ss(g128
S','
g2088
g440
tp8498
(dp8499
S','
I1
ss(g1109
g187
g878
g981
tp8500
(dp8501
g94
I1
ss(g1987
g458
g661
g272
tp8502
(dp8503
g1470
I1
ss(g463
g1153
S'.'
g164
tp8504
(dp8505
g455
I1
ss(g639
g1014
g23
g333
tp8506
(dp8507
g1655
I1
ss(g1433
g2501
g960
S'-'
tp8508
(dp8509
g24
I1
ss(g3367
S','
g2178
g558
tp8510
(dp8511
g739
I1
ss(g362
S'.'
g323
g1623
tp8512
(dp8513
g3032
I1
ss(g14
g943
g575
g330
tp8514
(dp8515
g359
I1
ss(g1575
g173
g594
g335
tp8516
(dp8517
g401
I1
ss(g40
g1244
g255
g746
tp8518
(dp8519
g227
I1
ss(g133
g1230
g171
S'.'
tp8520
(dp8521
S'\x00'
I1
ss(g340
g1215
g2008
g2926
tp8522
(dp8523
g1297
I1
ss(g10
g421
g673
g1453
tp8524
(dp8525
g3341
I1
ss(g2751
g1308
S','
g2296
tp8526
(dp8527
g1449
I1
ss(g392
g268
g1614
g397
tp8528
(dp8529
S'.'
I1
ss(g297
g279
g1009
g844
tp8530
(dp8531
g195
I1
ss(S';'
g1811
g975
S','
tp8532
(dp8533
g621
I1
ss(g1283
g388
g1001
g1154
tp8534
(dp8535
g354
I1
ss(g1454
g481
g1351
g512
tp8536
(dp8537
g1572
I1
ss(g303
g863
g40
g1244
tp8538
(dp8539
g255
I1
ss(g217
S','
g2458
g4907
tp8540
(dp8541
g2279
I1
ss(g588
g293
g1109
g187
tp8542
(dp8543
g878
I1
ss(g369
g889
g3783
g288
tp8544
(dp8545
S','
I1
ss(g1425
g200
g1417
g2020
tp8546
(dp8547
g299
I1
ss(g1004
g459
g1452
g1214
tp8548
(dp8549
g169
I1
ss(g73
g205
S'.'
g3149
tp8550
(dp8551
g132
I1
ss(g1330
g1125
g2590
g1454
tp8552
(dp8553
g481
I1
ss(g2262
S','
g1784
g1288
tp8554
(dp8555
g3288
I1
ss(g481
g1351
g512
g1572
tp8556
(dp8557
g217
I1
ss(g282
S','
g191
g418
tp8558
(dp8559
g426
I1
ss(g299
g492
g244
g704
tp8560
(dp8561
g100
I1
ss(g1713
g408
g1665
g147
tp8562
(dp8563
S'.'
I1
ss(g863
g40
g1244
g255
tp8564
(dp8565
g746
I1
ss(g2710
g5093
g2820
S'a'
tp8566
(dp8567
g427
I1
ss(g162
g20
g281
g1358
tp8568
(dp8569
g9
I1
ss(g47
S','
g626
g1735
tp8570
(dp8571
g1611
I1
ss(g310
g302
g321
S'.'
tp8572
(dp8573
g254
I1
ss(g1034
g186
S','
g19
tp8574
(dp8575
S','
I1
ss(g2455
g185
g777
g2071
tp8576
(dp8577
g2251
I1
ss(g260
g178
g847
g189
tp8578
(dp8579
g234
I1
ss(g105
S','
g312
g409
tp8580
(dp8581
g1687
I1
ss(g144
g166
S','
g1833
tp8582
(dp8583
g141
I1
ss(S','
g19
S','
g2964
tp8584
(dp8585
S'I'
I1
ss(g22
g1671
S','
g630
tp8586
(dp8587
g737
I1
ssatRp8588
(dp8589
S'order'
p8590
I4
sb.