ccopy_reg
_reconstructor
p1
(cmarkov
MarkovCorpus
p2
c__builtin__
list
p3
(lp4
(dp5
(t(dp6
S'help'
p7
I1
sS'show'
p8
I1
sS'Muses'
p9
I1
sS'over'
p10
I1
sS'soon'
p11
I1
sS'judge'
p12
I1
sS'go'
p13
I1
sS'yet'
p14
I1
sS' '
I2
sS'praises'
p15
I1
sS','
I17
sS'to'
p16
I4
sS'enthusiasm'
p17
I1
sS'he'
p18
I2
sS'then'
p19
I1
sS'his'
p20
I1
sS'invoke'
p21
I1
sS'Socrates'
p22
I3
sS'not'
p23
I3
sS'him'
p24
I1
sS'like'
p25
I1
sS'chamber'
p26
I1
sS'talked'
p27
I1
sS'says'
p28
I1
sS'Timaeus'
p29
I1
sS'are'
p30
I1
sS'our'
p31
I1
sS'for'
p32
I1
sS'may'
p33
I1
sS';'
I2
sS'Apollo'
p34
I1
sS'forth'
p35
I1
sS'told'
p36
I1
sS'satisfy'
p37
I1
sS'be'
p38
I1
sS'we'
p39
I4
sS'And'
p40
I1
sS'never'
p41
I1
sS'virtues'
p42
I1
sS'let'
p43
I1
sS'First'
p44
I1
sS'trophy'
p45
I1
sS'on'
p46
I1
sS'of'
p47
I2
sS'citizens'
p48
I1
sS'or'
p49
I2
sS'raised'
p50
I1
sS'faint'
p51
I1
sS'complying'
p52
I1
sS'addressed'
p53
I1
sS'Critias'
p54
I3
sS'your'
p55
I2
sS'ancient'
p56
I2
sS'guest'
p57
I1
sS'would'
p58
I1
sS'there'
p59
I1
sS'But'
p60
I1
sS'.'
I5
sS'whom'
p61
I1
sS'attack'
p62
I1
sS'therefore'
p63
I1
sS'way'
p64
I1
sS'too'
p65
I1
sS'that'
p66
I3
sS'it'
p67
I1
sS'excuse'
p68
I1
sS'hear'
p69
I1
sS'with'
p70
I2
sS'must'
p71
I2
sS'sound'
p72
I1
sS'myself'
p73
I1
sS'whether'
p74
I1
sS'wish'
p75
I1
sS'us'
p76
I3
sS'will'
p77
I2
sS'matter'
p78
I1
sS'and'
p79
I7
sS'heart'
p80
I1
sS'is'
p81
I1
sS'argument'
p82
I1
sS'an'
p83
I1
sS'as'
p84
I2
sS'warning'
p85
I1
sS'at'
p86
I1
sS'have'
p87
I1
sS'in'
p88
I1
sS'requirements'
p89
I1
sS'no'
p90
I1
sS'rather'
p91
I1
sS'-'
I1
sS'thither'
p92
I1
sS'also'
p93
I1
sS'take'
p94
I1
sS'which'
p95
I2
sS'wanting'
p96
I1
sS'you'
p97
I4
sS'staying'
p98
I1
sS'repeat'
p99
I1
sS'I'
I2
sS'yesterday'
p100
I1
sS'arrived'
p101
I1
sS'The'
p102
I1
sS'tradition'
p103
I1
sS'man'
p104
I1
sS'a'
I2
sS'remember'
p105
I1
sS'request'
p106
I1
sS'As'
p107
I1
sS'so'
p108
I1
sS'the'
p109
I6
ssa(dp110
(g109
tp111
(dp112
g15
I1
sg57
I1
sg9
I1
sg82
I1
sg42
I1
sg78
I1
ss(g86
tp113
(dp114
S'the'
p115
I1
ss(g34
tp116
(dp117
S'and'
p118
I1
ss(S'I'
tp119
(dp120
g75
I1
sg71
I1
ss(g77
tp121
(dp122
g23
I1
sg37
I1
ss(g16
tp123
(dp124
g12
I1
sg73
I1
sS'Socrates'
p125
I1
sg24
I1
ss(g107
tp126
(dp127
g11
I1
ss(g82
tp128
(dp129
g25
I1
ss(g13
tp130
(dp131
S'and'
p132
I1
ss(g63
tp133
(dp134
S'you'
p135
I1
ss(g12
tp136
(dp137
g74
I1
ss(g74
tp138
(dp139
g67
I1
ss(g71
tp140
(dp141
g13
I1
sg93
I1
ss(g8
tp142
(dp143
g35
I1
ss(g59
tp144
(dp145
g81
I1
ss(g92
tp146
(dp147
S','
I1
ss(g72
tp148
(dp149
S'the'
p150
I1
ss(g87
tp151
(dp152
g53
I1
ss(S' '
tp153
(dp154
g40
I1
sg102
I1
ss(g35
tp155
(dp156
S'the'
p157
I1
ss(g9
tp158
(dp159
S','
I1
ss(g57
tp160
(dp161
S'-'
I1
ss(g78
tp162
(dp163
g10
I1
ss(g90
tp164
(dp165
g68
I1
ss(g42
tp166
(dp167
g47
I1
ss(g102
tp168
(dp169
g85
I1
ss(g64
tp170
(dp171
g92
I1
ss(g55
tp172
(dp173
g56
I1
sg106
I1
ss(g91
tp174
(dp175
g46
I1
ss(g20
tp176
(dp177
g89
I1
ss(g75
tp178
(dp179
S','
I1
ss(g66
tp180
(dp181
S'you'
p182
I1
sg51
I1
sS'he'
p183
I1
ss(g60
tp184
(dp185
g105
I1
ss(g96
tp186
(dp187
g88
I1
ss(g88
tp188
(dp189
g17
I1
ss(g33
tp190
(dp191
g7
I1
ss(g25
tp192
(dp193
S'a'
I1
ss(g29
tp194
(dp195
g28
I1
ss(g58
tp196
(dp197
g99
I1
ss(g93
tp198
(dp199
g94
I1
ss(g67
tp200
(dp201
S'will'
p202
I1
ss(g108
tp203
(dp204
S'that'
p205
I1
ss(g83
tp206
(dp207
S'ancient'
p208
I1
ss(S'\x00'
tp209
(dp210
S'\x00'
I8
ss(g98
tp211
(dp212
S','
I1
ss(g24
tp213
(dp214
S','
I1
ss(g27
tp215
(dp216
S'the'
p217
I1
ss(g44
tp218
(dp219
g21
I1
ss(g68
tp220
(dp221
g32
I1
ss(g106
tp222
(dp223
S'.'
I1
ss(S'.'
tp224
(dp225
S'\x00'
I2
sg107
I1
sg60
I1
sg44
I1
ss(g97
tp226
(dp227
g72
I1
sg58
I1
sg87
I1
sS'must'
p228
I1
ss(g45
tp229
(dp230
S';'
I1
ss(g54
tp231
(dp232
S','
I3
ss(g73
tp233
(dp234
S'.'
I1
ss(g65
tp235
(dp236
S','
I1
ss(g10
tp237
(dp238
S','
I1
ss(g79
tp239
(dp240
g19
I1
sg8
I1
sg59
I1
sg62
I1
sg63
I1
sS'the'
p241
I1
sg18
I1
ss(g99
tp242
(dp243
S'to'
p244
I1
ss(g47
tp245
(dp246
g55
I1
sS'Critias'
p247
I1
ss(g28
tp248
(dp249
S','
I1
ss(g101
tp250
(dp251
g100
I1
ss(g30
tp252
(dp253
g98
I1
ss(g46
tp254
(dp255
g31
I1
ss(g15
tp256
(dp257
S'and'
p258
I1
ss(g36
tp259
(dp260
S'us'
p261
I1
ss(g105
tp262
(dp263
S','
I1
ss(g32
tp264
(dp265
S'not'
p266
I1
ss(g61
tp267
(dp268
S'we'
p269
I1
ss(g18
tp270
(dp271
g33
I1
sg36
I1
ss(g37
tp272
(dp273
g20
I1
ss(g80
tp274
(dp275
g41
I1
ss(g103
tp276
(dp277
S','
I1
ss(g21
tp278
(dp279
g34
I1
ss(g84
tp280
(dp281
S'we'
p282
I1
sg29
I1
ss(S','
tp283
(dp284
S'and'
p285
I2
sS'we'
p286
I1
sg95
I2
sg66
I2
sS'I'
I1
sg84
I1
sg77
I1
sg22
I2
sg108
I1
sg54
I2
sS'with'
p287
I1
sg49
I1
ss(g81
tp288
(dp289
g90
I1
ss(g26
tp290
(dp291
S'of'
p292
I1
ss(g62
tp293
(dp294
g109
I1
ss(g100
tp295
(dp296
g86
I1
ss(g23
tp297
(dp298
g38
I1
sS'.'
I1
sg52
I1
ss(g38
tp299
(dp300
g96
I1
ss(g70
tp301
(dp302
g61
I1
sS'your'
p303
I1
ss(g14
tp304
(dp305
g50
I1
ss(g48
tp306
(dp307
S'.'
I1
ss(S'-'
tp308
(dp309
g26
I1
ss(g85
tp310
(dp311
S','
I1
ss(g69
tp312
(dp313
S'you'
p314
I1
ss(g52
tp315
(dp316
g70
I1
ss(g89
tp317
(dp318
S'or'
p319
I1
ss(g40
tp320
(dp321
g39
I1
ss(g11
tp322
(dp323
S'as'
p324
I1
ss(g94
tp325
(dp326
S'to'
p327
I1
ss(g39
tp328
(dp329
g27
I1
sg101
I1
sg65
I1
sg30
I1
ss(g104
tp330
(dp331
S'.'
I1
ss(g7
tp332
(dp333
S'us'
p334
I1
ss(g51
tp335
(dp336
g80
I1
ss(g53
tp337
(dp338
g16
I1
ss(g76
tp339
(dp340
S'to'
p341
I1
sg69
I1
sg83
I1
ss(S';'
tp342
(dp343
g79
I2
ss(S'a'
tp344
(dp345
g45
I1
sg104
I1
ss(g49
tp346
(dp347
g91
I1
sS'not'
p348
I1
ss(g56
tp349
(dp350
g48
I1
sg103
I1
ss(g41
tp351
(dp352
g14
I1
ss(g31
tp353
(dp354
g64
I1
ss(g95
tp355
(dp356
S'I'
I1
sg97
I1
ss(g19
tp357
(dp358
g43
I1
ss(g50
tp359
(dp360
S'a'
I1
ss(g22
tp361
(dp362
S','
I3
ss(g17
tp363
(dp364
S';'
I1
ss(g43
tp365
(dp366
g76
I1
ssa(dp367
(S','
g95
tp368
(dp369
S'I'
I1
sg97
I1
ss(g69
g314
tp370
(dp371
g72
I1
ss(g334
g341
tp372
(dp373
g12
I1
ss(g118
g241
tp374
(dp375
g9
I1
ss(g97
g87
tp376
(dp377
g53
I1
ss(g61
g269
tp378
(dp379
g30
I1
ss(S','
g84
tp380
(dp381
g29
I1
ss(S'a'
g104
tp382
(dp383
S'.'
I1
ss(g21
g34
tp384
(dp385
g118
I1
ss(g183
g33
tp386
(dp387
g7
I1
ss(g65
S','
tp388
(dp389
S'Socrates'
p390
I1
ss(g182
g58
tp391
(dp392
g99
I1
ss(g86
g115
tp393
(dp394
g57
I1
ss(g72
g150
tp395
(dp396
g15
I1
ss(g60
g105
tp397
(dp398
S','
I1
ss(S'.'
S'\x00'
tp399
(dp400
S'\x00'
I6
ss(g108
g205
tp401
(dp402
g183
I1
ss(g103
S','
tp403
(dp404
S'which'
p405
I1
ss(g109
g82
tp406
(dp407
g25
I1
ss(g98
S','
tp408
(dp409
g49
I1
ss(g51
g80
tp410
(dp411
g41
I1
ss(g90
g68
tp412
(dp413
g32
I1
ss(g80
g41
tp414
(dp415
g14
I1
ss(g88
g17
tp416
(dp417
S';'
I1
ss(g266
g52
tp418
(dp419
g70
I1
ss(g7
g334
tp420
(dp421
g341
I1
ss(g22
S','
tp422
(dp423
g84
I1
sg108
I1
sg95
I1
ss(g104
S'.'
tp424
(dp425
g44
I1
ss(S','
g77
tp426
(dp427
g23
I1
ss(g115
g57
tp428
(dp429
S'-'
I1
ss(g202
g37
tp430
(dp431
g20
I1
ss(g85
S','
tp432
(dp433
g22
I1
ss(g157
g42
tp434
(dp435
g47
I1
ss(g79
g63
tp436
(dp437
g135
I1
ss(g46
g31
tp438
(dp439
g64
I1
ss(g105
S','
tp440
(dp441
g54
I1
ss(g258
g8
tp442
(dp443
g35
I1
ss(g62
g109
tp444
(dp445
g82
I1
ss(g50
S'a'
tp446
(dp447
g45
I1
ss(S'and'
p448
g59
tp449
(dp450
g81
I1
ss(g286
g27
tp451
(dp452
g217
I1
ss(g348
S'.'
tp453
(dp454
S'\x00'
I1
ss(g35
g157
tp455
(dp456
g42
I1
ss(g37
g20
tp457
(dp458
g89
I1
ss(g31
g64
tp459
(dp460
g92
I1
ss(g40
g39
tp461
(dp462
g65
I1
ss(g9
S','
tp463
(dp464
g285
I1
ss(g132
g62
tp465
(dp466
g109
I1
ss(g53
g16
tp467
(dp468
g24
I1
ss(S','
g287
tp469
(dp470
g61
I1
ss(S'.'
g107
tp471
(dp472
g11
I1
ss(g48
S'.'
tp473
(dp474
S'\x00'
I1
ss(g15
g258
tp475
(dp476
g8
I1
ss(g244
g125
tp477
(dp478
S','
I1
ss(g38
g96
tp479
(dp480
g88
I1
ss(g314
g72
tp481
(dp482
g150
I1
ss(g30
g98
tp483
(dp484
S','
I1
ss(g82
g25
tp485
(dp486
S'a'
I1
ss(g282
g101
tp487
(dp488
g100
I1
ss(g135
g228
tp489
(dp490
g13
I1
ss(g14
g50
tp491
(dp492
S'a'
I1
ss(g150
g15
tp493
(dp494
g258
I1
ss(S','
g286
tp495
(dp496
g27
I1
ss(g33
g7
tp497
(dp498
g334
I1
ss(S','
g108
tp499
(dp500
g205
I1
ss(g26
g292
tp501
(dp502
g247
I1
ss(g12
g74
tp503
(dp504
g67
I1
ss(g74
g67
tp505
(dp506
g202
I1
ss(g91
g46
tp507
(dp508
g31
I1
ss(S';'
g79
tp509
(dp510
g59
I1
sg63
I1
ss(g57
S'-'
tp511
(dp512
g26
I1
ss(g52
g70
tp513
(dp514
g303
I1
ss(g47
g55
tp515
(dp516
g56
I1
ss(g87
g53
tp517
(dp518
g16
I1
ss(S'-'
g26
tp519
(dp520
g292
I1
ss(g73
S'.'
tp521
(dp522
g60
I1
ss(g94
g327
tp523
(dp524
g73
I1
ss(g27
g217
tp525
(dp526
g78
I1
ss(g405
S'I'
tp527
(dp528
g75
I1
ss(g34
g118
tp529
(dp530
g241
I1
ss(g44
g21
tp531
(dp532
g34
I1
ss(g287
g61
tp533
(dp534
g269
I1
ss(S'that'
p535
g182
tp536
(dp537
g58
I1
ss(g39
g65
tp538
(dp539
S','
I1
ss(g95
g97
tp540
(dp541
g87
I1
ss(g67
g202
tp542
(dp543
g37
I1
ss(g28
S','
tp544
(dp545
g77
I1
ss(g341
g12
tp546
(dp547
g74
I1
ss(g8
g35
tp548
(dp549
g157
I1
ss(S'.'
g60
tp550
(dp551
g105
I1
ss(g13
g132
tp552
(dp553
g62
I1
ss(S','
g285
tp554
(dp555
g19
I1
sg18
I1
ss(S','
g54
tp556
(dp557
S','
I2
ss(S'I'
g75
tp558
(dp559
S','
I1
ss(g106
S'.'
tp560
(dp561
g107
I1
ss(g49
g91
tp562
(dp563
g46
I1
ss(g83
g208
tp564
(dp565
g103
I1
ss(g269
g30
tp566
(dp567
g98
I1
ss(g41
g14
tp568
(dp569
g50
I1
ss(g327
g73
tp570
(dp571
S'.'
I1
ss(g93
g94
tp572
(dp573
g327
I1
ss(g261
g83
tp574
(dp575
g208
I1
ss(S'and'
p576
g18
tp577
(dp578
g36
I1
ss(g77
g23
tp579
(dp580
g38
I1
ss(g102
g85
tp581
(dp582
S','
I1
ss(g96
g88
tp583
(dp584
g17
I1
ss(g101
g100
tp585
(dp586
g86
I1
ss(g59
g81
tp587
(dp588
g90
I1
ss(g63
g135
tp589
(dp590
g228
I1
ss(g70
g303
tp591
(dp592
g106
I1
ss(g56
g48
tp593
(dp594
S'.'
I1
ss(g303
g106
tp595
(dp596
S'.'
I1
ss(g208
g103
tp597
(dp598
S','
I1
ss(S' '
g40
tp599
(dp600
g39
I1
ss(g89
g319
tp601
(dp602
g348
I1
ss(g241
g9
tp603
(dp604
S','
I1
ss(g36
g261
tp605
(dp606
g83
I1
ss(g292
g247
tp607
(dp608
S','
I1
ss(S'I'
g71
tp609
(dp610
g93
I1
ss(g17
S';'
tp611
(dp612
g448
I1
ss(g32
g266
tp613
(dp614
g52
I1
ss(S','
S'I'
tp615
(dp616
g71
I1
ss(g16
g24
tp617
(dp618
S','
I1
ss(S'a'
g45
tp619
(dp620
S';'
I1
ss(g324
g282
tp621
(dp622
g101
I1
ss(g58
g99
tp623
(dp624
g244
I1
ss(S','
g66
tp625
(dp626
g182
I1
sg51
I1
ss(g228
g13
tp627
(dp628
g132
I1
ss(g319
g348
tp629
(dp630
S'.'
I1
ss(g55
g56
tp631
(dp632
g48
I1
ss(g42
g47
tp633
(dp634
g55
I1
ss(g20
g89
tp635
(dp636
g319
I1
ss(g19
g43
tp637
(dp638
g76
I1
ss(g285
g19
tp639
(dp640
g43
I1
ss(g75
S','
tp641
(dp642
S'Critias'
p643
I1
ss(g107
g11
tp644
(dp645
g324
I1
ss(g54
S','
tp646
(dp647
g287
I1
sg66
I2
ss(g78
g10
tp648
(dp649
S','
I1
ss(g18
g36
tp650
(dp651
g261
I1
ss(g24
S','
tp652
(dp653
S'I'
I1
ss(g23
g38
tp654
(dp655
g96
I1
ss(g66
g51
tp656
(dp657
g80
I1
ss(g99
g244
tp658
(dp659
g125
I1
ss(g92
S','
tp660
(dp661
g286
I1
ss(g29
g28
tp662
(dp663
S','
I1
ss(g217
g78
tp664
(dp665
g10
I1
ss(g81
g90
tp666
(dp667
g68
I1
ss(g64
g92
tp668
(dp669
S','
I1
ss(S','
g22
tp670
(dp671
S','
I2
ss(g205
g183
tp672
(dp673
g33
I1
ss(g100
g86
tp674
(dp675
g115
I1
ss(g45
S';'
tp676
(dp677
g79
I1
ss(S' '
g102
tp678
(dp679
g85
I1
ss(g10
S','
tp680
(dp681
g576
I1
ss(g68
g32
tp682
(dp683
g266
I1
ss(S'.'
g44
tp684
(dp685
g21
I1
ss(g71
g93
tp686
(dp687
g94
I1
ss(g11
g324
tp688
(dp689
g282
I1
ss(S','
g49
tp690
(dp691
g91
I1
ss(g25
S'a'
tp692
(dp693
g104
I1
ss(g76
g69
tp694
(dp695
g314
I1
ss(g84
g29
tp696
(dp697
g28
I1
ss(g43
g76
tp698
(dp699
g69
I1
ssa(dp700
(g535
g182
g58
tp701
(dp702
g99
I1
ss(g20
g89
g319
tp703
(dp704
g348
I1
ss(g73
S'.'
g60
tp705
(dp706
g105
I1
ss(g9
S','
g285
tp707
(dp708
g19
I1
ss(S','
g576
g18
tp709
(dp710
g36
I1
ss(g76
g69
g314
tp711
(dp712
g72
I1
ss(g266
g52
g70
tp713
(dp714
g303
I1
ss(g18
g36
g261
tp715
(dp716
g83
I1
ss(g33
g7
g334
tp717
(dp718
g341
I1
ss(g58
g99
g244
tp719
(dp720
g125
I1
ss(S','
g49
g91
tp721
(dp722
g46
I1
ss(g135
g228
g13
tp723
(dp724
g132
I1
ss(g285
g19
g43
tp725
(dp726
g76
I1
ss(g100
g86
g115
tp727
(dp728
g57
I1
ss(g269
g30
g98
tp729
(dp730
S','
I1
ss(g60
g105
S','
tp731
(dp732
g54
I1
ss(S'a'
g104
S'.'
tp733
(dp734
g44
I1
ss(S','
g84
g29
tp735
(dp736
g28
I1
ss(g81
g90
g68
tp737
(dp738
g32
I1
ss(g10
S','
g576
tp739
(dp740
g18
I1
ss(S','
g405
S'I'
tp741
(dp742
g75
I1
ss(g32
g266
g52
tp743
(dp744
g70
I1
ss(g95
g97
g87
tp745
(dp746
g53
I1
ss(g90
g68
g32
tp747
(dp748
g266
I1
ss(S'I'
g75
S','
tp749
(dp750
g643
I1
ss(S','
g95
g97
tp751
(dp752
g87
I1
ss(g341
g12
g74
tp753
(dp754
g67
I1
ss(g54
S','
g66
tp755
(dp756
g182
I1
sg51
I1
ss(S'a'
g45
S';'
tp757
(dp758
g79
I1
ss(g49
g91
g46
tp759
(dp760
g31
I1
ss(g72
g150
g15
tp761
(dp762
g258
I1
ss(g42
g47
g55
tp763
(dp764
g56
I1
ss(g292
g247
S','
tp765
(dp766
g287
I1
ss(g107
g11
g324
tp767
(dp768
g282
I1
ss(g61
g269
g30
tp769
(dp770
g98
I1
ss(g183
g33
g7
tp771
(dp772
g334
I1
ss(g99
g244
g125
tp773
(dp774
S','
I1
ss(g68
g32
g266
tp775
(dp776
g52
I1
ss(S','
S'I'
g71
tp777
(dp778
g93
I1
ss(S','
g54
S','
tp779
(dp780
g66
I2
ss(g88
g17
S';'
tp781
(dp782
g448
I1
ss(S'.'
g60
g105
tp783
(dp784
S','
I1
ss(g97
g87
g53
tp785
(dp786
g16
I1
ss(g36
g261
g83
tp787
(dp788
g208
I1
ss(S';'
g448
g59
tp789
(dp790
g81
I1
ss(S'I'
g71
g93
tp791
(dp792
g94
I1
ss(g241
g9
S','
tp793
(dp794
g285
I1
ss(g67
g202
g37
tp795
(dp796
g20
I1
ss(g70
g303
g106
tp797
(dp798
S'.'
I1
ss(g104
S'.'
g44
tp799
(dp800
g21
I1
ss(g282
g101
g100
tp801
(dp802
g86
I1
ss(g319
g348
S'.'
tp803
(dp804
S'\x00'
I1
ss(g14
g50
S'a'
tp805
(dp806
g45
I1
ss(g132
g62
g109
tp807
(dp808
g82
I1
ss(g29
g28
S','
tp809
(dp810
g77
I1
ss(S' '
g40
g39
tp811
(dp812
g65
I1
ss(g13
g132
g62
tp813
(dp814
g109
I1
ss(g31
g64
g92
tp815
(dp816
S','
I1
ss(g30
g98
S','
tp817
(dp818
g49
I1
ss(g106
S'.'
g107
tp819
(dp820
g11
I1
ss(g327
g73
S'.'
tp821
(dp822
g60
I1
ss(g62
g109
g82
tp823
(dp824
g25
I1
ss(g217
g78
g10
tp825
(dp826
S','
I1
ss(g12
g74
g67
tp827
(dp828
g202
I1
ss(g69
g314
g72
tp829
(dp830
g150
I1
ss(g102
g85
S','
tp831
(dp832
g22
I1
ss(S';'
g79
g63
tp833
(dp834
g135
I1
ss(g45
S';'
g79
tp835
(dp836
g63
I1
ss(g314
g72
g150
tp837
(dp838
g15
I1
ss(g22
S','
g95
tp839
(dp840
g97
I1
ss(S'-'
g26
g292
tp841
(dp842
g247
I1
ss(g55
g56
g48
tp843
(dp844
S'.'
I1
ss(g51
g80
g41
tp845
(dp846
g14
I1
ss(g86
g115
g57
tp847
(dp848
S'-'
I1
ss(g52
g70
g303
tp849
(dp850
g106
I1
ss(g82
g25
S'a'
tp851
(dp852
g104
I1
ss(g46
g31
g64
tp853
(dp854
g92
I1
ss(g63
g135
g228
tp855
(dp856
g13
I1
ss(g28
S','
g77
tp857
(dp858
g23
I1
ss(g94
g327
g73
tp859
(dp860
S'.'
I1
ss(S','
g108
g205
tp861
(dp862
g183
I1
ss(g334
g341
g12
tp863
(dp864
g74
I1
ss(g79
g63
g135
tp865
(dp866
g228
I1
ss(g48
S'.'
S'\x00'
tp867
(dp868
S'\x00'
I2
ss(g23
g38
g96
tp869
(dp870
g88
I1
ss(g157
g42
g47
tp871
(dp872
g55
I1
ss(g202
g37
g20
tp873
(dp874
g89
I1
ss(g205
g183
g33
tp875
(dp876
g7
I1
ss(g39
g65
S','
tp877
(dp878
g390
I1
ss(S','
g66
g51
tp879
(dp880
g80
I1
ss(g53
g16
g24
tp881
(dp882
S','
I1
ss(g17
S';'
g448
tp883
(dp884
g59
I1
ss(g38
g96
g88
tp885
(dp886
g17
I1
ss(g101
g100
g86
tp887
(dp888
g115
I1
ss(g65
S','
g390
tp889
(dp890
S','
I1
ss(g7
g334
g341
tp891
(dp892
g12
I1
ss(g64
g92
S','
tp893
(dp894
g286
I1
ss(g103
S','
g405
tp895
(dp896
S'I'
I1
ss(g11
g324
g282
tp897
(dp898
g101
I1
ss(g78
g10
S','
tp899
(dp900
g576
I1
ss(g80
g41
g14
tp901
(dp902
g50
I1
ss(g85
S','
g22
tp903
(dp904
S','
I1
ss(g348
S'.'
S'\x00'
tp905
(dp906
S'\x00'
I2
ss(g15
g258
g8
tp907
(dp908
g35
I1
ss(S'.'
g44
g21
tp909
(dp910
g34
I1
ss(g258
g8
g35
tp911
(dp912
g157
I1
ss(g576
g18
g36
tp913
(dp914
g261
I1
ss(g47
g55
g56
tp915
(dp916
g48
I1
ss(g40
g39
g65
tp917
(dp918
S','
I1
ss(g261
g83
g208
tp919
(dp920
g103
I1
ss(g43
g76
g69
tp921
(dp922
g314
I1
ss(g84
g29
g28
tp923
(dp924
S','
I1
ss(g74
g67
g202
tp925
(dp926
g37
I1
ss(g34
g118
g241
tp927
(dp928
g9
I1
ss(g25
S'a'
g104
tp929
(dp930
S'.'
I1
ss(g115
g57
S'-'
tp931
(dp932
g26
I1
ss(g92
S','
g286
tp933
(dp934
g27
I1
ss(g93
g94
g327
tp935
(dp936
g73
I1
ss(g35
g157
g42
tp937
(dp938
g47
I1
ss(g105
S','
g54
tp939
(dp940
S','
I1
ss(g208
g103
S','
tp941
(dp942
g405
I1
ss(g108
g205
g183
tp943
(dp944
g33
I1
ss(g66
g51
g80
tp945
(dp946
g41
I1
ss(g37
g20
g89
tp947
(dp948
g319
I1
ss(g16
g24
S','
tp949
(dp950
S'I'
I1
ss(S','
g286
g27
tp951
(dp952
g217
I1
ss(S','
g535
g182
tp953
(dp954
g58
I1
ss(g44
g21
g34
tp955
(dp956
g118
I1
ss(g390
S','
g84
tp957
(dp958
g29
I1
ss(g98
S','
g49
tp959
(dp960
g91
I1
ss(g244
g125
S','
tp961
(dp962
g108
I1
ss(g118
g241
g9
tp963
(dp964
S','
I1
ss(g96
g88
g17
tp965
(dp966
S';'
I1
ss(g150
g15
g258
tp967
(dp968
g8
I1
ss(g83
g208
g103
tp969
(dp970
S','
I1
ss(g109
g82
g25
tp971
(dp972
S'a'
I1
ss(g59
g81
g90
tp973
(dp974
g68
I1
ss(S' '
g102
g85
tp975
(dp976
S','
I1
ss(g8
g35
g157
tp977
(dp978
g42
I1
ss(g287
g61
g269
tp979
(dp980
g30
I1
ss(g405
S'I'
g75
tp981
(dp982
S','
I1
ss(g286
g27
g217
tp983
(dp984
g78
I1
ss(g50
S'a'
g45
tp985
(dp986
S';'
I1
ss(g27
g217
g78
tp987
(dp988
g10
I1
ss(g24
S','
S'I'
tp989
(dp990
g71
I1
ss(g182
g58
g99
tp991
(dp992
g244
I1
ss(g41
g14
g50
tp993
(dp994
S'a'
I1
ss(g324
g282
g101
tp995
(dp996
g100
I1
ss(g87
g53
g16
tp997
(dp998
g24
I1
ss(g21
g34
g118
tp999
(dp1000
g241
I1
ss(g75
S','
g643
tp1001
(dp1002
S','
I1
ss(g19
g43
g76
tp1003
(dp1004
g69
I1
ss(g26
g292
g247
tp1005
(dp1006
S','
I1
ss(g228
g13
g132
tp1007
(dp1008
g62
I1
ss(g448
g59
g81
tp1009
(dp1010
g90
I1
ss(S','
g285
g19
tp1011
(dp1012
g43
I1
ss(g56
g48
S'.'
tp1013
(dp1014
S'\x00'
I1
ss(g303
g106
S'.'
tp1015
(dp1016
g107
I1
ss(g91
g46
g31
tp1017
(dp1018
g64
I1
ss(g125
S','
g108
tp1019
(dp1020
g205
I1
ss(S','
g287
g61
tp1021
(dp1022
g269
I1
ss(g71
g93
g94
tp1023
(dp1024
g327
I1
ss(g57
S'-'
g26
tp1025
(dp1026
g292
I1
ss(g89
g319
g348
tp1027
(dp1028
S'.'
I1
ss(g77
g23
g38
tp1029
(dp1030
g96
I1
ss(S','
g22
S','
tp1031
(dp1032
g84
I1
sg95
I1
ss(g247
S','
g287
tp1033
(dp1034
g61
I1
ss(S','
g77
g23
tp1035
(dp1036
g38
I1
ss(S'.'
g107
g11
tp1037
(dp1038
g324
I1
ssa(dp1039
(S'-'
g26
g292
g247
tp1040
(dp1041
S','
I1
ss(g327
g73
S'.'
g60
tp1042
(dp1043
g105
I1
ss(S';'
g79
g63
g135
tp1044
(dp1045
g228
I1
ss(g217
g78
g10
S','
tp1046
(dp1047
g576
I1
ss(g85
S','
g22
S','
tp1048
(dp1049
g95
I1
ss(g19
g43
g76
g69
tp1050
(dp1051
g314
I1
ss(g100
g86
g115
g57
tp1052
(dp1053
S'-'
I1
ss(S','
g49
g91
g46
tp1054
(dp1055
g31
I1
ss(S'.'
g107
g11
g324
tp1056
(dp1057
g282
I1
ss(g115
g57
S'-'
g26
tp1058
(dp1059
g292
I1
ss(g292
g247
S','
g287
tp1060
(dp1061
g61
I1
ss(g16
g24
S','
S'I'
tp1062
(dp1063
g71
I1
ss(g78
g10
S','
g576
tp1064
(dp1065
g18
I1
ss(g643
S','
g535
g182
tp1066
(dp1067
g58
I1
ss(g26
g292
g247
S','
tp1068
(dp1069
g287
I1
ss(g28
S','
g77
g23
tp1070
(dp1071
g38
I1
ss(g405
S'I'
g75
S','
tp1072
(dp1073
g643
I1
ss(g76
g69
g314
g72
tp1074
(dp1075
g150
I1
ss(g105
S','
g54
S','
tp1076
(dp1077
g66
I1
ss(g7
g334
g341
g12
tp1078
(dp1079
g74
I1
ss(g82
g25
S'a'
g104
tp1080
(dp1081
S'.'
I1
ss(g72
g150
g15
g258
tp1082
(dp1083
g8
I1
ss(g50
S'a'
g45
S';'
tp1084
(dp1085
g79
I1
ss(S','
g287
g61
g269
tp1086
(dp1087
g30
I1
ss(g109
g82
g25
S'a'
tp1088
(dp1089
g104
I1
ss(g74
g67
g202
g37
tp1090
(dp1091
g20
I1
ss(g29
g28
S','
g77
tp1092
(dp1093
g23
I1
ss(g205
g183
g33
g7
tp1094
(dp1095
g334
I1
ss(g182
g58
g99
g244
tp1096
(dp1097
g125
I1
ss(g79
g63
g135
g228
tp1098
(dp1099
g13
I1
ss(g36
g261
g83
g208
tp1100
(dp1101
g103
I1
ss(g33
g7
g334
g341
tp1102
(dp1103
g12
I1
ss(S','
g54
S','
g66
tp1104
(dp1105
g182
I1
sg51
I1
ss(g183
g33
g7
g334
tp1106
(dp1107
g341
I1
ss(g38
g96
g88
g17
tp1108
(dp1109
S';'
I1
ss(g63
g135
g228
g13
tp1110
(dp1111
g132
I1
ss(g94
g327
g73
S'.'
tp1112
(dp1113
g60
I1
ss(S','
g390
S','
g84
tp1114
(dp1115
g29
I1
ss(S','
g286
g27
g217
tp1116
(dp1117
g78
I1
ss(g21
g34
g118
g241
tp1118
(dp1119
g9
I1
ss(g107
g11
g324
g282
tp1120
(dp1121
g101
I1
ss(S','
g66
g51
g80
tp1122
(dp1123
g41
I1
ss(g132
g62
g109
g82
tp1124
(dp1125
g25
I1
ss(g286
g27
g217
g78
tp1126
(dp1127
g10
I1
ss(g448
g59
g81
g90
tp1128
(dp1129
g68
I1
ss(g66
g51
g80
g41
tp1130
(dp1131
g14
I1
ss(g208
g103
S','
g405
tp1132
(dp1133
S'I'
I1
ss(g23
g38
g96
g88
tp1134
(dp1135
g17
I1
ss(g101
g100
g86
g115
tp1136
(dp1137
g57
I1
ss(g77
g23
g38
g96
tp1138
(dp1139
g88
I1
ss(g54
S','
g66
g51
tp1140
(dp1141
g80
I1
ss(g31
g64
g92
S','
tp1142
(dp1143
g286
I1
ss(g25
S'a'
g104
S'.'
tp1144
(dp1145
g44
I1
ss(g40
g39
g65
S','
tp1146
(dp1147
g390
I1
ss(g65
S','
g390
S','
tp1148
(dp1149
g84
I1
ss(S','
g108
g205
g183
tp1150
(dp1151
g33
I1
ss(S'I'
g71
g93
g94
tp1152
(dp1153
g327
I1
ss(g87
g53
g16
g24
tp1154
(dp1155
S','
I1
ss(S' '
g102
g85
S','
tp1156
(dp1157
g22
I1
ss(g247
S','
g287
g61
tp1158
(dp1159
g269
I1
ss(g51
g80
g41
g14
tp1160
(dp1161
g50
I1
ss(g314
g72
g150
g15
tp1162
(dp1163
g258
I1
ss(g88
g17
S';'
g448
tp1164
(dp1165
g59
I1
ss(g55
g56
g48
S'.'
tp1166
(dp1167
S'\x00'
I1
ss(g80
g41
g14
g50
tp1168
(dp1169
S'a'
I1
ss(g244
g125
S','
g108
tp1170
(dp1171
g205
I1
ss(g69
g314
g72
g150
tp1172
(dp1173
g15
I1
ss(g96
g88
g17
S';'
tp1174
(dp1175
g448
I1
ss(S','
g84
g29
g28
tp1176
(dp1177
S','
I1
ss(g20
g89
g319
g348
tp1178
(dp1179
S'.'
I1
ss(g118
g241
g9
S','
tp1180
(dp1181
g285
I1
ss(g49
g91
g46
g31
tp1182
(dp1183
g64
I1
ss(g13
g132
g62
g109
tp1184
(dp1185
g82
I1
ss(g535
g182
g58
g99
tp1186
(dp1187
g244
I1
ss(g135
g228
g13
g132
tp1188
(dp1189
g62
I1
ss(g47
g55
g56
g48
tp1190
(dp1191
S'.'
I1
ss(g57
S'-'
g26
g292
tp1192
(dp1193
g247
I1
ss(g576
g18
g36
g261
tp1194
(dp1195
g83
I1
ss(g84
g29
g28
S','
tp1196
(dp1197
g77
I1
ss(g303
g106
S'.'
g107
tp1198
(dp1199
g11
I1
ss(g95
g97
g87
g53
tp1200
(dp1201
g16
I1
ss(g269
g30
g98
S','
tp1202
(dp1203
g49
I1
ss(g11
g324
g282
g101
tp1204
(dp1205
g100
I1
ss(g67
g202
g37
g20
tp1206
(dp1207
g89
I1
ss(g324
g282
g101
g100
tp1208
(dp1209
g86
I1
ss(S','
g22
S','
g95
tp1210
(dp1211
g97
I1
ss(g261
g83
g208
g103
tp1212
(dp1213
S','
I1
ss(S','
g285
g19
g43
tp1214
(dp1215
g76
I1
ss(g41
g14
g50
S'a'
tp1216
(dp1217
g45
I1
ss(S','
g535
g182
g58
tp1218
(dp1219
g99
I1
ss(g32
g266
g52
g70
tp1220
(dp1221
g303
I1
ss(g64
g92
S','
g286
tp1222
(dp1223
g27
I1
ss(S','
g95
g97
g87
tp1224
(dp1225
g53
I1
ss(g73
S'.'
g60
g105
tp1226
(dp1227
S','
I1
ss(g8
g35
g157
g42
tp1228
(dp1229
g47
I1
ss(g106
S'.'
g107
g11
tp1230
(dp1231
g324
I1
ss(g241
g9
S','
g285
tp1232
(dp1233
g19
I1
ss(g91
g46
g31
g64
tp1234
(dp1235
g92
I1
ss(S','
g77
g23
g38
tp1236
(dp1237
g96
I1
ss(g258
g8
g35
g157
tp1238
(dp1239
g42
I1
ss(g228
g13
g132
g62
tp1240
(dp1241
g109
I1
ss(g319
g348
S'.'
S'\x00'
tp1242
(dp1243
S'\x00'
I1
ss(g285
g19
g43
g76
tp1244
(dp1245
g69
I1
ss(g52
g70
g303
g106
tp1246
(dp1247
S'.'
I1
ss(g104
S'.'
g44
g21
tp1248
(dp1249
g34
I1
ss(g103
S','
g405
S'I'
tp1250
(dp1251
g75
I1
ss(g287
g61
g269
g30
tp1252
(dp1253
g98
I1
ss(g24
S','
S'I'
g71
tp1254
(dp1255
g93
I1
ss(g202
g37
g20
g89
tp1256
(dp1257
g319
I1
ss(S','
S'I'
g71
g93
tp1258
(dp1259
g94
I1
ss(S'a'
g104
S'.'
g44
tp1260
(dp1261
g21
I1
ss(g98
S','
g49
g91
tp1262
(dp1263
g46
I1
ss(g27
g217
g78
g10
tp1264
(dp1265
S','
I1
ss(g45
S';'
g79
g63
tp1266
(dp1267
g135
I1
ss(g46
g31
g64
g92
tp1268
(dp1269
S','
I1
ss(g61
g269
g30
g98
tp1270
(dp1271
S','
I1
ss(g93
g94
g327
g73
tp1272
(dp1273
S'.'
I1
ss(g14
g50
S'a'
g45
tp1274
(dp1275
S';'
I1
ss(g70
g303
g106
S'.'
tp1276
(dp1277
g107
I1
ss(g102
g85
S','
g22
tp1278
(dp1279
S','
I1
ss(g68
g32
g266
g52
tp1280
(dp1281
g70
I1
ss(g157
g42
g47
g55
tp1282
(dp1283
g56
I1
ss(g108
g205
g183
g33
tp1284
(dp1285
g7
I1
ss(g39
g65
S','
g390
tp1286
(dp1287
S','
I1
ss(g44
g21
g34
g118
tp1288
(dp1289
g241
I1
ss(g390
S','
g84
g29
tp1290
(dp1291
g28
I1
ss(g22
S','
g95
g97
tp1292
(dp1293
g87
I1
ss(g59
g81
g90
g68
tp1294
(dp1295
g32
I1
ss(g266
g52
g70
g303
tp1296
(dp1297
g106
I1
ss(g60
g105
S','
g54
tp1298
(dp1299
S','
I1
ss(g89
g319
g348
S'.'
tp1300
(dp1301
S'\x00'
I1
ss(S';'
g448
g59
g81
tp1302
(dp1303
g90
I1
ss(g12
g74
g67
g202
tp1304
(dp1305
g37
I1
ss(g34
g118
g241
g9
tp1306
(dp1307
S','
I1
ss(g75
S','
g643
S','
tp1308
(dp1309
g535
I1
ss(g150
g15
g258
g8
tp1310
(dp1311
g35
I1
ss(g341
g12
g74
g67
tp1312
(dp1313
g202
I1
ss(g62
g109
g82
g25
tp1314
(dp1315
S'a'
I1
ss(g53
g16
g24
S','
tp1316
(dp1317
S'I'
I1
ss(S'a'
g45
S';'
g79
tp1318
(dp1319
g63
I1
ss(S','
g576
g18
g36
tp1320
(dp1321
g261
I1
ss(g81
g90
g68
g32
tp1322
(dp1323
g266
I1
ss(S','
g405
S'I'
g75
tp1324
(dp1325
S','
I1
ss(g18
g36
g261
g83
tp1326
(dp1327
g208
I1
ss(g83
g208
g103
S','
tp1328
(dp1329
g405
I1
ss(g125
S','
g108
g205
tp1330
(dp1331
g183
I1
ss(g97
g87
g53
g16
tp1332
(dp1333
g24
I1
ss(S'I'
g75
S','
g643
tp1334
(dp1335
S','
I1
ss(g90
g68
g32
g266
tp1336
(dp1337
g52
I1
ss(g282
g101
g100
g86
tp1338
(dp1339
g115
I1
ss(g71
g93
g94
g327
tp1340
(dp1341
g73
I1
ss(g334
g341
g12
g74
tp1342
(dp1343
g67
I1
ss(g15
g258
g8
g35
tp1344
(dp1345
g157
I1
ss(g10
S','
g576
g18
tp1346
(dp1347
g36
I1
ss(S'.'
g44
g21
g34
tp1348
(dp1349
g118
I1
ss(g92
S','
g286
g27
tp1350
(dp1351
g217
I1
ss(g9
S','
g285
g19
tp1352
(dp1353
g43
I1
ss(g30
g98
S','
g49
tp1354
(dp1355
g91
I1
ss(g43
g76
g69
g314
tp1356
(dp1357
g72
I1
ss(g35
g157
g42
g47
tp1358
(dp1359
g55
I1
ss(g86
g115
g57
S'-'
tp1360
(dp1361
g26
I1
ss(S'.'
g60
g105
S','
tp1362
(dp1363
g54
I1
ss(S' '
g40
g39
g65
tp1364
(dp1365
S','
I1
ss(g17
S';'
g448
g59
tp1366
(dp1367
g81
I1
ss(g37
g20
g89
g319
tp1368
(dp1369
g348
I1
ss(g58
g99
g244
g125
tp1370
(dp1371
S','
I1
ss(g56
g48
S'.'
S'\x00'
tp1372
(dp1373
S'\x00'
I1
ss(g99
g244
g125
S','
tp1374
(dp1375
g108
I1
ss(g42
g47
g55
g56
tp1376
(dp1377
g48
I1
ssatRp1378
(dp1379
S'order'
p1380
I4
sb.