ccopy_reg
_reconstructor
p1
(cmarkov
MarkovCorpus
p2
c__builtin__
list
p3
(lp4
(dp5
(t(dp6
S'saying'
p7
I2
sS'all'
p8
I3
sS'passages'
p9
I1
sS'interpretation'
p10
I1
sS'words'
p11
I1
sS'when'
p12
I6
sS'alternatives'
p13
I1
sS'Epidaurus'
p14
I1
sS'sleep'
p15
I1
sS'go'
p16
I1
sS'soldiers'
p17
I1
sS'yes'
p18
I1
sS'agrees'
p19
I1
sS'stamped'
p20
I1
sS' '
I85
sS'certainly'
p21
I1
sS'knowledge'
p22
I1
sS'inspiration'
p23
I2
sS'woman'
p24
I1
sS'thinking'
p25
I1
sS'with'
p26
I2
sS'had'
p27
I1
sS','
I76
sS'should'
p28
I5
sS'better'
p29
I3
sS'to'
p30
I18
sS'only'
p31
I2
sS'Ephesians'
p32
I1
sS'indeed'
p33
I5
sS'nobler'
p34
I1
sS'countenances'
p35
I1
sS'equally'
p36
I2
sS'has'
p37
I1
sS'Thasos'
p38
I1
sS'ought'
p39
I4
sS'men'
p40
I1
sS'Homer'
p41
I10
sS'And'
p42
I3
sS'them'
p43
I7
sS'good'
p44
I4
sS'Lampsacus'
p45
I1
sS'worse'
p46
I1
sS'touch'
p47
I1
sS'far'
p48
I2
sS'ruler'
p49
I1
sS'likely'
p50
I1
sS'medicine'
p51
I1
sS'Socrates'
p52
I25
sS'True'
p53
I2
sS'know'
p54
I4
sS'they'
p55
I1
sS'not'
p56
I11
sS'world'
p57
I1
sS'difference'
p58
I2
sS'sorts'
p59
I1
sS'nor'
p60
I3
sS'heaven'
p61
I1
sS'prize'
p62
I1
sS'exquisitely'
p63
I1
sS'cry'
p64
I2
sS'make'
p65
I2
sS'eloquence'
p66
I1
sS'whether'
p67
I1
sS'fisherman'
p68
I1
sS'filled'
p69
I1
sS'pilot'
p70
I1
sS'lose'
p71
I1
sS'where'
p72
I2
sS'Clearly'
p73
I3
sS'two'
p74
I1
sS'right'
p75
I4
sS'art'
p76
I3
sS'For'
p77
I1
sS'Sparta'
p78
I1
sS'absolutely'
p79
I1
sS'obliged'
p80
I1
sS'crown'
p81
I1
sS'him'
p82
I1
sS'soul'
p83
I1
sS'hair'
p84
I1
sS'mentioned'
p85
I1
sS'Only'
p86
I1
sS'behold'
p87
I1
sS'countrymen'
p88
I1
sS'are'
p89
I7
sS'Nevertheless'
p90
I1
sS'home'
p91
I1
sS'divine'
p92
I1
sS'skill'
p93
I1
sS'best'
p94
I3
sS'really'
p95
I1
sS'what'
p96
I10
sS'stands'
p97
I1
sS'for'
p98
I5
sS'That'
p99
I4
sS'Very'
p100
I4
sS'confess'
p101
I1
sS'please'
p102
I1
sS'emotions'
p103
I1
sS'yet'
p104
I1
sS'case'
p105
I1
sS'enough'
p106
I3
sS'various'
p107
I1
sS'then'
p108
I1
sS'between'
p109
I2
sS'Metrodorus'
p110
I1
sS'reply'
p111
I1
sS'neither'
p112
I1
sS'ever'
p113
I2
sS'?'
I4
sS'He'
p114
I4
sS'be'
p115
I6
sS'poets'
p116
I1
sS'attended'
p117
I1
sS'servants'
p118
I1
sS'do'
p119
I6
sS'doubt'
p120
I1
sS'attention'
p121
I3
sS'subject'
p122
I1
sS'O'
I1
sS'quite'
p123
I2
sS'reason'
p124
I3
sS'But'
p125
I1
sS'great'
p126
I1
sS'others'
p127
I1
sS'sure'
p128
I4
sS'by'
p129
I3
sS'interpret'
p130
I2
sS'Gods'
p131
I1
sS'obtained'
p132
I1
sS'on'
p133
I1
sS'about'
p134
I5
sS'generals'
p135
I1
sS'sternness'
p136
I1
sS'never'
p137
I2
sS'of'
p138
I23
sS'could'
p139
I1
sS'assure'
p140
I1
sS'must'
p141
I2
sS'opinion'
p142
I2
sS'Yes'
p143
I23
sS'Precisely'
p144
I1
sS'persuaded'
p145
I1
sS'think'
p146
I3
sS'first'
p147
I1
sS'golden'
p148
I1
sS'Certainly'
p149
I5
sS'own'
p150
I2
sS'love'
p151
I1
sS'render'
p152
I1
sS'No'
p153
I9
sS'feel'
p154
I1
sS'There'
p155
I3
sS'wonder'
p156
I1
sS'one'
p157
I3
sS'down'
p158
I1
sS'least'
p159
I1
sS'laugh'
p160
I2
sS'says'
p161
I1
sS'your'
p162
I2
sS'stage'
p163
I1
sS'speak'
p164
I6
sS'from'
p165
I2
sS'would'
p166
I2
sS'may'
p167
I1
sS'festival'
p168
I1
sS'strictly'
p169
I1
sS'there'
p170
I3
sS'tears'
p171
I1
sS'been'
p172
I1
sS'.'
I83
sS'their'
p173
I1
sS'Glaucon'
p174
I1
sS'much'
p175
I1
sS'master'
p176
I1
sS'too'
p177
I1
sS'way'
p178
I1
sS'poet'
p179
I1
sS'incomparably'
p180
I1
sS':'
I4
sS'was'
p181
I2
sS'tell'
p182
I1
sS'speaking'
p183
I2
sS'more'
p184
I2
sS'sort'
p185
I1
sS'pity'
p186
I2
sS'eyes'
p187
I1
sS'himself'
p188
I1
sS'horseman'
p189
I1
sS'Stesimbrotus'
p190
I1
sS'that'
p191
I16
sS'mind'
p192
I1
sS'mad'
p193
I1
sS'-'
I1
sS'All'
p194
I1
sS'but'
p195
I3
sS'else'
p196
I1
sS'part'
p197
I2
sS'hear'
p198
I3
sS'known'
p199
I1
sS'thing'
p200
I1
sS'believe'
p201
I1
sS'true'
p202
I5
sS'than'
p203
I3
sS'he'
p204
I4
sS'me'
p205
I8
sS'physician'
p206
I1
sS'myself'
p207
I3
sS'wise'
p208
I1
sS'look'
p209
I1
sS'frankly'
p210
I1
sS'performers'
p211
I1
sS'this'
p212
I2
sS'wish'
p213
I1
sS'up'
p214
I1
sS'value'
p215
I1
sS'will'
p216
I9
sS'forgetting'
p217
I1
sS'persuade'
p218
I1
sS'can'
p219
I2
sS'praise'
p220
I1
sS'many'
p221
I2
sS'my'
p222
I12
sS'agree'
p223
I1
sS'say'
p224
I9
sS'proof'
p225
I1
sS'and'
p226
I33
sS'heart'
p227
I1
sS'Homeridae'
p228
I1
sS'give'
p229
I2
sS'certain'
p230
I1
sS'is'
p231
I13
sS'in'
p232
I10
sS'am'
p233
I10
sS'Athens'
p234
I1
sS'general'
p235
I2
sS'horrors'
p236
I1
sS'To'
p237
I3
sS'as'
p238
I5
sS'his'
p239
I1
sS'at'
p240
I2
sS'have'
p241
I9
sS';'
I23
sS'need'
p242
I1
sS'exclude'
p243
I1
sS'appears'
p244
I1
sS'any'
p245
I5
sS'if'
p246
I3
sS'Far'
p247
I1
sS'again'
p248
I1
sS'charioteer'
p249
I2
sS'end'
p250
I1
sS'us'
p251
I1
sS'no'
p252
I5
sS'things'
p253
I2
sS'self'
p254
I1
sS'Who'
p255
I1
sS'able'
p256
I1
sS'ideas'
p257
I2
sS'same'
p258
I4
sS'clearly'
p259
I1
sS'how'
p260
I1
sS'other'
p261
I3
sS'which'
p262
I3
sS'you'
p263
I14
sS'speaks'
p264
I1
sS'Why'
p265
I3
sS'Asclepius'
p266
I1
sS'A'
I1
sS'arrives'
p267
I1
sS'slave'
p268
I1
sS'rhapsode'
p269
I1
sS'shall'
p270
I2
sS'I'
I46
sS'who'
p271
I1
sS'upon'
p272
I2
sS'most'
p273
I1
sS'throbs'
p274
I1
sS'strikes'
p275
I1
sS'plenty'
p276
I1
sS'such'
p277
I1
sS'The'
p278
I5
sS'laborious'
p279
I1
sS'payment'
p280
I1
sS'repeat'
p281
I1
sS'man'
p282
I3
sS'a'
I15
sS'deny'
p283
I1
sS'remember'
p284
I2
sS'conscious'
p285
I1
sS'possessed'
p286
I1
sS'prophet'
p287
I1
sS'well'
p288
I4
sS'freeman'
p289
I1
sS'or'
p290
I1
sS'tale'
p291
I1
sS'person'
p292
I1
sS'cannot'
p293
I1
sS'so'
p294
I2
sS'time'
p295
I1
sS'very'
p296
I2
sS'wake'
p297
I1
sS'the'
p298
I30
sS'musical'
p299
I1
sS'talk'
p300
I1
sS'once'
p301
I1
ssa(dp302
(g93
tp303
(dp304
S'as'
p305
I1
ss(g298
tp306
(dp307
S'art'
p308
I1
sg228
I1
sg258
I3
sS'best'
p309
I1
sg32
I1
sg168
I1
sg253
I1
sg74
I1
sg159
I1
sS'other'
p310
I1
sg107
I1
sg34
I1
sg163
I1
sg185
I1
sg269
I1
sg273
I1
sg124
I3
sg57
I1
sg70
I1
sg105
I1
sg131
I1
sg291
I1
sg68
I1
sg118
I1
sg295
I1
sg147
I1
ss(g240
tp311
(dp312
S'the'
p313
I1
sg301
I1
ss(g126
tp314
(dp315
S'difference'
p316
I1
ss(g72
tp317
(dp318
S'I'
I1
sg55
I1
ss(g96
tp319
(dp320
S'a'
I7
sS'you'
p321
I1
sS'am'
p322
I1
sS'is'
p323
I1
ss(g182
tp324
(dp325
S'me'
p326
I1
ss(S'I'
tp327
(dp328
g151
I1
sg152
I1
sg154
I1
sg233
I8
sg241
I3
sS'speak'
p329
I1
sg65
I2
sg284
I2
sS'should'
p330
I4
sg120
I1
sS'do'
p331
I4
sg117
I1
sg296
I1
sg293
I1
sg297
I1
sg201
I1
sg141
I2
sg132
I1
sS'myself'
p332
I2
sg209
I1
sg216
I1
sg217
I1
sg219
I2
sg220
I1
sg71
I1
sg146
I1
ss(g61
tp333
(dp334
S'.'
I1
ss(g80
tp335
(dp336
S'to'
p337
I1
ss(g165
tp338
(dp339
S'the'
p340
I1
sg14
I1
ss(g32
tp341
(dp342
S','
I1
ss(g216
tp343
(dp344
S'be'
p345
I2
sg281
I1
sS','
I1
sg54
I2
sS'not'
p346
I2
sS'ever'
p347
I1
ss(g155
tp348
(dp349
g248
I1
sS'is'
p350
I2
ss(g30
tp351
(dp352
S'me'
p353
I1
sg115
I2
sS'them'
p354
I1
sS'give'
p355
I1
sg251
I1
sg224
I5
sg218
I1
sg15
I1
sS'know'
p356
I1
sS'have'
p357
I1
sg198
I2
sg164
I1
ss(g171
tp358
(dp359
S','
I1
ss(g211
tp360
(dp361
S'.'
I1
ss(g234
tp362
(dp363
S','
I1
ss(g16
tp364
(dp365
S'to'
p366
I1
ss(g195
tp367
(dp368
g56
I1
sS'when'
p369
I1
sg165
I1
ss(g277
tp370
(dp371
S'a'
I1
ss(g11
tp372
(dp373
g47
I1
ss(g23
tp374
(dp375
S'is'
p376
I1
sS'interpret'
p377
I1
ss(g177
tp378
(dp379
S'well'
p380
I1
ss(S'A'
tp381
(dp382
g287
I1
ss(g58
tp383
(dp384
S','
I1
sg109
I1
ss(g111
tp385
(dp386
S','
I1
ss(g104
tp387
(dp388
S'I'
I1
ss(g43
tp389
(dp390
g36
I1
sS'from'
p391
I1
sg64
I1
sS'.'
I2
sS'laugh'
p392
I1
sS';'
I1
ss(g129
tp393
(dp394
S'a'
I1
sS'far'
p395
I1
sS'my'
p396
I1
ss(g212
tp397
(dp398
S'to'
p399
I1
sS'.'
I1
ss(g150
tp400
(dp401
g254
I1
sS'.'
I1
ss(g125
tp402
(dp403
S'I'
I1
ss(g204
tp404
(dp405
S'will'
p406
I1
sS'be'
p407
I1
sg231
I2
ss(g286
tp408
(dp409
S';'
I1
ss(g228
tp410
(dp411
g28
I1
ss(g84
tp412
(dp413
g97
I1
ss(g190
tp414
(dp415
S'of'
p416
I1
ss(g273
tp417
(dp418
g279
I1
ss(g86
tp419
(dp420
g177
I1
ss(g74
tp421
(dp422
g13
I1
ss(g35
tp423
(dp424
S'when'
p425
I1
ss(g293
tp426
(dp427
g283
I1
ss(g42
tp428
(dp429
S'I'
I1
sS'what'
p430
I1
sS'you'
p431
I1
ss(g241
tp432
(dp433
S'me'
p434
I1
sS'no'
p435
I1
sg79
I1
sg137
I1
sS','
I1
sg66
I1
sS'enough'
p436
I1
sg276
I1
sS'more'
p437
I1
ss(S' '
tp438
(dp439
g42
I3
sS'A'
I1
sg149
I5
sg155
I3
sg153
I9
sS'I'
I7
sg99
I4
sg194
I1
sS'O'
I1
sg265
I3
sg278
I5
sg100
I4
sg86
I1
sg255
I1
sg247
I1
sg144
I1
sg143
I23
sg237
I3
sg53
I2
sg73
I3
sg114
I4
ss(g113
tp440
(dp441
g181
I1
sS'have'
p442
I1
ss(g283
tp443
(dp444
g96
I1
ss(g73
tp445
(dp446
S'the'
p447
I1
sS','
I1
sS'.'
I1
ss(g183
tp448
(dp449
S':'
I1
sS','
I1
ss(g147
tp450
(dp451
g62
I1
ss(g24
tp452
(dp453
S'ought'
p454
I1
ss(g244
tp455
(dp456
S'to'
p457
I1
ss(g230
tp458
(dp459
S'things'
p460
I1
ss(g217
tp461
(dp462
S'?'
I1
ss(g252
tp463
(dp464
g22
I1
sg58
I1
sS'part'
p465
I1
sS'ideas'
p466
I1
sg184
I1
ss(g31
tp467
(dp468
S';'
I1
sS'when'
p469
I1
ss(g199
tp470
(dp471
g277
I1
ss(g17
tp472
(dp473
S'of'
p474
I1
ss(g107
tp475
(dp476
g103
I1
ss(g196
tp477
(dp478
g271
I1
ss(g278
tp479
(dp480
g206
I1
sg249
I2
sS'art'
p481
I1
sS'same'
p482
I1
ss(g92
tp483
(dp484
g23
I1
ss(g178
tp485
(dp486
S'as'
p487
I1
ss(g162
tp488
(dp489
S'own'
p490
I1
sg11
I1
ss(g26
tp491
(dp492
S'me'
p493
I1
sg171
I1
ss(g44
tp494
(dp495
S'many'
p496
I1
sg116
I1
sg257
I1
sS','
I1
ss(g130
tp497
(dp498
g43
I1
sS'the'
p499
I1
ss(g213
tp500
(dp501
S'that'
p502
I1
ss(g151
tp503
(dp504
S'to'
p505
I1
ss(g47
tp506
(dp507
S'my'
p508
I1
ss(g287
tp509
(dp510
S'.'
I1
ss(g102
tp511
(dp512
g61
I1
ss(g191
tp513
(dp514
S'good'
p515
I1
sS'I'
I4
sS'is'
p516
I1
sS','
I1
sS'you'
p517
I3
sS'will'
p518
I1
sS'at'
p519
I1
sg112
I1
sS'.'
I1
sS'my'
p520
I1
sS'the'
p521
I1
ss(g274
tp522
(dp523
S'.'
I1
ss(g218
tp524
(dp525
S'me'
p526
I1
ss(g172
tp527
(dp528
S'the'
p529
I1
ss(g239
tp530
(dp531
S'right'
p532
I1
ss(g37
tp533
(dp534
g21
I1
ss(g206
tp535
(dp536
S'.'
I1
ss(S';'
tp537
(dp538
g226
I10
sg10
I1
sS'for'
p539
I3
sS'no'
p540
I1
sS'I'
I2
sg195
I3
sS'in'
p541
I1
sS'the'
p542
I1
sg204
I1
ss(g232
tp543
(dp544
S'a'
I1
sg7
I2
sg188
I1
sS'Homer'
p545
I1
sg25
I1
sg239
I1
sS'the'
p546
I1
sS'my'
p547
I2
ss(g21
tp548
(dp549
g172
I1
ss(g33
tp550
(dp551
S';'
I1
sS','
I4
ss(g184
tp552
(dp553
S'to'
p554
I1
sS'than'
p555
I1
ss(g62
tp556
(dp557
S'of'
p558
I1
ss(g186
tp559
(dp560
S','
I2
ss(g166
tp561
(dp562
S':'
I1
sS'never'
p563
I1
ss(g260
tp564
(dp565
g63
I1
ss(g242
tp566
(dp567
S'a'
I1
ss(S'O'
tp568
(dp569
g18
I1
ss(g294
tp570
(dp571
S'.'
I2
ss(g235
tp572
(dp573
S';'
I1
sS'ought'
p574
I1
ss(g18
tp575
(dp576
S';'
I1
ss(g85
tp577
(dp578
S','
I1
ss(g279
tp579
(dp580
g197
I1
ss(S'\x00'
tp581
(dp582
S'\x00'
I340
ss(g118
tp583
(dp584
S'and'
p585
I1
ss(g82
tp586
(dp587
S'I'
I1
ss(g75
tp588
(dp589
S'.'
I1
sg192
I1
sS','
I1
sS'in'
p590
I1
ss(g131
tp591
(dp592
S'to'
p593
I1
ss(g253
tp594
(dp595
S'of'
p596
I1
sS','
I1
ss(g45
tp597
(dp598
S','
I1
ss(g163
tp599
(dp600
S','
I1
ss(g236
tp601
(dp602
S','
I1
ss(g13
tp603
(dp604
S';'
I1
ss(g288
tp605
(dp606
S'of'
p607
I1
sS'about'
p608
I1
sS','
I1
sS';'
I1
ss(g229
tp609
(dp610
g205
I1
sS'my'
p611
I1
ss(g281
tp612
(dp613
S'them'
p614
I1
ss(g179
tp615
(dp616
S';'
I1
ss(g146
tp617
(dp618
S'this'
p619
I1
sS'that'
p620
I2
ss(g142
tp621
(dp622
g170
I1
sS','
I1
ss(g88
tp623
(dp624
S','
I1
ss(S'.'
tp625
(dp626
S'I'
I1
sS'\x00'
I79
sg90
I1
sg77
I1
sg125
I1
ss(g263
tp627
(dp628
S'and'
p629
I1
sg208
I1
sg166
I2
sg139
I1
sS'.'
I1
sS'will'
p630
I1
sS'say'
p631
I1
sS'are'
p632
I3
sS'have'
p633
I1
sS'think'
p634
I1
sg95
I1
ss(g54
tp635
(dp636
S'what'
p637
I2
sS'best'
p638
I1
sS'.'
I1
ss(g132
tp639
(dp640
S'the'
p641
I1
ss(g160
tp642
(dp643
S'I'
I1
sS','
I1
ss(g248
tp644
(dp645
S'you'
p646
I1
ss(g38
tp647
(dp648
S','
I1
ss(g127
tp649
(dp650
S'-'
I1
ss(g207
tp651
(dp652
g256
I1
sg270
I2
ss(g299
tp653
(dp654
g211
I1
ss(g12
tp655
(dp656
S'Homer'
p657
I1
sS'I'
I3
sS'the'
p658
I1
sS'any'
p659
I1
ss(S'?'
tp660
(dp661
S'\x00'
I4
ss(g69
tp662
(dp663
S'with'
p664
I1
ss(g97
tp665
(dp666
g133
I1
ss(g271
tp667
(dp668
g113
I1
ss(g140
tp669
(dp670
S'you'
p671
I1
ss(g81
tp672
(dp673
S'.'
I1
ss(g83
tp674
(dp675
S','
I1
ss(g243
tp676
(dp677
g230
I1
ss(g123
tp678
(dp679
g106
I1
sS'right'
p680
I1
ss(g226
tp681
(dp682
S'Homer'
p683
I1
sS'do'
p684
I1
sS'what'
p685
I5
sg191
I1
sS'I'
I4
sS'of'
p686
I1
sg286
I1
sS'when'
p687
I1
sS'am'
p688
I1
sg87
I1
sS'will'
p689
I1
sg78
I1
sS'have'
p690
I3
sg16
I1
sg17
I1
sg263
I2
sS'inspiration'
p691
I1
sS'my'
p692
I1
sS'the'
p693
I2
sg104
I1
sS'if'
p694
I2
ss(g71
tp695
(dp696
g121
I1
ss(g8
tp697
(dp698
g59
I1
sS'attention'
p699
I1
sS','
I1
ss(g120
tp700
(dp701
g67
I1
ss(g168
tp702
(dp703
g138
I1
ss(g267
tp704
(dp705
S'.'
I1
ss(g60
tp706
(dp707
g174
I1
sS'any'
p708
I1
sg190
I1
ss(g221
tp709
(dp710
S'.'
I2
ss(g76
tp711
(dp712
S'of'
p713
I2
sS';'
I1
ss(g164
tp714
(dp715
S'better'
p716
I1
sS'of'
p717
I2
sg134
I1
sS'well'
p718
I1
sS'equally'
p719
I1
ss(g254
tp720
(dp721
S','
I1
ss(g46
tp722
(dp723
S'.'
I1
ss(g152
tp724
(dp725
S'Homer'
p726
I1
ss(g237
tp727
(dp728
S'Homer'
p729
I1
sS'me'
p730
I1
sS'be'
p731
I1
ss(g27
tp732
(dp733
g238
I1
ss(g40
tp734
(dp735
g300
I1
ss(g297
tp736
(dp737
g214
I1
ss(g103
tp738
(dp739
S'of'
p740
I1
ss(g180
tp741
(dp742
S'better'
p743
I1
ss(g143
tp744
(dp745
S';'
I2
sS','
I7
sS'.'
I14
ss(g89
tp746
(dp747
S'a'
I1
sS'right'
p748
I1
sS'quite'
p749
I1
sS'not'
p750
I1
sS';'
I1
sS'the'
p751
I1
sg69
I1
ss(g67
tp752
(dp753
S'you'
p754
I1
ss(g264
tp755
(dp756
S'of'
p757
I1
ss(g55
tp758
(dp759
g223
I1
ss(g133
tp760
(dp761
g250
I1
ss(g222
tp762
(dp763
g227
I1
sg187
I1
sg150
I1
sg76
I1
sS'very'
p764
I1
sg83
I1
sg84
I1
sg88
I1
sg176
I1
sg142
I2
sg93
I1
ss(g68
tp765
(dp766
S'.'
I1
ss(g249
tp767
(dp768
S','
I1
sS'.'
I1
ss(g192
tp769
(dp770
S'.'
I1
ss(g300
tp771
(dp772
S'.'
I1
ss(S'-'
tp773
(dp774
g182
I1
ss(g114
tp775
(dp776
S'will'
p777
I2
sS'is'
p778
I1
sg161
I1
ss(g122
tp779
(dp780
S'.'
I1
ss(g284
tp781
(dp782
S','
I1
sS'.'
I1
ss(g66
tp783
(dp784
S'enough'
p785
I1
ss(g98
tp786
(dp787
S'I'
I2
sS'you'
p788
I1
sg162
I1
sg246
I1
ss(g173
tp789
(dp790
g35
I1
ss(g272
tp791
(dp792
g173
I1
sS'them'
p793
I1
ss(g87
tp794
(dp795
S'the'
p796
I1
ss(g261
tp797
(dp798
g179
I1
sS'man'
p799
I1
sS'.'
I1
ss(g159
tp800
(dp801
g215
I1
ss(g157
tp802
(dp803
S'and'
p804
I1
sg264
I1
sg196
I1
ss(g141
tp805
(dp806
S'say'
p807
I1
sg210
I1
ss(g200
tp808
(dp809
S'which'
p810
I1
ss(g201
tp811
(dp812
g207
I1
ss(g289
tp813
(dp814
S'and'
p815
I1
ss(g227
tp816
(dp817
g274
I1
ss(g109
tp818
(dp819
S'them'
p820
I1
sS'the'
p821
I1
ss(g187
tp822
(dp823
S'are'
p824
I1
ss(g280
tp825
(dp826
g267
I1
ss(g9
tp827
(dp828
S','
I1
ss(g94
tp829
(dp830
S'attention'
p831
I1
sS','
I1
sS'.'
I1
ss(g268
tp832
(dp833
S'ought'
p834
I1
ss(g139
tp835
(dp836
S'hear'
p837
I1
ss(g158
tp838
(dp839
g272
I1
ss(g255
tp840
(dp841
g167
I1
ss(g70
tp842
(dp843
S'will'
p844
I1
ss(g153
tp845
(dp846
S'indeed'
p847
I3
sS';'
I2
sS','
I3
sS'.'
I1
ss(g238
tp848
(dp849
S'I'
I1
sg221
I1
sg44
I1
sS'a'
I1
sS'Homer'
p850
I1
ss(S','
tp851
(dp852
S'and'
p853
I9
sg20
I1
sg33
I2
sS'one'
p854
I1
sS'are'
p855
I1
sS'in'
p856
I2
sg259
I1
sg156
I1
sS'what'
p857
I1
sg136
I1
sg169
I1
sg27
I1
sS'between'
p858
I1
sg119
I1
sS'that'
p859
I3
sS'I'
I6
sg52
I25
sg102
I1
sS'by'
p860
I1
sg60
I3
sS'he'
p861
I2
sS'about'
p862
I1
sS'for'
p863
I1
sg72
I2
sg12
I1
sS'the'
p864
I3
sS'my'
p865
I2
sg290
I1
ss(g110
tp866
(dp867
S'of'
p868
I1
ss(g197
tp869
(dp870
S'of'
p871
I1
sS','
I1
ss(g15
tp872
(dp873
S'and'
p874
I1
ss(g193
tp875
(dp876
S'and'
p877
I1
ss(g296
tp878
(dp879
g175
I1
sg94
I1
ss(g144
tp880
(dp881
S'.'
I1
ss(g185
tp882
(dp883
S'of'
p884
I1
ss(g134
tp885
(dp886
g41
I3
sg262
I1
sg127
I1
ss(g223
tp887
(dp888
S'.'
I1
ss(g154
tp889
(dp890
S'that'
p891
I1
ss(g90
tp892
(dp893
S'I'
I1
ss(g39
tp894
(dp895
S'to'
p896
I4
ss(g208
tp897
(dp898
g40
I1
ss(g301
tp899
(dp900
S'and'
p901
I1
ss(g231
tp902
(dp903
S'a'
I1
sS'good'
p904
I1
sS'no'
p905
I1
sS'my'
p906
I1
sS'there'
p907
I1
sS','
I1
sS'not'
p908
I1
sg232
I1
sg85
I1
sg180
I1
sS'the'
p909
I1
sS'true'
p910
I1
sS'by'
p911
I1
ss(g22
tp912
(dp913
S'?'
I1
ss(g105
tp914
(dp915
S'.'
I1
ss(g224
tp916
(dp917
S'about'
p918
I1
sS'.'
I1
sS','
I4
sS'?'
I1
sS'that'
p919
I2
ss(g99
tp920
(dp921
S'is'
p922
I3
sg225
I1
ss(g174
tp923
(dp924
S','
I1
ss(g56
tp925
(dp926
g50
I1
sS'.'
I4
sS'say'
p927
I1
sS'in'
p928
I2
sg242
I1
sS'speak'
p929
I2
ss(g262
tp930
(dp931
S'I'
I2
sS'the'
p932
I1
ss(g219
tp933
(dp934
g140
I1
sg130
I1
ss(g51
tp935
(dp936
S'.'
I1
ss(g119
tp937
(dp938
S'I'
I1
sS'not'
p939
I4
sS'speak'
p940
I1
ss(g115
tp941
(dp942
S'the'
p943
I2
sS'sure'
p944
I2
sS'?'
I1
sS'no'
p945
I1
ss(g202
tp946
(dp947
S':'
I1
sS','
I2
sS'.'
I2
ss(g295
tp948
(dp949
S'of'
p950
I1
ss(g19
tp951
(dp952
g26
I1
ss(g100
tp953
(dp954
g202
I4
ss(g188
tp955
(dp956
g123
I1
ss(g63
tp957
(dp958
S'I'
I1
ss(g10
tp959
(dp960
g37
I1
ss(g95
tp961
(dp962
g39
I1
ss(g169
tp963
(dp964
g183
I1
ss(g291
tp965
(dp966
S'of'
p967
I1
ss(g189
tp968
(dp969
S'.'
I1
ss(g77
tp970
(dp971
S'I'
I1
ss(g256
tp972
(dp973
g30
I1
ss(g124
tp974
(dp975
S'of'
p976
I1
sS'is'
p977
I1
sS'.'
I1
ss(g214
tp978
(dp979
g240
I1
ss(g137
tp980
(dp981
g199
I1
sS'think'
p982
I1
ss(g259
tp983
(dp984
S'.'
I1
ss(g246
tp985
(dp986
S'I'
I2
sS'you'
p987
I1
ss(g198
tp988
(dp989
S'me'
p990
I1
sg260
I1
sS'you'
p991
I1
ss(g247
tp992
(dp993
S'the'
p994
I1
ss(S':'
tp995
(dp996
S'and'
p997
I1
sS'\x00'
I2
sg98
I1
ss(g276
tp998
(dp999
S'to'
p1000
I1
ss(g145
tp1001
(dp1002
S'that'
p1003
I1
ss(g128
tp1004
(dp1005
S'to'
p1006
I1
sS'you'
p1007
I1
sS','
I1
sS'that'
p1008
I1
ss(g265
tp1009
(dp1010
g108
I1
sS','
I2
ss(g48
tp1011
(dp1012
S'the'
p1013
I1
sg46
I1
ss(g135
tp1014
(dp1015
S'of'
p1016
I1
ss(g250
tp1017
(dp1018
S'and'
p1019
I1
ss(g209
tp1020
(dp1021
g158
I1
ss(g205
tp1022
(dp1023
S'a'
I1
sS'that'
p1024
I1
sS'there'
p1025
I1
sS','
I2
sS'in'
p1026
I1
sS'the'
p1027
I1
sS'speak'
p1028
I1
ss(g138
tp1029
(dp1030
g186
I2
sg8
I2
sg45
I1
sS'that'
p1031
I1
sg212
I1
sg38
I1
sg280
I1
sS'your'
p1032
I1
sg234
I1
sg82
I1
sS'any'
p1033
I1
sg236
I1
sg200
I1
sS'which'
p1034
I1
sg51
I1
sS'the'
p1035
I3
sg222
I1
sg299
I1
sg266
I1
ss(g285
tp1036
(dp1037
S'in'
p1038
I1
ss(g14
tp1039
(dp1040
S','
I1
ss(g161
tp1041
(dp1042
S':'
I1
ss(g175
tp1043
(dp1044
g213
I1
ss(g57
tp1045
(dp1046
g19
I1
ss(g41
tp1047
(dp1048
S'of'
p1049
I1
sS'is'
p1050
I1
sg31
I2
sS'.'
I2
sg29
I1
sS'as'
p1051
I1
sS'was'
p1052
I1
sS'than'
p1053
I1
ss(g220
tp1054
(dp1055
S'Homer'
p1056
I1
ss(g148
tp1057
(dp1058
g81
I1
ss(g65
tp1059
(dp1060
S'them'
p1061
I2
ss(g116
tp1062
(dp1063
g129
I1
ss(g203
tp1064
(dp1065
S'the'
p1066
I1
sg245
I2
ss(g53
tp1067
(dp1068
S'.'
I2
ss(g275
tp1069
(dp1070
g91
I1
ss(g282
tp1071
(dp1072
S'and'
p1073
I1
sS';'
I1
sS'.'
I1
ss(g20
tp1074
(dp1075
S'upon'
p1076
I1
ss(g36
tp1077
(dp1078
g288
I2
ss(g170
tp1079
(dp1080
g244
I1
sg89
I1
sS'in'
p1081
I1
ss(g269
tp1082
(dp1083
S'will'
p1084
I1
ss(g194
tp1085
(dp1086
g9
I1
ss(g78
tp1087
(dp1088
S'are'
p1089
I1
ss(g251
tp1090
(dp1091
S'.'
I1
ss(g257
tp1092
(dp1093
S'of'
p1094
I1
sS'about'
p1095
I1
ss(g34
tp1096
(dp1097
S'.'
I1
ss(g215
tp1098
(dp1099
S','
I1
ss(g28
tp1100
(dp1101
g111
I1
sg243
I1
sS'say'
p1102
I1
sS'know'
p1103
I1
sg229
I1
ss(g112
tp1104
(dp1105
g110
I1
ss(S'a'
tp1106
(dp1107
g148
I1
sg126
I1
sS'good'
p1108
I1
sg268
I1
sg289
I1
sg48
I1
sg49
I1
sg122
I1
sg235
I2
sg292
I1
sg24
I1
sg92
I1
sg189
I1
sS'man'
p1109
I1
ss(g181
tp1110
(dp1111
S'my'
p1112
I1
sS','
I1
ss(g290
tp1113
(dp1114
S'as'
p1115
I1
ss(g79
tp1116
(dp1117
g252
I1
ss(g266
tp1118
(dp1119
S'.'
I1
ss(g49
tp1120
(dp1121
S'and'
p1122
I1
ss(g225
tp1123
(dp1124
g275
I1
ss(g156
tp1125
(dp1126
S','
I1
ss(g29
tp1127
(dp1128
S'and'
p1129
I1
sg203
I1
sS'.'
I1
ss(g121
tp1130
(dp1131
S'and'
p1132
I2
sS'to'
p1133
I1
ss(g210
tp1134
(dp1135
g101
I1
ss(g292
tp1136
(dp1137
S'.'
I1
ss(g233
tp1138
(dp1139
S'all'
p1140
I1
sg75
I1
sg285
I1
sS'I'
I1
sg80
I1
sg128
I2
sg193
I1
sg145
I1
sS'speaking'
p1141
I1
ss(g106
tp1142
(dp1143
S'to'
p1144
I1
sg135
I1
sS'.'
I1
ss(g167
tp1145
(dp1146
S'he'
p1147
I1
ss(g91
tp1148
(dp1149
S'to'
p1150
I1
ss(g176
tp1151
(dp1152
S'.'
I1
ss(g136
tp1153
(dp1154
S','
I1
ss(g7
tp1155
(dp1156
g294
I2
ss(g108
tp1157
(dp1158
S','
I1
ss(g149
tp1159
(dp1160
S'not'
p1161
I2
sS','
I2
sS'.'
I1
ss(g245
tp1162
(dp1163
g157
I2
sg261
I2
sg282
I1
ss(g25
tp1164
(dp1165
S'that'
p1166
I1
ss(g117
tp1167
(dp1168
g298
I1
ss(g101
tp1169
(dp1170
S'that'
p1171
I1
ss(g59
tp1172
(dp1173
S'of'
p1174
I1
ss(g64
tp1175
(dp1176
S'I'
I1
sS'when'
p1177
I1
ss(g270
tp1178
(dp1179
S'cry'
p1180
I1
sg160
I1
ss(g52
tp1181
(dp1182
S';'
I7
sS','
I9
sS'.'
I9
ss(g258
tp1183
(dp1184
g178
I1
sS'.'
I3
ss(g50
tp1185
(dp1186
S'to'
p1187
I1
ssa(dp1188
(S'hear'
p1189
g991
tp1190
(dp1191
g208
I1
ss(g81
S'.'
tp1192
(dp1193
S'\x00'
I1
ss(g257
g1095
tp1194
(dp1195
S'Homer'
p1196
I1
ss(g11
g47
tp1197
(dp1198
g508
I1
ss(g191
g112
tp1199
(dp1200
g110
I1
ss(g64
S'I'
tp1201
(dp1202
g332
I1
ss(S'To'
p1203
g730
tp1204
(dp1205
g1025
I1
ss(S'you'
p1206
g633
tp1207
(dp1208
g436
I1
ss(g862
g262
tp1209
(dp1210
S'I'
I1
ss(S'Clearly'
p1211
S','
tp1212
(dp1213
S'Socrates'
p1214
I1
ss(S'a'
g1109
tp1215
(dp1216
g1073
I1
ss(g270
g160
tp1217
(dp1218
S','
I1
ss(S'and'
p1219
g687
tp1220
(dp1221
S'I'
I1
ss(g555
g1066
tp1222
(dp1223
g310
I1
ss(S' '
g42
tp1224
(dp1225
S'I'
I1
sg430
I1
sg431
I1
ss(g326
g1027
tp1226
(dp1227
g124
I1
ss(g252
g466
tp1228
(dp1229
g1094
I1
ss(g282
S';'
tp1230
(dp1231
S'and'
p1232
I1
ss(g907
g1081
tp1233
(dp1234
g545
I1
ss(g41
g29
tp1235
(dp1236
g203
I1
ss(g877
g286
tp1237
(dp1238
S';'
I1
ss(g868
g45
tp1239
(dp1240
S','
I1
ss(S' '
S'A'
tp1241
(dp1242
g287
I1
ss(g693
g57
tp1243
(dp1244
g19
I1
ss(g248
g646
tp1245
(dp1246
S'are'
p1247
I1
ss(g74
g13
tp1248
(dp1249
S';'
I1
ss(g279
g197
tp1250
(dp1251
g871
I1
ss(g1232
g191
tp1252
(dp1253
g112
I1
ss(g1025
g244
tp1254
(dp1255
g457
I1
ss(S'in'
p1256
g239
tp1257
(dp1258
g532
I1
ss(S'remember'
p1259
S'.'
tp1260
(dp1261
S'\x00'
I1
ss(S'have'
p1262
g435
tp1263
(dp1264
g22
I1
ss(S'Why'
p1265
S','
tp1266
(dp1267
g857
I1
sS'Socrates'
p1268
I1
ss(S' '
g255
tp1269
(dp1270
g167
I1
ss(g125
S'I'
tp1271
(dp1272
S'do'
p1273
I1
ss(g65
g1061
tp1274
(dp1275
g64
I1
sg392
I1
ss(g932
g269
tp1276
(dp1277
g1084
I1
ss(g247
g994
tp1278
(dp1279
g309
I1
ss(g186
S','
tp1280
(dp1281
g865
I1
sg156
I1
ss(g824
g69
tp1282
(dp1283
g664
I1
ss(g249
S','
tp1284
(dp1285
g259
I1
ss(S'not'
p1286
g242
tp1287
(dp1288
S'a'
I1
ss(S'that'
p1289
g516
tp1290
(dp1291
g909
I1
ss(g140
g671
tp1292
(dp1293
S'.'
I1
ss(g176
S'.'
tp1294
(dp1295
S'\x00'
I1
ss(g354
S';'
tp1296
(dp1297
S'for'
p1298
I1
ss(g1094
g1035
tp1299
(dp1300
g131
I1
sg68
I1
sg159
I1
ss(S' '
g143
tp1301
(dp1302
S';'
I2
sS','
I7
sS'.'
I14
ss(g34
S'.'
tp1303
(dp1304
S'\x00'
I1
ss(g630
g347
tp1305
(dp1306
g442
I1
ss(g1133
g354
tp1307
(dp1308
S';'
I1
ss(g277
S'a'
tp1309
(dp1310
g292
I1
ss(g585
g17
tp1311
(dp1312
g474
I1
ss(S'and'
p1313
g87
tp1314
(dp1315
g796
I1
ss(g754
g630
tp1316
(dp1317
g347
I1
ss(g982
g619
tp1318
(dp1319
g399
I1
ss(g272
g793
tp1320
(dp1321
g391
I1
ss(g175
g213
tp1322
(dp1323
g502
I1
ss(g203
g245
tp1324
(dp1325
S'other'
p1326
I1
sg282
I1
ss(g1180
g1177
tp1327
(dp1328
g658
I1
ss(S';'
g542
tp1329
(dp1330
g70
I1
ss(g347
g442
tp1331
(dp1332
g66
I1
ss(S'I'
g297
tp1333
(dp1334
g214
I1
ss(S'will'
p1335
g346
tp1336
(dp1337
S'.'
I2
ss(g122
S'.'
tp1338
(dp1339
S'\x00'
I1
ss(S' '
g99
tp1340
(dp1341
g922
I3
sg225
I1
ss(S'have'
p1342
g437
tp1343
(dp1344
g554
I1
ss(g56
g928
tp1345
(dp1346
g546
I1
sg239
I1
ss(g726
S'.'
tp1347
(dp1348
S'I'
I1
sS'\x00'
I1
ss(g541
g547
tp1349
(dp1350
g142
I1
sg150
I1
ss(g940
g716
tp1351
(dp1352
g1129
I1
ss(S','
g863
tp1353
(dp1354
g788
I1
ss(g529
g273
tp1355
(dp1356
g279
I1
ss(g1051
S'I'
tp1357
(dp1358
g241
I1
ss(g950
g280
tp1359
(dp1360
g267
I1
ss(g148
g81
tp1361
(dp1362
S'.'
I1
ss(g161
S':'
tp1363
(dp1364
S'\x00'
I1
ss(g416
g38
tp1365
(dp1366
S','
I1
ss(S'a'
g292
tp1367
(dp1368
S'.'
I1
ss(g293
g283
tp1369
(dp1370
g96
I1
ss(S'.'
S'I'
tp1371
(dp1372
g146
I1
ss(g55
g223
tp1373
(dp1374
S'.'
I1
ss(g100
g202
tp1375
(dp1376
S':'
I1
sS','
I2
sS'.'
I1
ss(g181
S','
tp1377
(dp1378
g27
I1
ss(g128
g1007
tp1379
(dp1380
S'would'
p1381
I1
ss(g788
g634
tp1382
(dp1383
S'that'
p1384
I1
ss(S'am'
p1385
g128
tp1386
(dp1387
g1007
I1
sg1008
I1
ss(g80
g337
tp1388
(dp1389
g355
I1
ss(g1000
g224
tp1390
(dp1391
g918
I1
sS','
I2
sS'?'
I1
sS'.'
I1
ss(S','
g856
tp1392
(dp1393
S'a'
I1
sS'saying'
p1394
I1
ss(g290
g1115
tp1395
(dp1396
g221
I1
ss(g919
S','
tp1397
(dp1398
g169
I1
ss(S'I'
g65
tp1399
(dp1400
g1061
I2
ss(S'I'
g293
tp1401
(dp1402
g283
I1
ss(g240
g301
tp1403
(dp1404
g901
I1
ss(g207
g256
tp1405
(dp1406
g30
I1
ss(S' '
g73
tp1407
(dp1408
g447
I1
sS','
I1
sS'.'
I1
ss(S'.'
g125
tp1409
(dp1410
S'I'
I1
ss(S'am'
p1411
g80
tp1412
(dp1413
g337
I1
ss(g793
g391
tp1414
(dp1415
g340
I1
ss(S','
g853
tp1416
(dp1417
g684
I1
sS'what'
p1418
I2
sS'I'
I1
sg687
I1
sg689
I1
sg693
I1
sg87
I1
sg694
I1
ss(S'indeed'
p1419
S';'
tp1420
(dp1421
g540
I1
ss(S'There'
p1422
g350
tp1423
(dp1424
S'a'
I1
sg905
I1
ss(S','
g861
tp1425
(dp1426
g406
I1
sS'is'
p1427
I1
ss(g266
S'.'
tp1428
(dp1429
S'\x00'
I1
ss(g796
g107
tp1430
(dp1431
g103
I1
ss(g911
g395
tp1432
(dp1433
g1013
I1
ss(g329
g717
tp1434
(dp1435
g236
I1
sg82
I1
ss(g854
g804
tp1436
(dp1437
S'the'
p1438
I1
ss(g50
g1187
tp1439
(dp1440
g357
I1
ss(S' '
g100
tp1441
(dp1442
g202
I4
ss(g163
S','
tp1443
(dp1444
g1313
I1
ss(g777
g54
tp1445
(dp1446
g637
I1
sg638
I1
ss(g465
S','
tp1447
(dp1448
S'Socrates'
p1449
I1
ss(g213
g502
tp1450
(dp1451
g517
I1
ss(g7
g294
tp1452
(dp1453
S'.'
I2
ss(g120
g67
tp1454
(dp1455
g754
I1
ss(g88
S','
tp1456
(dp1457
S'the'
p1458
I1
ss(g19
g26
tp1459
(dp1460
g493
I1
ss(g58
g109
tp1461
(dp1462
g820
I1
ss(g831
g1133
tp1463
(dp1464
g354
I1
ss(S'should'
p1465
g1103
tp1466
(dp1467
S'what'
p1468
I1
ss(S'he'
p1469
g406
tp1470
(dp1471
S'not'
p1472
I1
ss(g168
g138
tp1473
(dp1474
g266
I1
ss(S'them'
p1475
g392
tp1476
(dp1477
S'I'
I1
ss(S'a'
g268
tp1478
(dp1479
g834
I1
ss(g246
S'I'
tp1480
(dp1481
g65
I2
ss(S'Yes'
p1482
S','
tp1483
(dp1484
g1289
I1
sS'I'
I1
sg33
I2
sg854
I1
sS'Socrates'
p1485
I1
sg856
I1
ss(g708
g157
tp1486
(dp1487
g264
I1
sg196
I1
ss(g236
S','
tp1488
(dp1489
S'my'
p1490
I1
ss(g376
g911
tp1491
(dp1492
g395
I1
ss(g242
S'a'
tp1493
(dp1494
S'general'
p1495
I1
ss(S'And'
p1496
g431
tp1497
(dp1498
S'are'
p1499
I1
ss(g905
g465
tp1500
(dp1501
S','
I1
ss(g130
g43
tp1502
(dp1503
g36
I1
ss(g896
g198
tp1504
(dp1505
g260
I1
sg991
I1
ss(g30
g164
tp1506
(dp1507
g134
I1
ss(S','
g859
tp1508
(dp1509
g518
I1
sg516
I1
sg520
I1
ss(g224
S'?'
tp1510
(dp1511
S'\x00'
I1
ss(g116
g129
tp1512
(dp1513
S'a'
I1
ss(g1035
g159
tp1514
(dp1515
g215
I1
ss(g474
g234
tp1516
(dp1517
S','
I1
ss(S'I'
g220
tp1518
(dp1519
g1056
I1
ss(g1298
g246
tp1520
(dp1521
S'I'
I1
ss(g785
g1144
tp1522
(dp1523
g218
I1
ss(g542
g70
tp1524
(dp1525
g844
I1
ss(g435
g22
tp1526
(dp1527
S'?'
I1
ss(S','
g860
tp1528
(dp1529
g396
I1
ss(g48
g46
tp1530
(dp1531
S'.'
I1
ss(g67
g754
tp1532
(dp1533
g630
I1
ss(g292
S'.'
tp1534
(dp1535
S'\x00'
I1
ss(S','
g136
tp1536
(dp1537
S','
I1
ss(g35
g425
tp1538
(dp1539
S'I'
I1
ss(g89
S'a'
tp1540
(dp1541
g1108
I1
ss(g1016
g1032
tp1542
(dp1543
g490
I1
ss(S'I'
g331
tp1544
(dp1545
g939
I3
sg940
I1
ss(g187
g824
tp1546
(dp1547
g69
I1
ss(g210
g101
tp1548
(dp1549
g1171
I1
ss(g764
g94
tp1550
(dp1551
g831
I1
ss(g717
g236
tp1552
(dp1553
S','
I1
ss(g159
g215
tp1554
(dp1555
S','
I1
ss(g166
S':'
tp1556
(dp1557
g98
I1
ss(g68
S'.'
tp1558
(dp1559
S'\x00'
I1
ss(g331
g940
tp1560
(dp1561
g716
I1
ss(g118
g585
tp1562
(dp1563
g17
I1
ss(g515
g116
tp1564
(dp1565
g129
I1
ss(g638
S'.'
tp1566
(dp1567
S'\x00'
I1
ss(g91
g1150
tp1568
(dp1569
g353
I1
ss(S':'
g98
tp1570
(dp1571
S'I'
I1
ss(g31
S';'
tp1572
(dp1573
g204
I1
ss(S';'
g204
tp1574
(dp1575
g231
I1
ss(g1006
g356
tp1576
(dp1577
S'.'
I1
ss(g155
g248
tp1578
(dp1579
g646
I1
ss(g743
S'.'
tp1580
(dp1581
S'\x00'
I1
ss(g286
S';'
tp1582
(dp1583
S'and'
p1584
I1
ss(g185
g884
tp1585
(dp1586
g200
I1
ss(g313
g291
tp1587
(dp1588
g967
I1
ss(S'I'
g216
tp1589
(dp1590
S','
I1
ss(g269
g1084
tp1591
(dp1592
S'be'
p1593
I1
ss(g183
S','
tp1594
(dp1595
g861
I1
ss(g141
g210
tp1596
(dp1597
g101
I1
ss(g287
S'.'
tp1598
(dp1599
S'\x00'
I1
ss(S' '
g278
tp1600
(dp1601
g206
I1
sg249
I2
sg481
I1
sg482
I1
ss(S'you'
p1602
g629
tp1603
(dp1604
g78
I1
ss(S' '
g144
tp1605
(dp1606
S'.'
I1
ss(S'He'
p1607
g777
tp1608
(dp1609
g346
I1
sg54
I1
ss(S'opinion'
p1610
S','
tp1611
(dp1612
S'Socrates'
p1613
I1
ss(g1112
g176
tp1614
(dp1615
S'.'
I1
ss(g928
g546
tp1616
(dp1617
g258
I1
ss(g170
g89
tp1618
(dp1619
S'a'
I1
ss(g299
g211
tp1620
(dp1621
S'.'
I1
ss(g853
g693
tp1622
(dp1623
g57
I1
sS'same'
p1624
I1
ss(g13
S';'
tp1625
(dp1626
S'and'
p1627
I1
ss(g150
g254
tp1628
(dp1629
S','
I1
ss(g152
g726
tp1630
(dp1631
S'.'
I1
ss(g778
g180
tp1632
(dp1633
g743
I1
ss(g69
g664
tp1634
(dp1635
g171
I1
ss(S','
g72
tp1636
(dp1637
S'I'
I1
sg55
I1
ss(S'and'
p1638
g683
tp1639
(dp1640
g1052
I1
ss(g164
g134
tp1641
(dp1642
g41
I1
ss(S'a'
g49
tp1643
(dp1644
g1122
I1
ss(g718
g607
tp1645
(dp1646
g1031
I1
ss(g922
g910
tp1647
(dp1648
S'.'
I1
ss(S','
g12
tp1649
(dp1650
g659
I1
ss(g519
g313
tp1651
(dp1652
g291
I1
ss(g105
S'.'
tp1653
(dp1654
S'\x00'
I1
ss(S'Socrates'
p1655
S'.'
tp1656
(dp1657
g90
I1
sS'\x00'
I7
sg77
I1
ss(g1177
g658
tp1658
(dp1659
g295
I1
ss(S'can'
p1660
g140
tp1661
(dp1662
g671
I1
ss(g730
g1025
tp1663
(dp1664
g244
I1
ss(g526
g1024
tp1665
(dp1666
S'I'
I1
ss(g807
g919
tp1667
(dp1668
S','
I1
sS'.'
I1
ss(g392
S'I'
tp1669
(dp1670
S'myself'
p1671
I1
ss(g136
S','
tp1672
(dp1673
g20
I1
ss(g294
S'.'
tp1674
(dp1675
S'\x00'
I2
ss(g189
S'.'
tp1676
(dp1677
S'\x00'
I1
ss(S'Homer'
p1678
g1053
tp1679
(dp1680
S'any'
p1681
I1
ss(g250
g1019
tp1682
(dp1683
g692
I1
ss(g487
g850
tp1684
(dp1685
S'.'
I1
ss(g539
g162
tp1686
(dp1687
g11
I1
ss(g1061
g64
tp1688
(dp1689
S'I'
I1
ss(g901
g688
tp1690
(dp1691
g1140
I1
ss(S','
g858
tp1692
(dp1693
g821
I1
ss(g255
g167
tp1694
(dp1695
g1147
I1
ss(S'A'
g287
tp1696
(dp1697
S'.'
I1
ss(g821
g74
tp1698
(dp1699
g13
I1
ss(g244
g457
tp1700
(dp1701
S'be'
p1702
I1
ss(g222
g76
tp1703
(dp1704
S';'
I1
ss(g532
g192
tp1705
(dp1706
S'.'
I1
ss(g260
g63
tp1707
(dp1708
S'I'
I1
ss(g16
g366
tp1709
(dp1710
g15
I1
ss(g1150
g353
tp1711
(dp1712
S','
I1
ss(g904
S','
tp1713
(dp1714
S'Socrates'
p1715
I1
ss(g799
S'.'
tp1716
(dp1717
g125
I1
ss(g27
g238
tp1718
(dp1719
g44
I1
ss(g692
g227
tp1720
(dp1721
g274
I1
ss(S','
g60
tp1722
(dp1723
g174
I1
sg708
I1
sg190
I1
ss(g396
g93
tp1724
(dp1725
g305
I1
ss(g145
g1003
tp1726
(dp1727
g515
I1
ss(g1109
g1073
tp1728
(dp1729
g685
I1
ss(g321
g631
tp1730
(dp1731
S','
I1
ss(g171
S','
tp1732
(dp1733
g1219
I1
ss(S','
g862
tp1734
(dp1735
g262
I1
ss(g284
S','
tp1736
(dp1737
S'and'
p1738
I1
ss(g437
g554
tp1739
(dp1740
S'say'
p1741
I1
ss(g205
S'a'
tp1742
(dp1743
g148
I1
ss(g92
g23
tp1744
(dp1745
g377
I1
ss(S'and'
p1746
S'I'
tp1747
(dp1748
g201
I1
sg233
I3
ss(S' '
g194
tp1749
(dp1750
g9
I1
ss(S','
g156
tp1751
(dp1752
S','
I1
ss(g337
g355
tp1753
(dp1754
g611
I1
ss(g274
S'.'
tp1755
(dp1756
S'\x00'
I1
ss(g63
S'I'
tp1757
(dp1758
g152
I1
ss(g641
g147
tp1759
(dp1760
g62
I1
ss(g1627
g691
tp1761
(dp1762
g376
I1
ss(g280
g267
tp1763
(dp1764
S'.'
I1
ss(g117
g298
tp1765
(dp1766
g168
I1
ss(S'nor'
p1767
g174
tp1768
(dp1769
S','
I1
ss(S'I'
g209
tp1770
(dp1771
g158
I1
ss(S'a'
g126
tp1772
(dp1773
g316
I1
ss(g131
g593
tp1774
(dp1775
g251
I1
ss(g1273
g939
tp1776
(dp1777
g242
I1
sg927
I1
sg929
I2
ss(g267
S'.'
tp1778
(dp1779
S'\x00'
I1
ss(S'but'
p1780
g56
tp1781
(dp1782
g928
I1
ss(g608
g127
tp1783
(dp1784
S'-'
I1
ss(g1050
g85
tp1785
(dp1786
S','
I1
ss(g262
S'I'
tp1787
(dp1788
S'do'
p1789
I1
sg1262
I1
ss(g545
g1049
tp1790
(dp1791
g1034
I1
ss(S'.'
g77
tp1792
(dp1793
S'I'
I1
ss(g45
S','
tp1794
(dp1795
g60
I1
ss(g517
g166
tp1796
(dp1797
S':'
I1
sg563
I1
ss(g632
S';'
tp1798
(dp1799
g539
I1
ss(g288
S','
tp1800
(dp1801
S'Socrates'
p1802
I1
ss(g162
g11
tp1803
(dp1804
g47
I1
ss(S'shall'
p1805
g1180
tp1806
(dp1807
g1177
I1
ss(S'I'
g201
tp1808
(dp1809
g207
I1
ss(g157
g196
tp1810
(dp1811
g271
I1
ss(S'a'
g289
tp1812
(dp1813
g815
I1
ss(g1132
g16
tp1814
(dp1815
g366
I1
ss(S'No'
p1816
S'.'
tp1817
(dp1818
S'\x00'
I1
ss(S'should'
p1819
g111
tp1820
(dp1821
S','
I1
ss(S'sure'
p1822
g1008
tp1823
(dp1824
S'I'
I1
ss(g235
g574
tp1825
(dp1826
S'to'
p1827
I1
ss(S'the'
p1828
g131
tp1829
(dp1830
g593
I1
ss(g340
g163
tp1831
(dp1832
S','
I1
ss(S','
g865
tp1833
(dp1834
g84
I1
sg187
I1
ss(g540
g184
tp1835
(dp1836
g555
I1
ss(g1702
g945
tp1837
(dp1838
g58
I1
ss(g137
g199
tp1839
(dp1840
g277
I1
ss(S'The'
p1841
g249
tp1842
(dp1843
S','
I1
sS'.'
I1
ss(S','
g102
tp1844
(dp1845
g61
I1
ss(g855
g751
tp1846
(dp1847
g118
I1
ss(S'I'
g241
tp1848
(dp1849
g137
I1
sS','
I1
sg435
I1
ss(S'I'
g132
tp1850
(dp1851
g641
I1
ss(g1108
g496
tp1852
(dp1853
S'.'
I1
ss(g62
g558
tp1854
(dp1855
S'all'
p1856
I1
ss(g356
S'.'
tp1857
(dp1858
S'\x00'
I1
ss(g689
g281
tp1859
(dp1860
g614
I1
ss(g751
g118
tp1861
(dp1862
g585
I1
ss(g133
g250
tp1863
(dp1864
g1019
I1
ss(g265
g108
tp1865
(dp1866
S','
I1
ss(S'I'
g146
tp1867
(dp1868
g620
I1
ss(S','
g259
tp1869
(dp1870
S'.'
I1
ss(g330
g1102
tp1871
(dp1872
S','
I1
ss(g355
g611
tp1873
(dp1874
g764
I1
ss(g96
g321
tp1875
(dp1876
g631
I1
ss(g1141
S':'
tp1877
(dp1878
g997
I1
ss(S'know'
p1879
g638
tp1880
(dp1881
S'.'
I1
ss(g190
g416
tp1882
(dp1883
g38
I1
ss(S';'
g195
tp1884
(dp1885
g56
I1
sg369
I1
sg165
I1
ss(g300
S'.'
tp1886
(dp1887
S'\x00'
I1
ss(S'only'
p1888
g469
tp1889
(dp1890
S'I'
I1
ss(g20
g1076
tp1891
(dp1892
g173
I1
ss(g147
g62
tp1893
(dp1894
g558
I1
ss(g729
g31
tp1895
(dp1896
S';'
I1
sg469
I1
ss(g10
g37
tp1897
(dp1898
g21
I1
ss(g239
g532
tp1899
(dp1900
g192
I1
ss(g135
g1016
tp1901
(dp1902
g1032
I1
ss(g1187
g357
tp1903
(dp1904
g434
I1
ss(g1089
g750
tp1905
(dp1906
g50
I1
ss(g516
g909
tp1907
(dp1908
g185
I1
ss(S'The'
p1909
g481
tp1910
(dp1911
g713
I1
ss(S':'
g997
tp1912
(dp1913
S'I'
I1
ss(g188
g123
tp1914
(dp1915
g106
I1
ss(g1052
g1112
tp1916
(dp1917
g176
I1
ss(S'a'
g235
tp1918
(dp1919
S';'
I1
sg574
I1
ss(g29
g203
tp1920
(dp1921
g245
I1
ss(S'To'
p1922
g731
tp1923
(dp1924
S'sure'
p1925
I1
ss(g215
S','
tp1926
(dp1927
g12
I1
ss(g1427
g908
tp1928
(dp1929
g1256
I1
ss(g1856
S','
tp1930
(dp1931
g1655
I1
ss(g1076
g173
tp1932
(dp1933
g35
I1
ss(g614
S'.'
tp1934
(dp1935
S'\x00'
I2
ss(g295
g950
tp1936
(dp1937
g280
I1
ss(S' '
g114
tp1938
(dp1939
g777
I2
sg778
I1
sg161
I1
ss(S'well'
p1940
g608
tp1941
(dp1942
g127
I1
ss(g967
g186
tp1943
(dp1944
S','
I2
ss(g1499
g749
tp1945
(dp1946
g680
I1
ss(g238
g44
tp1947
(dp1948
g257
I1
ss(g211
S'.'
tp1949
(dp1950
S'\x00'
I1
ss(S';'
g541
tp1951
(dp1952
g547
I1
ss(g380
S';'
tp1953
(dp1954
S'for'
p1955
I1
ss(g276
g1000
tp1956
(dp1957
g224
I1
ss(g113
g181
tp1958
(dp1959
S','
I1
ss(g285
g1038
tp1960
(dp1961
S'my'
p1962
I1
ss(g94
g831
tp1963
(dp1964
g1133
I1
ss(g111
S','
tp1965
(dp1966
g860
I1
ss(g39
g896
tp1967
(dp1968
S'say'
p1969
I3
sg198
I1
ss(S'I'
g296
tp1970
(dp1971
g175
I1
ss(g1081
g545
tp1972
(dp1973
g1049
I1
ss(g864
g308
tp1974
(dp1975
S'of'
p1976
I1
ss(S'Certainly'
p1977
S'.'
tp1978
(dp1979
S'\x00'
I1
ss(g944
g1006
tp1980
(dp1981
g356
I1
ss(S';'
g10
tp1982
(dp1983
g37
I1
ss(S' '
g149
tp1984
(dp1985
g1161
I2
sS','
I2
sS'.'
I1
ss(g1326
g799
tp1986
(dp1987
S'.'
I1
ss(g620
g521
tp1988
(dp1989
g228
I1
ss(g106
S'.'
tp1990
(dp1991
S'\x00'
I1
ss(g70
g844
tp1992
(dp1993
g1879
I1
ss(g837
g990
tp1994
(dp1995
g1028
I1
ss(g593
g251
tp1996
(dp1997
S'.'
I1
ss(g99
g922
tp1998
(dp1999
g906
I1
sg904
I1
sg910
I1
ss(S'-'
g182
tp2000
(dp2001
g326
I1
ss(g73
S'.'
tp2002
(dp2003
S'\x00'
I1
ss(S'is'
p2004
g904
tp2005
(dp2006
S','
I1
ss(g939
g929
tp2007
(dp2008
g719
I1
sg718
I1
ss(g234
S','
tp2009
(dp2010
S'and'
p2011
I1
ss(g671
S'.'
tp2012
(dp2013
S'\x00'
I1
ss(g165
g14
tp2014
(dp2015
S','
I1
ss(S'the'
p2016
g68
tp2017
(dp2018
S'.'
I1
ss(g40
g300
tp2019
(dp2020
S'.'
I1
ss(g221
S'.'
tp2021
(dp2022
S'\x00'
I2
ss(S'He'
p2023
g161
tp2024
(dp2025
S':'
I1
ss(g1490
g84
tp2026
(dp2027
g97
I1
ss(g353
S','
tp2028
(dp2029
S'Socrates'
p2030
I1
sg863
I1
ss(g521
g228
tp2031
(dp2032
g28
I1
ss(g129
S'a'
tp2033
(dp2034
g92
I1
ss(g296
g175
tp2035
(dp2036
g213
I1
ss(g716
g1129
tp2037
(dp2038
g1342
I1
ss(g85
S','
tp2039
(dp2040
S'I'
I1
ss(S'and'
p2041
g694
tp2042
(dp2043
S'I'
I1
sg987
I1
ss(S'Clearly'
p2044
g447
tp2045
(dp2046
S'same'
p2047
I1
ss(g243
g230
tp2048
(dp2049
g460
I1
ss(g1013
g34
tp2050
(dp2051
S'.'
I1
ss(g230
g460
tp2052
(dp2053
S','
I1
ss(g51
S'.'
tp2054
(dp2055
S'\x00'
I1
ss(g197
g871
tp2056
(dp2057
g222
I1
ss(S','
g33
tp2058
(dp2059
S','
I2
ss(g863
g788
tp2060
(dp2061
g634
I1
ss(g204
g231
tp2062
(dp2063
g908
I1
sg232
I1
ss(g169
g183
tp2064
(dp2065
S','
I1
ss(g14
S','
tp2066
(dp2067
g72
I1
ss(g82
S'I'
tp2068
(dp2069
g1385
I1
ss(S'am'
p2070
g285
tp2071
(dp2072
g1038
I1
ss(S'I'
g329
tp2073
(dp2074
g717
I1
ss(g1738
g689
tp2075
(dp2076
g281
I1
ss(g25
g1166
tp2077
(dp2078
S'I'
I1
ss(S'a'
g1108
tp2079
(dp2080
g496
I1
ss(S' '
g155
tp2081
(dp2082
g248
I1
sg350
I2
ss(S'and'
p2083
g104
tp2084
(dp2085
S'I'
I1
ss(g857
g322
tp2086
(dp2087
S'I'
I1
ss(g112
g110
tp2088
(dp2089
g868
I1
ss(g143
S';'
tp2090
(dp2091
S'and'
p2092
I1
sg541
I1
ss(g291
g967
tp2093
(dp2094
g186
I1
ss(g151
g505
tp2095
(dp2096
g1189
I1
ss(S'I'
g117
tp2097
(dp2098
g298
I1
ss(S'speak'
p2099
g718
tp2100
(dp2101
g607
I1
ss(g1144
g218
tp2102
(dp2103
g526
I1
ss(g990
g1028
tp2104
(dp2105
S'of'
p2106
I1
ss(g231
g232
tp2107
(dp2108
g188
I1
ss(g1802
S','
tp2109
(dp2110
g119
I1
sg862
I1
sS'I'
I2
sg858
I1
sS'in'
p2111
I1
sg864
I2
sS'where'
p2112
I1
ss(g377
g499
tp2113
(dp2114
g253
I1
ss(g436
g135
tp2115
(dp2116
g1016
I1
ss(S'not'
p2117
g927
tp2118
(dp2119
S'that'
p2120
I1
ss(g104
S'I'
tp2121
(dp2122
g120
I1
ss(g1033
g261
tp2123
(dp2124
g179
I1
sg799
I1
ss(S'say'
p2125
S'.'
tp2126
(dp2127
S'\x00'
I1
ss(g108
S','
tp2128
(dp2129
S'Socrates'
p2130
I1
ss(g217
S'?'
tp2131
(dp2132
S'\x00'
I1
ss(g219
g130
tp2133
(dp2134
g43
I1
ss(g757
g1033
tp2135
(dp2136
g261
I1
ss(S'I'
g120
tp2137
(dp2138
g67
I1
ss(g633
g436
tp2139
(dp2140
g135
I1
ss(S'.'
g90
tp2141
(dp2142
S'I'
I1
ss(g28
g229
tp2143
(dp2144
g205
I1
ss(S'should'
p2145
g243
tp2146
(dp2147
g230
I1
ss(g198
g260
tp2148
(dp2149
g63
I1
ss(g220
g1056
tp2150
(dp2151
g1888
I1
ss(g208
g40
tp2152
(dp2153
g300
I1
ss(g245
g282
tp2154
(dp2155
S';'
I1
ss(g229
g205
tp2156
(dp2157
S'a'
I1
ss(g154
g891
tp2158
(dp2159
S'you'
p2160
I1
ss(g144
S'.'
tp2161
(dp2162
S'\x00'
I1
ss(g121
g1132
tp2163
(dp2164
g16
I1
sS'have'
p2165
I1
ss(g310
S'.'
tp2166
(dp2167
S'\x00'
I1
ss(g109
g820
tp2168
(dp2169
S'.'
I1
ss(g172
g529
tp2170
(dp2171
g273
I1
ss(g482
S'.'
tp2172
(dp2173
S'\x00'
I3
ss(S'am'
p2174
g1141
tp2175
(dp2176
S':'
I1
ss(S'am'
p2177
g145
tp2178
(dp2179
g1003
I1
ss(g17
g474
tp2180
(dp2181
g234
I1
ss(g691
g376
tp2182
(dp2183
g911
I1
ss(g110
g868
tp2184
(dp2185
g45
I1
ss(g323
g907
tp2186
(dp2187
g1081
I1
ss(S'I'
g233
tp2188
(dp2189
g75
I1
sg285
I1
sg80
I1
sg128
I2
sg193
I1
sg145
I1
sg1141
I1
ss(g195
g165
tp2190
(dp2191
g14
I1
ss(g237
g729
tp2192
(dp2193
g31
I1
ss(g1140
g699
tp2194
(dp2195
S'and'
p2196
I1
ss(g611
g764
tp2197
(dp2198
g94
I1
ss(g228
g28
tp2199
(dp2200
g229
I1
ss(g350
g905
tp2201
(dp2202
g465
I1
ss(g283
g96
tp2203
(dp2204
g321
I1
ss(g1458
g32
tp2205
(dp2206
S','
I1
ss(g629
g78
tp2207
(dp2208
g1089
I1
ss(g98
S'I'
tp2209
(dp2210
g151
I1
sg209
I1
ss(g209
g158
tp2211
(dp2212
g272
I1
ss(g658
g295
tp2213
(dp2214
g950
I1
ss(g619
g399
tp2215
(dp2216
g115
I1
ss(g179
S';'
tp2217
(dp2218
S'but'
p2219
I1
ss(g508
g83
tp2220
(dp2221
S','
I1
ss(S'That'
p2222
g225
tp2223
(dp2224
g275
I1
ss(g1115
g221
tp2225
(dp2226
S'.'
I1
ss(g37
g21
tp2227
(dp2228
g172
I1
ss(S','
g169
tp2229
(dp2230
g183
I1
ss(S'No'
p2231
g847
tp2232
(dp2233
S';'
I1
sS','
I2
ss(g460
S','
tp2234
(dp2235
S'Socrates'
p2236
I1
ss(g2160
g632
tp2237
(dp2238
S';'
I1
sg748
I1
sg749
I1
ss(S'I'
g332
tp2239
(dp2240
g270
I2
ss(g115
g943
tp2241
(dp2242
g105
I1
sS'reason'
p2243
I1
ss(S'I'
g219
tp2244
(dp2245
g140
I1
sg130
I1
ss(g637
S'a'
tp2246
(dp2247
g289
I1
sg24
I1
sg268
I1
sg49
I1
sg235
I1
sg1109
I1
sg122
I1
ss(g156
S','
tp2248
(dp2249
g136
I1
ss(g395
g1013
tp2250
(dp2251
g34
I1
ss(g102
g61
tp2252
(dp2253
S'.'
I1
ss(g61
S'.'
tp2254
(dp2255
S'\x00'
I1
ss(g192
S'.'
tp2256
(dp2257
S'\x00'
I1
ss(g502
g517
tp2258
(dp2259
g633
I1
sg632
I1
sg166
I1
ss(g182
g326
tp2260
(dp2261
g1027
I1
ss(S' '
g86
tp2262
(dp2263
g177
I1
ss(g1495
S';'
tp2264
(dp2265
S'and'
p2266
I1
ss(S'have'
p2267
g137
tp2268
(dp2269
g199
I1
ss(g97
g133
tp2270
(dp2271
g250
I1
ss(g15
g874
tp2272
(dp2273
g690
I1
ss(g93
g305
tp2274
(dp2275
S'a'
I1
ss(S'a'
g24
tp2276
(dp2277
g454
I1
ss(S'I'
g71
tp2278
(dp2279
g121
I1
ss(g1026
g25
tp2280
(dp2281
g1166
I1
ss(g2112
g55
tp2282
(dp2283
g223
I1
ss(g366
g15
tp2284
(dp2285
g874
I1
ss(g298
g168
tp2286
(dp2287
g138
I1
ss(g36
g288
tp2288
(dp2289
g608
I1
sS','
I1
ss(g256
g30
tp2290
(dp2291
g164
I1
ss(g547
g142
tp2292
(dp2293
g170
I1
sS','
I1
ss(S','
g855
tp2294
(dp2295
g751
I1
ss(S'a'
g148
tp2296
(dp2297
g81
I1
ss(g142
g170
tp2298
(dp2299
g89
I1
ss(S','
g857
tp2300
(dp2301
g322
I1
ss(g83
S','
tp2302
(dp2303
S'and'
p2304
I1
ss(S'The'
p2305
g206
tp2306
(dp2307
S'.'
I1
ss(S' '
S'O'
tp2308
(dp2309
g18
I1
ss(g49
g1122
tp2310
(dp2311
S'what'
p2312
I1
ss(g442
g66
tp2313
(dp2314
g785
I1
ss(g232
g188
tp2315
(dp2316
g123
I1
ss(S'true'
p2317
S':'
tp2318
(dp2319
S'\x00'
I1
ss(g26
g493
tp2320
(dp2321
g1026
I1
ss(g1073
g685
tp2322
(dp2323
S'a'
I5
ss(g60
g190
tp2324
(dp2325
g416
I1
ss(S'?'
S'\x00'
tp2326
(dp2327
S'\x00'
I12
ss(g750
g50
tp2328
(dp2329
g1187
I1
ss(S'must'
p2330
g807
tp2331
(dp2332
g919
I1
ss(g47
g508
tp2333
(dp2334
g83
I1
ss(S','
g854
tp2335
(dp2336
g804
I1
ss(g167
g1147
tp2337
(dp2338
g407
I1
ss(g119
S'I'
tp2339
(dp2340
g71
I1
ss(S','
S'I'
tp2341
(dp2342
g1259
I1
sg154
I1
sg330
I1
sg297
I1
sg2267
I1
sg2330
I1
ss(g177
g380
tp2343
(dp2344
S';'
I1
ss(g42
S'I'
tp2345
(dp2346
g216
I1
ss(g214
g240
tp2347
(dp2348
g301
I1
ss(g114
g778
tp2349
(dp2350
g180
I1
ss(g8
g59
tp2351
(dp2352
g1174
I1
ss(S'am'
p2353
g193
tp2354
(dp2355
g877
I1
ss(g174
S','
tp2356
(dp2357
S'nor'
p2358
I1
ss(g680
S','
tp2359
(dp2360
S'Socrates'
p2361
I1
ss(S','
g119
tp2362
(dp2363
S'I'
I1
ss(g943
g105
tp2364
(dp2365
S'.'
I1
ss(g206
S'.'
tp2366
(dp2367
S'\x00'
I1
ss(g134
g41
tp2368
(dp2369
g29
I1
sg1051
I1
sg1053
I1
ss(S'that'
p2370
g520
tp2371
(dp2372
g88
I1
ss(S'is'
p2373
S'a'
tp2374
(dp2375
g126
I1
ss(g289
g815
tp2376
(dp2377
S'what'
p2378
I1
ss(g322
S'I'
tp2379
(dp2380
g217
I1
ss(g184
g555
tp2381
(dp2382
g1066
I1
ss(g160
S','
tp2383
(dp2384
g2041
I1
ss(g1741
g918
tp2385
(dp2386
g1678
I1
ss(g196
g271
tp2387
(dp2388
g113
I1
ss(g53
S'.'
tp2389
(dp2390
S'\x00'
I2
ss(g859
g518
tp2391
(dp2392
g345
I1
ss(g1147
g407
tp2393
(dp2394
S'?'
I1
ss(g1019
g692
tp2395
(dp2396
g227
I1
ss(g281
g614
tp2397
(dp2398
S'.'
I1
ss(S'No'
p2399
S';'
tp2400
(dp2401
S'I'
I1
sg542
I1
ss(g87
g796
tp2402
(dp2403
g107
I1
ss(g865
g187
tp2404
(dp2405
g824
I1
ss(g200
g810
tp2406
(dp2407
g932
I1
ss(g173
g35
tp2408
(dp2409
g425
I1
ss(g2120
S'.'
tp2410
(dp2411
S'\x00'
I1
ss(S' '
g265
tp2412
(dp2413
g108
I1
sS','
I2
ss(S';'
g539
tp2414
(dp2415
S'I'
I1
sg162
I1
sg246
I1
ss(g22
S'?'
tp2416
(dp2417
S'\x00'
I1
ss(S'a'
g92
tp2418
(dp2419
g23
I1
ss(g44
g257
tp2420
(dp2421
g1095
I1
ss(g909
g185
tp2422
(dp2423
g884
I1
ss(g271
g113
tp2424
(dp2425
g181
I1
ss(g1247
g748
tp2426
(dp2427
S'.'
I1
ss(g2243
S'.'
tp2428
(dp2429
S'\x00'
I1
ss(g90
S'I'
tp2430
(dp2431
g2070
I1
ss(S','
g290
tp2432
(dp2433
g1115
I1
ss(g945
g58
tp2434
(dp2435
g109
I1
ss(g38
S','
tp2436
(dp2437
g1767
I1
ss(g201
g207
tp2438
(dp2439
g256
I1
ss(g1003
g515
tp2440
(dp2441
g116
I1
ss(g546
g258
tp2442
(dp2443
g178
I1
sS'.'
I2
ss(g193
g877
tp2444
(dp2445
g286
I1
ss(S'Certainly'
p2446
g1161
tp2447
(dp2448
S'.'
I2
ss(g976
g212
tp2449
(dp2450
S'.'
I1
ss(g2219
g369
tp2451
(dp2452
g657
I1
ss(g1593
g944
tp2453
(dp2454
g1006
I1
sS','
I1
ss(g139
g837
tp2455
(dp2456
g990
I1
ss(g305
S'a'
tp2457
(dp2458
g189
I1
ss(g264
g757
tp2459
(dp2460
g1033
I1
ss(g9
S','
tp2461
(dp2462
S'I'
I1
ss(S'.'
S'\x00'
tp2463
(dp2464
S'\x00'
I237
ss(g520
g88
tp2465
(dp2466
S','
I1
ss(g138
g266
tp2467
(dp2468
S'.'
I1
ss(S'charioteer'
p2469
S'.'
tp2470
(dp2471
S'\x00'
I1
ss(g874
g690
tp2472
(dp2473
g79
I1
sg276
I1
sg437
I1
ss(g180
g743
tp2474
(dp2475
S'.'
I1
ss(g75
g590
tp2476
(dp2477
g7
I1
ss(g254
S','
tp2478
(dp2479
g853
I1
ss(g499
g253
tp2480
(dp2481
g596
I1
ss(S':'
S'\x00'
tp2482
(dp2483
S'\x00'
I6
ss(g991
g208
tp2484
(dp2485
g40
I1
ss(S'a'
g122
tp2486
(dp2487
S'.'
I1
ss(g273
g279
tp2488
(dp2489
g197
I1
ss(g687
S'I'
tp2490
(dp2491
g2174
I2
sg329
I1
ss(g1161
S'.'
tp2492
(dp2493
S'\x00'
I4
ss(g316
S','
tp2494
(dp2495
S'Socrates'
p2496
I1
ss(g199
g277
tp2497
(dp2498
S'a'
I1
ss(g178
g487
tp2499
(dp2500
g850
I1
ss(g929
g719
tp2501
(dp2502
g1940
I1
ss(S'I'
g217
tp2503
(dp2504
S'?'
I1
ss(S'I'
g152
tp2505
(dp2506
g726
I1
ss(g216
S','
tp2507
(dp2508
g102
I1
ss(g977
S','
tp2509
(dp2510
g2370
I1
ss(g332
g270
tp2511
(dp2512
g1180
I1
sg160
I1
ss(g33
S','
tp2513
(dp2514
S'I'
I1
sS'Socrates'
p2515
I3
ss(g101
g1171
tp2516
(dp2517
g519
I1
ss(g749
g680
tp2518
(dp2519
S','
I1
ss(S','
g20
tp2520
(dp2521
g1076
I1
ss(g263
g95
tp2522
(dp2523
g39
I1
ss(S';'
S'I'
tp2524
(dp2525
g296
I1
sS'do'
p2526
I1
ss(g149
S','
tp2527
(dp2528
S'Socrates'
p2529
I2
ss(g24
g454
tp2530
(dp2531
S'to'
p2532
I1
ss(g226
g686
tp2533
(dp2534
g8
I1
ss(g23
g377
tp2535
(dp2536
g499
I1
ss(g301
g901
tp2537
(dp2538
g688
I1
ss(g103
g740
tp2539
(dp2540
S'pity'
p2541
I1
ss(S'I'
g330
tp2542
(dp2543
g243
I1
sg1102
I1
sg1103
I1
sg111
I1
ss(g664
g171
tp2544
(dp2545
S','
I1
ss(S','
g27
tp2546
(dp2547
g238
I1
ss(g2165
g276
tp2548
(dp2549
g1000
I1
ss(S' '
g237
tp2550
(dp2551
g729
I1
sg730
I1
sg731
I1
ss(g871
g222
tp2552
(dp2553
g76
I1
ss(g52
S';'
tp2554
(dp2555
S'and'
p2556
I3
sS'I'
I1
sg10
I1
sg195
I2
ss(g227
g274
tp2557
(dp2558
S'.'
I1
ss(g2106
g82
tp2559
(dp2560
S'I'
I1
ss(S' '
g247
tp2561
(dp2562
g994
I1
ss(g357
g434
tp2563
(dp2564
S','
I1
ss(g683
g1052
tp2565
(dp2566
g1112
I1
ss(g84
g97
tp2567
(dp2568
g133
I1
ss(g153
S','
tp2569
(dp2570
g52
I1
sg1469
I1
sg859
I1
ss(S','
g864
tp2571
(dp2572
S'reason'
p2573
I1
sg308
I1
sg32
I1
ss(g127
S'-'
tp2574
(dp2575
g182
I1
ss(S'O'
g18
tp2576
(dp2577
S';'
I1
ss(g657
g1050
tp2578
(dp2579
g85
I1
ss(g202
S','
tp2580
(dp2581
S'Socrates'
p2582
I2
ss(g223
S'.'
tp2583
(dp2584
S'\x00'
I1
ss(g258
g178
tp2585
(dp2586
g487
I1
ss(g297
g214
tp2587
(dp2588
g240
I1
ss(S'one'
p2589
g264
tp2590
(dp2591
g757
I1
ss(g1925
S','
tp2592
(dp2593
S'Socrates'
p2594
I1
ss(S';'
g226
tp2595
(dp2596
g683
I1
sg191
I1
sS'I'
I2
sg686
I1
sg263
I2
sg691
I1
sg104
I1
sS'if'
p2597
I1
ss(g391
g340
tp2598
(dp2599
g163
I1
ss(g690
g79
tp2600
(dp2601
g252
I1
ss(g79
g252
tp2602
(dp2603
g466
I1
ss(g987
g139
tp2604
(dp2605
g837
I1
ss(g218
g526
tp2606
(dp2607
g1024
I1
ss(S','
g52
tp2608
(dp2609
S';'
I7
sS','
I9
sS'.'
I9
ss(g95
g39
tp2610
(dp2611
g896
I1
ss(g225
g275
tp2612
(dp2613
g91
I1
ss(g2358
g708
tp2614
(dp2615
g157
I1
ss(g563
g982
tp2616
(dp2617
g619
I1
ss(g518
g345
tp2618
(dp2619
S'the'
p2620
I1
sg944
I1
ss(g910
S'.'
tp2621
(dp2622
S'\x00'
I2
ss(g21
g172
tp2623
(dp2624
g529
I1
ss(g268
g834
tp2625
(dp2626
S'to'
p2627
I1
ss(S'Yes'
p2628
S'.'
tp2629
(dp2630
S'\x00'
I14
ss(g688
g1140
tp2631
(dp2632
g699
I1
ss(g158
g272
tp2633
(dp2634
g793
I1
ss(g77
S'I'
tp2635
(dp2636
g141
I1
ss(g241
S','
tp2637
(dp2638
g290
I1
ss(g18
S';'
tp2639
(dp2640
g226
I1
ss(g126
g316
tp2641
(dp2642
S','
I1
ss(g253
g596
tp2643
(dp2644
g1828
I1
ss(g1962
g150
tp2645
(dp2646
g254
I1
ss(g72
S'I'
tp2647
(dp2648
g117
I1
ss(g994
g309
tp2649
(dp2650
S','
I1
ss(g194
g9
tp2651
(dp2652
S','
I1
ss(g884
g200
tp2653
(dp2654
g810
I1
ss(g1032
g490
tp2655
(dp2656
S'.'
I1
ss(g66
g785
tp2657
(dp2658
g1144
I1
ss(g233
g75
tp2659
(dp2660
g590
I1
ss(S'I'
g151
tp2661
(dp2662
g505
I1
ss(g2556
g263
tp2663
(dp2664
g629
I1
sg95
I1
ss(g1049
g1034
tp2665
(dp2666
S'I'
I1
ss(g261
g179
tp2667
(dp2668
S';'
I1
ss(S' '
S'I'
tp2669
(dp2670
g132
I1
sg284
I1
sS'am'
p2671
I1
sg2145
I2
sg293
I1
sg219
I1
ss(g251
S'.'
tp2672
(dp2673
S'\x00'
I1
ss(g123
g106
tp2674
(dp2675
S'.'
I1
ss(g607
g1031
tp2676
(dp2677
S'I'
I1
ss(g146
g620
tp2678
(dp2679
g521
I1
sg1206
I1
ss(S'I'
g284
tp2680
(dp2681
S','
I1
sS'.'
I1
ss(S'I'
g141
tp2682
(dp2683
g807
I1
sg210
I1
ss(g46
S'.'
tp2684
(dp2685
S'\x00'
I1
ss(S' '
g53
tp2686
(dp2687
S'.'
I2
ss(S';'
g540
tp2688
(dp2689
g184
I1
ss(S'a'
g48
tp2690
(dp2691
g46
I1
ss(S'And'
p2692
g430
tp2693
(dp2694
g323
I1
ss(g57
g19
tp2695
(dp2696
g26
I1
ss(g78
g1089
tp2697
(dp2698
g750
I1
ss(g1196
g1051
tp2699
(dp2700
S'I'
I1
ss(g1174
g299
tp2701
(dp2702
g211
I1
ss(g1171
g519
tp2703
(dp2704
g313
I1
ss(g2597
g987
tp2705
(dp2706
g139
I1
ss(g124
g976
tp2707
(dp2708
g212
I1
ss(S' '
g153
tp2709
(dp2710
g847
I3
sS';'
I2
sS','
I3
sS'.'
I1
ss(g407
S'?'
tp2711
(dp2712
S'\x00'
I1
ss(g2573
g977
tp2713
(dp2714
S','
I1
ss(g2011
g684
tp2715
(dp2716
g1286
I1
ss(g278
g482
tp2717
(dp2718
S'.'
I1
ss(g132
g641
tp2719
(dp2720
g147
I1
ss(g1381
g563
tp2721
(dp2722
g982
I1
ss(S'a'
g189
tp2723
(dp2724
S'.'
I1
ss(g32
S','
tp2725
(dp2726
g855
I1
ss(g399
g115
tp2727
(dp2728
g943
I1
sg945
I1
ss(S'I'
g154
tp2729
(dp2730
g891
I1
ss(g71
g121
tp2731
(dp2732
g1132
I1
ss(g466
g1094
tp2733
(dp2734
g1035
I1
ss(g86
g177
tp2735
(dp2736
g380
I1
ss(g259
S'.'
tp2737
(dp2738
S'\x00'
I1
ss(S'is'
p2739
g906
tp2740
(dp2741
g1610
I1
ss(g493
g1026
tp2742
(dp2743
g25
I1
ss(g490
S'.'
tp2744
(dp2745
S'\x00'
I1
ss(g481
g713
tp2746
(dp2747
g51
I1
sg2016
I1
ss(g369
g657
tp2748
(dp2749
g1050
I1
ss(g686
g8
tp2750
(dp2751
g59
I1
sS','
I1
ss(g810
g932
tp2752
(dp2753
g269
I1
ss(g631
S','
tp2754
(dp2755
S'and'
p2756
I2
sS'Socrates'
p2757
I2
ss(g59
g1174
tp2758
(dp2759
g299
I1
ss(g76
S';'
tp2760
(dp2761
g1746
I1
ss(g856
S'a'
tp2762
(dp2763
g48
I1
ss(g858
g821
tp2764
(dp2765
g74
I1
ss(g590
g7
tp2766
(dp2767
g294
I2
ss(g107
g103
tp2768
(dp2769
g740
I1
ss(g748
S'.'
tp2770
(dp2771
S'\x00'
I1
ss(g860
g396
tp2772
(dp2773
g93
I1
ss(g1066
g310
tp2774
(dp2775
S'.'
I1
ss(g54
g637
tp2776
(dp2777
S'a'
I2
ss(g430
g323
tp2778
(dp2779
g907
I1
ss(g309
S','
tp2780
(dp2781
S'Socrates'
p2782
I1
ss(g43
g36
tp2783
(dp2784
g288
I1
ss(g12
g659
tp2785
(dp2786
g2589
I1
ss(g713
g51
tp2787
(dp2788
S'.'
I1
ss(g1166
S'I'
tp2789
(dp2790
g331
I1
sg1660
I1
sg220
I1
sg1465
I1
ss(g275
g91
tp2791
(dp2792
g1150
I1
ss(g212
S'.'
tp2793
(dp2794
S'\x00'
I1
ss(g1027
g124
tp2795
(dp2796
g976
I1
sg977
I1
sS'.'
I1
ssa(dp2797
(g487
g850
S'.'
tp2798
(dp2799
S'\x00'
I1
ss(g1678
g1053
g1681
tp2800
(dp2801
g1326
I1
ss(S'I'
g2174
g1141
tp2802
(dp2803
S':'
I1
ss(S' '
g1496
g431
tp2804
(dp2805
g1499
I1
ss(S'That'
p2806
g2004
g904
tp2807
(dp2808
S','
I1
ss(g1108
g496
S'.'
tp2809
(dp2810
S'\x00'
I1
ss(g297
g214
g240
tp2811
(dp2812
g301
I1
ss(g205
S'a'
g148
tp2813
(dp2814
g81
I1
ss(g151
g505
g1189
tp2815
(dp2816
g991
I1
ss(g245
g282
S';'
tp2817
(dp2818
g1232
I1
ss(S'I'
g330
g1102
tp2819
(dp2820
S','
I1
ss(g234
S','
g2011
tp2821
(dp2822
g684
I1
ss(g430
g323
g907
tp2823
(dp2824
g1081
I1
ss(g249
S','
g259
tp2825
(dp2826
S'.'
I1
ss(g1593
g944
g1006
tp2827
(dp2828
g356
I1
ss(g1066
g310
S'.'
tp2829
(dp2830
S'\x00'
I1
ss(g292
S'.'
S'\x00'
tp2831
(dp2832
S'\x00'
I2
ss(g2083
g104
S'I'
tp2833
(dp2834
g120
I1
ss(g1411
g80
g337
tp2835
(dp2836
g355
I1
ss(g2165
g276
g1000
tp2837
(dp2838
g224
I1
ss(g167
g1147
g407
tp2839
(dp2840
S'?'
I1
ss(g188
g123
g106
tp2841
(dp2842
S'.'
I1
ss(g252
g466
g1094
tp2843
(dp2844
g1035
I1
ss(S' '
g1909
g481
tp2845
(dp2846
g713
I1
ss(g173
g35
g425
tp2847
(dp2848
S'I'
I1
ss(g279
g197
g871
tp2849
(dp2850
g222
I1
ss(g114
g778
g180
tp2851
(dp2852
g743
I1
ss(g259
S'.'
S'\x00'
tp2853
(dp2854
S'\x00'
I2
ss(g1247
g748
S'.'
tp2855
(dp2856
S'\x00'
I1
ss(g196
g271
g113
tp2857
(dp2858
g181
I1
ss(g1638
g683
g1052
tp2859
(dp2860
g1112
I1
ss(g104
S'I'
g120
tp2861
(dp2862
g67
I1
ss(S'No'
p2863
g1419
S';'
tp2864
(dp2865
g540
I1
ss(S'-'
g182
g326
tp2866
(dp2867
g1027
I1
ss(g884
g200
g810
tp2868
(dp2869
g932
I1
ss(g9
S','
S'I'
tp2870
(dp2871
g330
I1
ss(S'That'
p2872
g2739
g906
tp2873
(dp2874
g1610
I1
ss(S','
g27
g238
tp2875
(dp2876
g44
I1
ss(g1738
g689
g281
tp2877
(dp2878
g614
I1
ss(g291
g967
g186
tp2879
(dp2880
S','
I1
ss(g1144
g218
g526
tp2881
(dp2882
g1024
I1
ss(S','
S'I'
g154
tp2883
(dp2884
g891
I1
ss(g165
g14
S','
tp2885
(dp2886
g72
I1
ss(g152
g726
S'.'
tp2887
(dp2888
S'I'
I1
ss(S' '
g86
g177
tp2889
(dp2890
g380
I1
ss(g357
g434
S','
tp2891
(dp2892
g863
I1
ss(S':'
g997
S'I'
tp2893
(dp2894
g1411
I1
ss(S';'
g2556
g263
tp2895
(dp2896
g629
I1
sg95
I1
ss(g837
g990
g1028
tp2897
(dp2898
g2106
I1
ss(g1469
g406
g1472
tp2899
(dp2900
S'.'
I1
ss(g793
g391
g340
tp2901
(dp2902
g163
I1
ss(g103
g740
g2541
tp2903
(dp2904
S','
I1
ss(g96
g321
g631
tp2905
(dp2906
S','
I1
ss(g66
g785
g1144
tp2907
(dp2908
g218
I1
ss(g515
g116
g129
tp2909
(dp2910
S'a'
I1
ss(g147
g62
g558
tp2911
(dp2912
g1856
I1
ss(S','
g858
g821
tp2913
(dp2914
g74
I1
ss(S'a'
g92
g23
tp2915
(dp2916
g377
I1
ss(g1702
g945
g58
tp2917
(dp2918
g109
I1
ss(S'I'
g217
S'?'
tp2919
(dp2920
S'\x00'
I1
ss(g659
g2589
g264
tp2921
(dp2922
g757
I1
ss(g1049
g1034
S'I'
tp2923
(dp2924
g1262
I1
ss(g326
g1027
g124
tp2925
(dp2926
g976
I1
ss(g542
g70
g844
tp2927
(dp2928
g1879
I1
ss(g171
S','
g1219
tp2929
(dp2930
g687
I1
ss(g810
g932
g269
tp2931
(dp2932
g1084
I1
ss(g243
g230
g460
tp2933
(dp2934
S','
I1
ss(g1627
g691
g376
tp2935
(dp2936
g911
I1
ss(g86
g177
g380
tp2937
(dp2938
S';'
I1
ss(g1171
g519
g313
tp2939
(dp2940
g291
I1
ss(g1161
S'.'
S'\x00'
tp2941
(dp2942
S'\x00'
I8
ss(g166
S':'
g98
tp2943
(dp2944
S'I'
I1
ss(g633
g436
g135
tp2945
(dp2946
g1016
I1
ss(g55
g223
S'.'
tp2947
(dp2948
S'\x00'
I1
ss(g632
S';'
g539
tp2949
(dp2950
g162
I1
ss(S';'
g541
g547
tp2951
(dp2952
g142
I1
ss(g1922
g731
g1925
tp2953
(dp2954
S','
I1
ss(g1140
g699
g2196
tp2955
(dp2956
g2165
I1
ss(g24
g454
g2532
tp2957
(dp2958
g1969
I1
ss(g133
g250
g1019
tp2959
(dp2960
g692
I1
ss(S' '
g149
S','
tp2961
(dp2962
g2529
I2
ss(g30
g164
g134
tp2963
(dp2964
g41
I1
ss(g184
g555
g1066
tp2965
(dp2966
g310
I1
ss(g1816
S'.'
S'\x00'
tp2967
(dp2968
S'\x00'
I2
ss(g129
S'a'
g92
tp2969
(dp2970
g23
I1
ss(g910
S'.'
S'\x00'
tp2971
(dp2972
S'\x00'
I4
ss(g529
g273
g279
tp2973
(dp2974
g197
I1
ss(g16
g366
g15
tp2975
(dp2976
g874
I1
ss(g119
S'I'
g71
tp2977
(dp2978
g121
I1
ss(g2305
g206
S'.'
tp2979
(dp2980
S'\x00'
I1
ss(g637
S'a'
g1109
tp2981
(dp2982
g1073
I1
ss(S'I'
g297
g214
tp2983
(dp2984
g240
I1
ss(g1976
g2016
g68
tp2985
(dp2986
S'.'
I1
ss(g199
g277
S'a'
tp2987
(dp2988
g292
I1
ss(S'I'
g331
g940
tp2989
(dp2990
g716
I1
ss(g84
g97
g133
tp2991
(dp2992
g250
I1
ss(g465
S','
g1449
tp2993
(dp2994
S','
I1
ss(g29
g203
g245
tp2995
(dp2996
g282
I1
ss(S'I'
g1819
g111
tp2997
(dp2998
S','
I1
ss(g15
g874
g690
tp2999
(dp3000
g79
I1
ss(g416
g38
S','
tp3001
(dp3002
g1767
I1
ss(g355
g611
g764
tp3003
(dp3004
g94
I1
ss(g990
g1028
g2106
tp3005
(dp3006
g82
I1
ss(g280
g267
S'.'
tp3007
(dp3008
S'\x00'
I1
ss(g233
g75
g590
tp3009
(dp3010
g7
I1
ss(S','
g864
g308
tp3011
(dp3012
g1976
I1
ss(g804
g1438
g1624
tp3013
(dp3014
S'.'
I1
ss(g2556
g263
g95
tp3015
(dp3016
g39
I1
ss(S'Yes'
p3017
S','
g854
tp3018
(dp3019
g804
I1
ss(g906
g1610
S','
tp3020
(dp3021
g1613
I1
ss(S' '
g2044
g447
tp3022
(dp3023
g2047
I1
ss(S','
g1289
g516
tp3024
(dp3025
g909
I1
ss(g215
S','
g12
tp3026
(dp3027
g659
I1
ss(S'a'
g235
g574
tp3028
(dp3029
g1827
I1
ss(g474
g234
S','
tp3030
(dp3031
g2011
I1
ss(S'I'
g2145
g243
tp3032
(dp3033
g230
I1
ss(S'I'
g1660
g140
tp3034
(dp3035
g671
I1
ss(g909
g185
g884
tp3036
(dp3037
g200
I1
ss(g901
g688
g1140
tp3038
(dp3039
g699
I1
ss(g1141
S':'
g997
tp3040
(dp3041
S'I'
I1
ss(g590
g7
g294
tp3042
(dp3043
S'.'
I2
ss(g1109
g1073
g685
tp3044
(dp3045
S'a'
I1
ss(g1019
g692
g227
tp3046
(dp3047
g274
I1
ss(g2106
g82
S'I'
tp3048
(dp3049
g1385
I1
ss(g748
S'.'
S'\x00'
tp3050
(dp3051
S'\x00'
I2
ss(g160
S','
g2041
tp3052
(dp3053
g694
I1
ss(g1660
g140
g671
tp3054
(dp3055
S'.'
I1
ss(g442
g66
g785
tp3056
(dp3057
g1144
I1
ss(g117
g298
g168
tp3058
(dp3059
g138
I1
ss(g23
g377
g499
tp3060
(dp3061
g253
I1
ss(g1132
g16
g366
tp3062
(dp3063
g15
I1
ss(g110
g868
g45
tp3064
(dp3065
S','
I1
ss(S' '
g1607
g777
tp3066
(dp3067
g346
I1
sg54
I1
ss(g1076
g173
g35
tp3068
(dp3069
g425
I1
ss(g1879
g638
S'.'
tp3070
(dp3071
S'\x00'
I1
ss(g718
g607
g1031
tp3072
(dp3073
S'I'
I1
ss(g634
g1384
g1206
tp3074
(dp3075
g633
I1
ss(S'I'
g233
g75
tp3076
(dp3077
g590
I1
ss(g431
g1499
g749
tp3078
(dp3079
g680
I1
ss(S' '
S'I'
g2145
tp3080
(dp3081
g243
I1
sg111
I1
ss(g871
g222
g76
tp3082
(dp3083
S';'
I1
ss(g687
S'I'
g329
tp3084
(dp3085
g717
I1
ss(S'I'
g219
g130
tp3086
(dp3087
g43
I1
ss(g607
g1031
S'I'
tp3088
(dp3089
g1660
I1
ss(g1052
g1112
g176
tp3090
(dp3091
S'.'
I1
ss(g213
g502
g517
tp3092
(dp3093
g166
I1
ss(g208
g40
g300
tp3094
(dp3095
S'.'
I1
ss(g227
g274
S'.'
tp3096
(dp3097
S'\x00'
I1
ss(g94
g831
g1133
tp3098
(dp3099
g354
I1
ss(S','
g862
g262
tp3100
(dp3101
S'I'
I1
ss(g922
g910
S'.'
tp3102
(dp3103
S'\x00'
I1
ss(g608
g127
S'-'
tp3104
(dp3105
g182
I1
ss(g2515
S';'
S'I'
tp3106
(dp3107
g296
I1
ss(S';'
g1232
g191
tp3108
(dp3109
g112
I1
ss(S' '
g155
g248
tp3110
(dp3111
g646
I1
ss(g1187
g357
g434
tp3112
(dp3113
S','
I1
ss(g106
S'.'
S'\x00'
tp3114
(dp3115
S'\x00'
I2
ss(g1655
S'.'
S'\x00'
tp3116
(dp3117
S'\x00'
I14
ss(g58
g109
g820
tp3118
(dp3119
S'.'
I1
ss(S'O'
g18
S';'
tp3120
(dp3121
g226
I1
ss(g19
g26
g493
tp3122
(dp3123
g1026
I1
ss(g347
g442
g66
tp3124
(dp3125
g785
I1
ss(g1003
g515
g116
tp3126
(dp3127
g129
I1
ss(g2353
g193
g877
tp3128
(dp3129
g286
I1
ss(g821
g74
g13
tp3130
(dp3131
S';'
I1
ss(g257
g1095
g1196
tp3132
(dp3133
g1051
I1
ss(g619
g399
g115
tp3134
(dp3135
g943
I1
ss(S' '
g1211
S','
tp3136
(dp3137
g1214
I1
ss(g168
g138
g266
tp3138
(dp3139
S'.'
I1
ss(g134
g41
g29
tp3140
(dp3141
g203
I1
ss(S' '
S'I'
g284
tp3142
(dp3143
S','
I1
ss(S','
g854
g804
tp3144
(dp3145
g1438
I1
ss(g224
S'?'
S'\x00'
tp3146
(dp3147
S'\x00'
I2
ss(g874
g690
g79
tp3148
(dp3149
g252
I1
ss(g1977
S'.'
S'\x00'
tp3150
(dp3151
S'\x00'
I2
ss(g219
g130
g43
tp3152
(dp3153
g36
I1
ss(g144
S'.'
S'\x00'
tp3154
(dp3155
S'\x00'
I2
ss(g2145
g243
g230
tp3156
(dp3157
g460
I1
ss(g192
S'.'
S'\x00'
tp3158
(dp3159
S'\x00'
I2
ss(g41
g29
g203
tp3160
(dp3161
g245
I1
ss(g159
g215
S','
tp3162
(dp3163
g12
I1
ss(g50
g1187
g357
tp3164
(dp3165
g434
I1
ss(S' '
g42
S'I'
tp3166
(dp3167
g216
I1
ss(g67
g754
g630
tp3168
(dp3169
g347
I1
ss(S'I'
g152
g726
tp3170
(dp3171
S'.'
I1
ss(S' '
S'I'
g293
tp3172
(dp3173
g283
I1
ss(g2070
g285
g1038
tp3174
(dp3175
g1962
I1
ss(S'Very'
p3176
S'true'
p3177
S'.'
tp3178
(dp3179
S'\x00'
I1
ss(g541
g547
g142
tp3180
(dp3181
g170
I1
ss(g891
g2160
g632
tp3182
(dp3183
S';'
I1
ss(g122
S'.'
S'\x00'
tp3184
(dp3185
S'\x00'
I2
ss(S','
g60
g190
tp3186
(dp3187
g416
I1
ss(g1232
g191
g112
tp3188
(dp3189
g110
I1
ss(g231
g232
g188
tp3190
(dp3191
g123
I1
ss(g7
g294
S'.'
tp3192
(dp3193
S'\x00'
I2
ss(g853
g693
g57
tp3194
(dp3195
g19
I1
ss(g1828
g131
g593
tp3196
(dp3197
g251
I1
ss(g18
S';'
g226
tp3198
(dp3199
g686
I1
ss(S','
g1490
g84
tp3200
(dp3201
g97
I1
ss(S','
g1469
g406
tp3202
(dp3203
g1472
I1
ss(g939
g929
g719
tp3204
(dp3205
g1940
I1
ss(g731
g1925
S','
tp3206
(dp3207
g2594
I1
ss(g717
g236
S','
tp3208
(dp3209
g1490
I1
ss(S' '
S'I'
g132
tp3210
(dp3211
g641
I1
ss(g1856
S','
g1655
tp3212
(dp3213
S'.'
I1
ss(g2016
g68
S'.'
tp3214
(dp3215
S'\x00'
I1
ss(g1166
S'I'
g331
tp3216
(dp3217
g940
I1
ss(g331
g940
g716
tp3218
(dp3219
g1129
I1
ss(g2243
S'.'
S'\x00'
tp3220
(dp3221
S'\x00'
I2
ss(g1256
g239
g532
tp3222
(dp3223
g192
I1
ss(g2219
g369
g657
tp3224
(dp3225
g1050
I1
ss(S'I'
g209
g158
tp3226
(dp3227
g272
I1
ss(g88
S','
g1458
tp3228
(dp3229
g32
I1
ss(S' '
S'I'
g219
tp3230
(dp3231
g130
I1
ss(g1802
S','
g2112
tp3232
(dp3233
g55
I1
ss(g248
g646
g1247
tp3234
(dp3235
g748
I1
ss(g284
S','
g1738
tp3236
(dp3237
g689
I1
ss(g258
g178
g487
tp3238
(dp3239
g850
I1
ss(g585
g17
g474
tp3240
(dp3241
g234
I1
ss(g630
g347
g442
tp3242
(dp3243
g66
I1
ss(g225
g275
g91
tp3244
(dp3245
g1150
I1
ss(g60
g190
g416
tp3246
(dp3247
g38
I1
ss(g195
g165
g14
tp3248
(dp3249
S','
I1
ss(g1475
g392
S'I'
tp3250
(dp3251
g1671
I1
ss(g47
g508
g83
tp3252
(dp3253
S','
I1
ss(g1465
g1103
g1468
tp3254
(dp3255
S'a'
I1
ss(S','
g136
S','
tp3256
(dp3257
g20
I1
ss(g1767
g174
S','
tp3258
(dp3259
g2358
I1
ss(g671
S'.'
S'\x00'
tp3260
(dp3261
S'\x00'
I2
ss(g932
g269
g1084
tp3262
(dp3263
g1593
I1
ss(S','
g855
g751
tp3264
(dp3265
g118
I1
ss(g194
g9
S','
tp3266
(dp3267
S'I'
I1
ss(g683
g1052
g1112
tp3268
(dp3269
g176
I1
ss(g266
S'.'
S'\x00'
tp3270
(dp3271
S'\x00'
I2
ss(g310
S'.'
S'\x00'
tp3272
(dp3273
S'\x00'
I2
ss(g138
g266
S'.'
tp3274
(dp3275
S'\x00'
I1
ss(g1962
g150
g254
tp3276
(dp3277
S','
I1
ss(S'Yes'
p3278
S';'
g2092
tp3279
(dp3280
S'I'
I1
ss(g150
g254
S','
tp3281
(dp3282
g853
I1
ss(S','
S'I'
g1259
tp3283
(dp3284
S'.'
I1
ss(S' '
g265
g108
tp3285
(dp3286
S','
I1
ss(g157
g196
g271
tp3287
(dp3288
g113
I1
ss(g2378
S'a'
g268
tp3289
(dp3290
g834
I1
ss(S'I'
g154
g891
tp3291
(dp3292
g2160
I1
ss(g1490
g84
g97
tp3293
(dp3294
g133
I1
ss(S','
g119
S'I'
tp3295
(dp3296
g71
I1
ss(g693
g57
g19
tp3297
(dp3298
g26
I1
ss(S'I'
g201
g207
tp3299
(dp3300
g256
I1
ss(g425
S'I'
g2174
tp3301
(dp3302
g193
I1
sg1141
I1
ss(g130
g43
g36
tp3303
(dp3304
g288
I1
ss(S'a'
g189
S'.'
tp3305
(dp3306
S'\x00'
I1
ss(g799
S'.'
g125
tp3307
(dp3308
S'I'
I1
ss(g282
S';'
g1232
tp3309
(dp3310
g191
I1
ss(g271
g113
g181
tp3311
(dp3312
S','
I1
ss(S' '
g194
g9
tp3313
(dp3314
S','
I1
ss(S'I'
g2177
g145
tp3315
(dp3316
g1003
I1
ss(S';'
S'I'
g2526
tp3317
(dp3318
g2117
I1
ss(S'I'
g241
S','
tp3319
(dp3320
g290
I1
ss(g78
g1089
g750
tp3321
(dp3322
g50
I1
ss(g1000
g224
S'?'
tp3323
(dp3324
S'\x00'
I1
ss(g299
g211
S'.'
tp3325
(dp3326
S'\x00'
I1
ss(g217
S'?'
S'\x00'
tp3327
(dp3328
S'\x00'
I2
ss(g61
S'.'
S'\x00'
tp3329
(dp3330
S'\x00'
I2
ss(S','
g33
S','
tp3331
(dp3332
g2515
I2
ss(g198
g260
g63
tp3333
(dp3334
S'I'
I1
ss(g918
g1678
g1053
tp3335
(dp3336
g1681
I1
ss(S';'
g195
g165
tp3337
(dp3338
g14
I1
ss(S' '
g73
S'.'
tp3339
(dp3340
S'\x00'
I1
ss(g2120
S'.'
S'\x00'
tp3341
(dp3342
S'\x00'
I2
ss(S','
S'I'
g2330
tp3343
(dp3344
g807
I1
ss(S'a'
g1495
S';'
tp3345
(dp3346
g2266
I1
ss(g81
S'.'
S'\x00'
tp3347
(dp3348
S'\x00'
I2
ss(g1028
g2106
g82
tp3349
(dp3350
S'I'
I1
ss(g250
g1019
g692
tp3351
(dp3352
g227
I1
ss(g563
g982
g619
tp3353
(dp3354
g399
I1
ss(g499
g253
g596
tp3355
(dp3356
g1828
I1
ss(S' '
g278
g482
tp3357
(dp3358
S'.'
I1
ss(g1422
g350
g905
tp3359
(dp3360
g465
I1
ss(S'Socrates'
p3361
S','
S'I'
tp3362
(dp3363
g154
I1
sg2330
I1
ss(g646
g1247
g748
tp3364
(dp3365
S'.'
I1
ss(S','
g1767
g174
tp3366
(dp3367
S','
I1
ss(S'a'
g49
g1122
tp3368
(dp3369
g2312
I1
ss(g1095
g1196
g1051
tp3370
(dp3371
S'I'
I1
ss(g190
g416
g38
tp3372
(dp3373
S','
I1
ss(g101
g1171
g519
tp3374
(dp3375
g313
I1
ss(g764
g94
g831
tp3376
(dp3377
g1133
I1
ss(g1189
g991
g208
tp3378
(dp3379
g40
I1
ss(g1056
g1888
g469
tp3380
(dp3381
S'I'
I1
ss(S','
g1655
S'.'
tp3382
(dp3383
g90
I1
sS'\x00'
I7
sg77
I1
ss(g164
g134
g41
tp3384
(dp3385
g29
I1
ss(g11
g47
g508
tp3386
(dp3387
g83
I1
ss(g2112
g55
g223
tp3388
(dp3389
S'.'
I1
ss(S','
g20
g1076
tp3390
(dp3391
g173
I1
ss(g2541
S','
g156
tp3392
(dp3393
S','
I1
ss(g1780
g56
g928
tp3394
(dp3395
g546
I1
ss(g1342
g437
g554
tp3396
(dp3397
g1741
I1
ss(g26
g493
g1026
tp3398
(dp3399
g25
I1
ss(g788
g634
g1384
tp3400
(dp3401
g1206
I1
ss(g235
g574
g1827
tp3402
(dp3403
g2125
I1
ss(g264
g757
g1033
tp3404
(dp3405
g261
I1
ss(S'I'
g284
S','
tp3406
(dp3407
g1738
I1
ss(g149
S','
g2529
tp3408
(dp3409
S';'
I1
sS'.'
I1
ss(S' '
g1422
g350
tp3410
(dp3411
S'a'
I1
sg905
I1
ss(g32
S','
g855
tp3412
(dp3413
g751
I1
ss(g274
S'.'
S'\x00'
tp3414
(dp3415
S'\x00'
I2
ss(g46
S'.'
S'\x00'
tp3416
(dp3417
S'\x00'
I2
ss(g521
g228
g28
tp3418
(dp3419
g229
I1
ss(g1499
g749
g680
tp3420
(dp3421
S','
I1
ss(S','
g865
g187
tp3422
(dp3423
g824
I1
ss(g945
g58
g109
tp3424
(dp3425
g820
I1
ss(S'I'
g2070
g285
tp3426
(dp3427
g1038
I1
ss(g169
g183
S','
tp3428
(dp3429
g861
I1
ss(S'a'
g1109
g1073
tp3430
(dp3431
g685
I1
ss(g1094
g1035
g159
tp3432
(dp3433
g215
I1
ss(g206
S'.'
S'\x00'
tp3434
(dp3435
S'\x00'
I2
ss(g228
g28
g229
tp3436
(dp3437
g205
I1
ss(g354
S';'
g1298
tp3438
(dp3439
g246
I1
ss(g719
g1940
g608
tp3440
(dp3441
g127
I1
ss(g102
g61
S'.'
tp3442
(dp3443
S'\x00'
I1
ss(S'No'
p3444
S','
g859
tp3445
(dp3446
g518
I1
ss(g69
g664
g171
tp3447
(dp3448
S','
I1
ss(g197
g871
g222
tp3449
(dp3450
g76
I1
ss(S'I'
g1411
g80
tp3451
(dp3452
g337
I1
ss(g1035
g159
g215
tp3453
(dp3454
S','
I1
ss(g1150
g353
S','
tp3455
(dp3456
g2030
I1
ss(g216
S','
g102
tp3457
(dp3458
g61
I1
ss(g466
g1094
g1035
tp3459
(dp3460
g159
I1
ss(g977
S','
g2370
tp3461
(dp3462
g520
I1
ss(g191
g112
g110
tp3463
(dp3464
g868
I1
ss(g976
g212
S'.'
tp3465
(dp3466
S'\x00'
I1
ss(S';'
g1780
g56
tp3467
(dp3468
g928
I1
ss(S';'
g1746
S'I'
tp3469
(dp3470
g201
I1
sg233
I1
ss(g376
g911
g395
tp3471
(dp3472
g1013
I1
ss(g99
g922
g910
tp3473
(dp3474
S'.'
I1
ss(g1031
S'I'
g1660
tp3475
(dp3476
g140
I1
ss(g861
g1427
g908
tp3477
(dp3478
g1256
I1
ss(g68
S'.'
S'\x00'
tp3479
(dp3480
S'\x00'
I2
ss(g177
g380
S';'
tp3481
(dp3482
g1955
I1
ss(g1033
g261
g179
tp3483
(dp3484
S';'
I1
ss(g37
g21
g172
tp3485
(dp3486
g529
I1
ss(g220
g1056
g1888
tp3487
(dp3488
g469
I1
ss(S'There'
p3489
g2373
S'a'
tp3490
(dp3491
g126
I1
ss(g982
g619
g399
tp3492
(dp3493
g115
I1
ss(g366
g15
g874
tp3494
(dp3495
g690
I1
ss(g71
g121
g1132
tp3496
(dp3497
g16
I1
ss(g93
g305
S'a'
tp3498
(dp3499
g189
I1
ss(g172
g529
g273
tp3500
(dp3501
g279
I1
ss(S' '
g247
g994
tp3502
(dp3503
g309
I1
ss(g356
S'.'
S'\x00'
tp3504
(dp3505
S'\x00'
I2
ss(g329
g717
g236
tp3506
(dp3507
S','
I1
ss(g2231
g847
S','
tp3508
(dp3509
S'I'
I1
sS'Socrates'
p3510
I1
ss(g1026
g25
g1166
tp3511
(dp3512
S'I'
I1
ss(g369
g657
g1050
tp3513
(dp3514
g85
I1
ss(g74
g13
S';'
tp3515
(dp3516
g1627
I1
ss(g482
S'.'
S'\x00'
tp3517
(dp3518
S'\x00'
I6
ss(g17
g474
g234
tp3519
(dp3520
S','
I1
ss(g1081
g545
g1049
tp3521
(dp3522
g1034
I1
ss(g1262
g435
g22
tp3523
(dp3524
S'?'
I1
ss(g1050
g85
S','
tp3525
(dp3526
S'I'
I1
ss(g256
g30
g164
tp3527
(dp3528
g134
I1
ss(g944
g1006
g356
tp3529
(dp3530
S'.'
I1
ss(g57
g19
g26
tp3531
(dp3532
g493
I1
ss(g65
g1061
g64
tp3533
(dp3534
S'I'
I1
ss(g87
g796
g107
tp3535
(dp3536
g103
I1
ss(g146
g620
g521
tp3537
(dp3538
g228
I1
ss(S','
g2112
g55
tp3539
(dp3540
g223
I1
ss(g176
S'.'
S'\x00'
tp3541
(dp3542
S'\x00'
I2
ss(S'I'
g151
g505
tp3543
(dp3544
g1189
I1
ss(g207
g256
g30
tp3545
(dp3546
g164
I1
ss(g2582
S';'
g10
tp3547
(dp3548
g37
I1
ss(g221
S'.'
S'\x00'
tp3549
(dp3550
S'\x00'
I4
ss(g629
g78
g1089
tp3551
(dp3552
g750
I1
ss(g1259
S'.'
S'\x00'
tp3553
(dp3554
S'\x00'
I2
ss(g54
g637
S'a'
tp3555
(dp3556
g235
I1
sg1109
I1
ss(g77
S'I'
g141
tp3557
(dp3558
g210
I1
ss(S'I'
g293
g283
tp3559
(dp3560
g96
I1
ss(g27
g238
g44
tp3561
(dp3562
g257
I1
ss(g490
S'.'
S'\x00'
tp3563
(dp3564
S'\x00'
I2
ss(S','
g290
g1115
tp3565
(dp3566
g221
I1
ss(S','
g169
g183
tp3567
(dp3568
S','
I1
ss(g83
S','
g2304
tp3569
(dp3570
S'I'
I1
ss(g638
S'.'
S'\x00'
tp3571
(dp3572
S'\x00'
I2
ss(S','
g857
g322
tp3573
(dp3574
S'I'
I1
ss(g2573
g977
S','
tp3575
(dp3576
g2370
I1
ss(g10
g37
g21
tp3577
(dp3578
g172
I1
ss(g518
g345
g2620
tp3579
(dp3580
g2243
I1
ss(g377
g499
g253
tp3581
(dp3582
g596
I1
ss(g2266
g1602
g629
tp3583
(dp3584
g78
I1
ss(g1273
g939
g929
tp3585
(dp3586
g719
I1
sg718
I1
ss(S','
g1219
g687
tp3587
(dp3588
S'I'
I1
ss(g905
g465
S','
tp3589
(dp3590
g1449
I1
ss(g407
S'?'
S'\x00'
tp3591
(dp3592
S'\x00'
I2
ss(S'I'
g2353
g193
tp3593
(dp3594
g877
I1
ss(g31
S';'
g204
tp3595
(dp3596
g231
I1
ss(g991
g208
g40
tp3597
(dp3598
g300
I1
ss(S','
g1802
S','
tp3599
(dp3600
g119
I1
sg862
I1
sS'I'
I2
sg858
I1
sg2111
I1
sg864
I2
sg2112
I1
ss(S' '
g1265
S','
tp3601
(dp3602
g857
I1
sg1268
I1
ss(g1822
g1008
S'I'
tp3603
(dp3604
g1465
I1
ss(g1955
S'I'
g209
tp3605
(dp3606
g158
I1
ss(g350
g905
g465
tp3607
(dp3608
S','
I1
ss(g255
g167
g1147
tp3609
(dp3610
g407
I1
ss(g43
g36
g288
tp3611
(dp3612
S','
I1
ss(g778
g180
g743
tp3613
(dp3614
S'.'
I1
ss(g2597
g987
g139
tp3615
(dp3616
g837
I1
ss(g1584
g2597
g987
tp3617
(dp3618
g139
I1
ss(S','
g2041
g694
tp3619
(dp3620
S'I'
I1
ss(g2317
S':'
S'\x00'
tp3621
(dp3622
S'\x00'
I2
ss(g919
S','
g169
tp3623
(dp3624
g183
I1
ss(g118
g585
g17
tp3625
(dp3626
g474
I1
ss(g139
g837
g990
tp3627
(dp3628
g1028
I1
ss(g2222
g225
g275
tp3629
(dp3630
g91
I1
ss(S'I'
g1465
g1103
tp3631
(dp3632
g1468
I1
ss(g113
g181
S','
tp3633
(dp3634
g27
I1
ss(g2671
g1822
g1008
tp3635
(dp3636
S'I'
I1
ss(g664
g171
S','
tp3637
(dp3638
g1219
I1
ss(g337
g355
g611
tp3639
(dp3640
g764
I1
ss(g505
g1189
g991
tp3641
(dp3642
g208
I1
ss(g193
g877
g286
tp3643
(dp3644
S';'
I1
ss(S'a'
g1108
g496
tp3645
(dp3646
S'.'
I1
ss(g1819
g111
S','
tp3647
(dp3648
g860
I1
ss(g824
g69
g664
tp3649
(dp3650
g171
I1
ss(S'I'
g1259
S'.'
tp3651
(dp3652
S'\x00'
I1
ss(g1969
S','
g2756
tp3653
(dp3654
g1418
I2
ss(S' '
g2231
g847
tp3655
(dp3656
S';'
I1
sS','
I2
ss(g658
g295
g950
tp3657
(dp3658
g280
I1
ss(g750
g50
g1187
tp3659
(dp3660
g357
I1
ss(g1805
g1180
g1177
tp3661
(dp3662
g658
I1
ss(g200
g810
g932
tp3663
(dp3664
g269
I1
ss(g247
g994
g309
tp3665
(dp3666
S','
I1
ss(S'Very'
p3667
g2317
S':'
tp3668
(dp3669
S'\x00'
I1
ss(g321
g631
S','
tp3670
(dp3671
g2757
I1
ss(S';'
g226
g686
tp3672
(dp3673
g8
I1
ss(g276
g1000
g224
tp3674
(dp3675
S'?'
I1
ss(g987
g139
g837
tp3676
(dp3677
g990
I1
ss(g85
S','
S'I'
tp3678
(dp3679
g297
I1
ss(g2092
S'I'
g233
tp3680
(dp3681
g80
I1
sg75
I1
sg145
I1
ss(g1940
g608
g127
tp3682
(dp3683
S'-'
I1
ss(g928
g546
g258
tp3684
(dp3685
g178
I1
ss(g1265
S','
g857
tp3686
(dp3687
g322
I1
ss(g690
g79
g252
tp3688
(dp3689
g466
I1
ss(g305
S'a'
g189
tp3690
(dp3691
S'.'
I1
ss(g170
g89
S'a'
tp3692
(dp3693
g1108
I1
ss(g1016
g1032
g490
tp3694
(dp3695
S'.'
I1
ss(S' '
g53
S'.'
tp3696
(dp3697
S'\x00'
I2
ss(g2125
S'.'
S'\x00'
tp3698
(dp3699
S'\x00'
I2
ss(g20
g1076
g173
tp3700
(dp3701
g35
I1
ss(g1385
g128
g1007
tp3702
(dp3703
g1381
I1
ss(g116
g129
S'a'
tp3704
(dp3705
g92
I1
ss(g743
S'.'
S'\x00'
tp3706
(dp3707
S'\x00'
I2
ss(g1286
g242
S'a'
tp3708
(dp3709
g1495
I1
ss(g685
S'a'
g24
tp3710
(dp3711
g454
I1
ss(S' '
g99
g922
tp3712
(dp3713
g906
I1
sg904
I1
sg910
I1
ss(g1607
g777
g54
tp3714
(dp3715
g637
I1
ss(g1024
S'I'
g220
tp3716
(dp3717
g1056
I1
ss(g2011
g684
g1286
tp3718
(dp3719
g242
I1
ss(S','
g859
g518
tp3720
(dp3721
g345
I1
ss(g2330
g807
g919
tp3722
(dp3723
S','
I1
ss(g62
g558
g1856
tp3724
(dp3725
S','
I1
ss(g186
S','
g865
tp3726
(dp3727
g187
I1
ss(g807
g919
S','
tp3728
(dp3729
g169
I1
ss(S' '
g1841
g249
tp3730
(dp3731
S','
I1
sS'.'
I1
ss(g708
g157
g196
tp3732
(dp3733
g271
I1
ss(S';'
g1298
g246
tp3734
(dp3735
S'I'
I1
ss(g1034
S'I'
g1262
tp3736
(dp3737
g435
I1
ss(S','
g1738
g689
tp3738
(dp3739
g281
I1
ss(g244
g457
g1702
tp3740
(dp3741
g945
I1
ss(g554
g1741
g918
tp3742
(dp3743
g1678
I1
ss(g1419
S';'
g540
tp3744
(dp3745
g184
I1
ss(S' '
g153
S','
tp3746
(dp3747
g52
I1
sg1469
I1
sg859
I1
ss(S','
g2370
g520
tp3748
(dp3749
g88
I1
ss(g1888
g469
S'I'
tp3750
(dp3751
g2353
I1
ss(g25
g1166
S'I'
tp3752
(dp3753
g331
I1
ss(g97
g133
g250
tp3754
(dp3755
g1019
I1
ss(g1495
S';'
g2266
tp3756
(dp3757
g1602
I1
ss(g237
g729
g31
tp3758
(dp3759
S';'
I1
ss(g14
S','
g72
tp3760
(dp3761
S'I'
I1
ss(g877
g286
S';'
tp3762
(dp3763
g1584
I1
ss(g689
g281
g614
tp3764
(dp3765
S'.'
I1
ss(g108
S','
g2130
tp3766
(dp3767
S','
I1
ss(S'I'
g2267
g137
tp3768
(dp3769
g199
I1
ss(g272
g793
g391
tp3770
(dp3771
g340
I1
ss(g532
g192
S'.'
tp3772
(dp3773
S'\x00'
I1
ss(g863
g788
g634
tp3774
(dp3775
g1384
I1
ss(g2739
g906
g1610
tp3776
(dp3777
S','
I1
ss(g332
g270
g160
tp3778
(dp3779
S','
I1
ss(S'what'
p3780
S'a'
g49
tp3781
(dp3782
g1122
I1
ss(g309
S','
g2782
tp3783
(dp3784
S'.'
I1
ss(g620
g521
g228
tp3785
(dp3786
g28
I1
ss(g395
g1013
g34
tp3787
(dp3788
S'.'
I1
ss(g1741
g918
g1678
tp3789
(dp3790
g1053
I1
ss(g246
S'I'
g65
tp3791
(dp3792
g1061
I2
ss(g2023
g161
S':'
tp3793
(dp3794
S'\x00'
I1
ss(S'a'
g148
g81
tp3795
(dp3796
S'.'
I1
ss(g1326
g799
S'.'
tp3797
(dp3798
g125
I1
ss(g162
g11
g47
tp3799
(dp3800
g508
I1
ss(g51
S'.'
S'\x00'
tp3801
(dp3802
S'\x00'
I2
ss(g831
g1133
g354
tp3803
(dp3804
S';'
I1
ss(g857
g322
S'I'
tp3805
(dp3806
g217
I1
ss(S','
g2111
g1394
tp3807
(dp3808
S'so'
p3809
I1
ss(g2526
g2117
g927
tp3810
(dp3811
g2120
I1
ss(g180
g743
S'.'
tp3812
(dp3813
S'\x00'
I1
ss(g1027
g124
g976
tp3814
(dp3815
g212
I1
ss(g211
S'.'
S'\x00'
tp3816
(dp3817
S'\x00'
I2
ss(S' '
g2399
S';'
tp3818
(dp3819
S'I'
I1
sg542
I1
ss(g896
g198
g260
tp3820
(dp3821
g63
I1
ss(g298
g168
g138
tp3822
(dp3823
g266
I1
ss(g2532
g1969
S','
tp3824
(dp3825
g2756
I2
ss(g391
g340
g163
tp3826
(dp3827
S','
I1
ss(g1468
S'a'
g235
tp3828
(dp3829
g574
I1
ss(g855
g751
g118
tp3830
(dp3831
g585
I1
ss(g614
S'.'
S'\x00'
tp3832
(dp3833
S'\x00'
I4
ss(g100
g202
S','
tp3834
(dp3835
g2582
I2
ss(g294
S'.'
S'\x00'
tp3836
(dp3837
S'\x00'
I4
ss(g943
g105
S'.'
tp3838
(dp3839
S'\x00'
I1
ss(g1827
g2125
S'.'
tp3840
(dp3841
S'\x00'
I1
ss(g1681
g1326
g799
tp3842
(dp3843
S'.'
I1
ss(g143
S';'
g541
tp3844
(dp3845
g547
I1
ss(S','
g102
g61
tp3846
(dp3847
S'.'
I1
ss(g749
g680
S','
tp3848
(dp3849
g2361
I1
ss(g502
g517
g166
tp3850
(dp3851
S':'
I1
ss(g21
g172
g529
tp3852
(dp3853
g273
I1
ss(S'He'
p3854
g1335
g346
tp3855
(dp3856
S'.'
I1
ss(g82
S'I'
g1385
tp3857
(dp3858
g128
I1
ss(S'the'
p3859
g2573
g977
tp3860
(dp3861
S','
I1
ss(g80
g337
g355
tp3862
(dp3863
g611
I1
ss(g300
S'.'
S'\x00'
tp3864
(dp3865
S'\x00'
I2
ss(S';'
g539
g162
tp3866
(dp3867
g11
I1
ss(g657
g1050
g85
tp3868
(dp3869
S','
I1
ss(S';'
g1955
S'I'
tp3870
(dp3871
g209
I1
ss(g757
g1033
g261
tp3872
(dp3873
g179
I1
ss(g2529
S';'
g2556
tp3874
(dp3875
g683
I1
sg263
I1
sg104
I1
ss(g967
g186
S','
tp3876
(dp3877
g865
I1
sg156
I1
ss(S'make'
p3878
g1475
g392
tp3879
(dp3880
S'I'
I1
ss(g52
S';'
g195
tp3881
(dp3882
g56
I1
sg165
I1
ss(g2174
g1141
S':'
tp3883
(dp3884
g997
I1
ss(S','
g863
g788
tp3885
(dp3886
g634
I1
ss(g265
g108
S','
tp3887
(dp3888
g2130
I1
ss(S','
g2756
g1418
tp3889
(dp3890
S'a'
I2
ss(S' '
g1203
g730
tp3891
(dp3892
g1025
I1
ss(g516
g909
g185
tp3893
(dp3894
g884
I1
ss(S' '
g237
g729
tp3895
(dp3896
g31
I1
ss(g115
g943
g105
tp3897
(dp3898
S'.'
I1
ss(S'I'
g329
g717
tp3899
(dp3900
g236
I1
ss(g285
g1038
g1962
tp3901
(dp3902
g150
I1
ss(g181
S','
g27
tp3903
(dp3904
g238
I1
ss(g2446
g1161
S'.'
tp3905
(dp3906
S'\x00'
I2
ss(g546
g258
g178
tp3907
(dp3908
g487
I1
ss(S';'
g540
g184
tp3909
(dp3910
g555
I1
ss(g120
g67
g754
tp3911
(dp3912
g630
I1
ss(g680
S','
g2361
tp3913
(dp3914
S','
I1
ss(g178
g487
g850
tp3915
(dp3916
S'.'
I1
ss(g1841
g249
S','
tp3917
(dp3918
g259
I1
ss(g313
g291
g967
tp3919
(dp3920
g186
I1
ss(g2358
g708
g157
tp3921
(dp3922
g196
I1
ss(S' '
g144
S'.'
tp3923
(dp3924
S'\x00'
I1
ss(g44
g257
g1095
tp3925
(dp3926
g1196
I1
ss(g850
S'.'
S'\x00'
tp3927
(dp3928
S'\x00'
I2
ss(g295
g950
g280
tp3929
(dp3930
g267
I1
ss(S'No'
p3931
S';'
S'I'
tp3932
(dp3933
g2526
I1
ss(g1381
g563
g982
tp3934
(dp3935
g619
I1
ss(g2370
g520
g88
tp3936
(dp3937
S','
I1
ss(S';'
g204
g231
tp3938
(dp3939
g232
I1
ss(g1089
g750
g50
tp3940
(dp3941
g1187
I1
ss(S'Yes'
p3942
S','
g33
tp3943
(dp3944
S','
I2
ss(g12
g659
g2589
tp3945
(dp3946
g264
I1
ss(S':'
g98
S'I'
tp3947
(dp3948
g151
I1
ss(S';'
g2219
g369
tp3949
(dp3950
g657
I1
ss(g253
g596
g1828
tp3951
(dp3952
g131
I1
ss(g236
S','
g1490
tp3953
(dp3954
g84
I1
ss(g1206
g633
g436
tp3955
(dp3956
g135
I1
ss(g1458
g32
S','
tp3957
(dp3958
g855
I1
ss(g517
g166
S':'
tp3959
(dp3960
g98
I1
ss(g48
g46
S'.'
tp3961
(dp3962
S'\x00'
I1
ss(g203
g245
g282
tp3963
(dp3964
S';'
I1
ss(g908
g1256
g239
tp3965
(dp3966
g532
I1
ss(g380
S';'
g1955
tp3967
(dp3968
S'I'
I1
ss(g230
g460
S','
tp3969
(dp3970
g2236
I1
ss(g153
S','
g52
tp3971
(dp3972
S';'
I1
ss(g232
g188
g123
tp3973
(dp3974
g106
I1
ss(g751
g118
g585
tp3975
(dp3976
g17
I1
ss(g1196
g1051
S'I'
tp3977
(dp3978
g241
I1
ss(S' '
g2692
g430
tp3979
(dp3980
g323
I1
ss(g493
g1026
g25
tp3981
(dp3982
g1166
I1
ss(g155
g248
g646
tp3983
(dp3984
g1247
I1
ss(g868
g45
S','
tp3985
(dp3986
g60
I1
ss(g1177
g658
g295
tp3987
(dp3988
g950
I1
ss(g1073
g685
S'a'
tp3989
(dp3990
g289
I1
sg24
I1
sg268
I1
sg122
I1
sg49
I1
ss(g121
g1132
g16
tp3991
(dp3992
g366
I1
ss(g22
S'?'
S'\x00'
tp3993
(dp3994
S'\x00'
I2
ss(S';'
g1638
g683
tp3995
(dp3996
g1052
I1
ss(g59
g1174
g299
tp3997
(dp3998
g211
I1
ss(g686
g8
g59
tp3999
(dp4000
g1174
I1
ss(g2177
g145
g1003
tp4001
(dp4002
g515
I1
ss(g35
g425
S'I'
tp4003
(dp4004
g2174
I1
ss(g1384
g1206
g633
tp4005
(dp4006
g436
I1
ss(g275
g91
g1150
tp4007
(dp4008
g353
I1
ss(g396
g93
g305
tp4009
(dp4010
S'a'
I1
ss(g847
S','
S'I'
tp4011
(dp4012
g2267
I1
ss(g36
g288
S','
tp4013
(dp4014
g1802
I1
ss(g287
S'.'
S'\x00'
tp4015
(dp4016
S'\x00'
I2
ss(S' '
g100
g202
tp4017
(dp4018
S':'
I1
sS','
I2
sS'.'
I1
ss(g1610
S','
g1613
tp4019
(dp4020
S'.'
I1
ss(g508
g83
S','
tp4021
(dp4022
g2304
I1
ss(S','
g853
g693
tp4023
(dp4024
g57
I1
ss(g340
g163
S','
tp4025
(dp4026
g1313
I1
ss(g460
S','
g2236
tp4027
(dp4028
S'.'
I1
ss(g13
S';'
g1627
tp4029
(dp4030
g691
I1
ss(g229
g205
S'a'
tp4031
(dp4032
g148
I1
ss(g126
g316
S','
tp4033
(dp4034
g2496
I1
ss(g140
g671
S'.'
tp4035
(dp4036
S'\x00'
I1
ss(S' '
g2222
g225
tp4037
(dp4038
g275
I1
ss(g137
g199
g277
tp4039
(dp4040
S'a'
I1
ss(g179
S';'
g2219
tp4041
(dp4042
g369
I1
ss(g124
g976
g212
tp4043
(dp4044
S'.'
I1
ss(S'a'
g48
g46
tp4045
(dp4046
S'.'
I1
ss(g91
g1150
g353
tp4047
(dp4048
S','
I1
ss(g730
g1025
g244
tp4049
(dp4050
g457
I1
ss(g1147
g407
S'?'
tp4051
(dp4052
S'\x00'
I1
ss(S'Yes'
p4053
S','
S'I'
tp4054
(dp4055
g1259
I1
ss(g202
S','
g2582
tp4056
(dp4057
S';'
I1
sS'.'
I1
ss(g107
g103
g740
tp4058
(dp4059
g2541
I1
ss(S'a'
g122
S'.'
tp4060
(dp4061
S'\x00'
I1
ss(S','
g72
S'I'
tp4062
(dp4063
g117
I1
ss(g136
S','
g20
tp4064
(dp4065
g1076
I1
ss(S' '
g1482
S','
tp4066
(dp4067
g1289
I1
sS'I'
I1
sg33
I2
sg854
I1
sg1485
I1
sg856
I1
ss(g251
S'.'
S'\x00'
tp4068
(dp4069
S'\x00'
I2
ss(g2373
S'a'
g126
tp4070
(dp4071
g316
I1
ss(g1298
g246
S'I'
tp4072
(dp4073
g65
I1
ss(g2620
g2243
S'.'
tp4074
(dp4075
S'\x00'
I1
ss(g283
g96
g321
tp4076
(dp4077
g631
I1
ss(g447
g2047
S'.'
tp4078
(dp4079
S'\x00'
I2
ss(g862
g262
S'I'
tp4080
(dp4081
g1789
I1
ss(S'a'
g268
g834
tp4082
(dp4083
g2627
I1
ss(S'not'
p4084
g2099
g718
tp4085
(dp4086
g607
I1
ss(g927
g2120
S'.'
tp4087
(dp4088
S'\x00'
I1
ss(g1418
S'a'
g289
tp4089
(dp4090
g815
I1
ss(g520
g88
S','
tp4091
(dp4092
g1458
I1
ss(g2692
g430
g323
tp4093
(dp4094
g907
I1
ss(g183
S','
g861
tp4095
(dp4096
g1427
I1
ss(g286
S';'
g1584
tp4097
(dp4098
g2597
I1
ss(S' '
g114
g778
tp4099
(dp4100
g180
I1
ss(g8
g59
g1174
tp4101
(dp4102
g299
I1
ss(S' '
S'A'
g287
tp4103
(dp4104
S'.'
I1
ss(S','
g2011
g684
tp4105
(dp4106
g1286
I1
ss(g688
g1140
g699
tp4107
(dp4108
g2196
I1
ss(S'.'
g125
S'I'
tp4109
(dp4110
g1273
I1
ss(g713
g51
S'.'
tp4111
(dp4112
S'\x00'
I1
ss(g109
g820
S'.'
tp4113
(dp4114
S'\x00'
I1
ss(g127
S'-'
g182
tp4115
(dp4116
g326
I1
ss(g2196
g2165
g276
tp4117
(dp4118
g1000
I1
ss(g123
g106
S'.'
tp4119
(dp4120
S'\x00'
I1
ss(g904
S','
g1715
tp4121
(dp4122
S';'
I1
ss(S','
g856
S'a'
tp4123
(dp4124
g48
I1
ss(g1289
g516
g909
tp4125
(dp4126
g185
I1
ss(g1427
g908
g1256
tp4127
(dp4128
g239
I1
ss(g1909
g481
g713
tp4129
(dp4130
g51
I1
ss(g547
g142
g170
tp4131
(dp4132
g89
I1
ss(g2030
S'.'
g77
tp4133
(dp4134
S'I'
I1
ss(g1112
g176
S'.'
tp4135
(dp4136
S'\x00'
I1
ss(g1496
g431
g1499
tp4137
(dp4138
g749
I1
ss(S','
S'I'
g2267
tp4139
(dp4140
g137
I1
ss(S'a'
g292
S'.'
tp4141
(dp4142
S'\x00'
I1
ss(g596
g1828
g131
tp4143
(dp4144
g593
I1
ss(g2267
g137
g199
tp4145
(dp4146
g277
I1
ss(g239
g532
g192
tp4147
(dp4148
S'.'
I1
ss(g1602
g629
g78
tp4149
(dp4150
g1089
I1
ss(g929
g719
g1940
tp4151
(dp4152
g608
I1
ss(g98
S'I'
g151
tp4153
(dp4154
g505
I1
ss(g128
g1007
g1381
tp4155
(dp4156
g563
I1
ss(g691
g376
g911
tp4157
(dp4158
g395
I1
ss(S';'
g10
g37
tp4159
(dp4160
g21
I1
ss(g156
S','
g136
tp4161
(dp4162
S','
I1
ss(g210
g101
g1171
tp4163
(dp4164
g519
I1
ss(S'I'
g1273
g939
tp4165
(dp4166
g927
I1
sg929
I2
ss(g856
S'a'
g48
tp4167
(dp4168
g46
I1
ss(g79
g252
g466
tp4169
(dp4170
g1094
I1
ss(g142
g170
g89
tp4171
(dp4172
S'a'
I1
ss(S'I'
g1262
g435
tp4173
(dp4174
g22
I1
ss(g2399
S';'
g542
tp4175
(dp4176
g70
I1
ss(g1211
S','
g1214
tp4177
(dp4178
S','
I1
ss(S'I'
g120
g67
tp4179
(dp4180
g754
I1
ss(g214
g240
g301
tp4181
(dp4182
g901
I1
ss(g92
g23
g377
tp4183
(dp4184
g499
I1
ss(g434
S','
g863
tp4185
(dp4186
g788
I1
ss(g218
g526
g1024
tp4187
(dp4188
S'I'
I1
ss(g519
g313
g291
tp4189
(dp4190
g967
I1
ss(g457
g1702
g945
tp4191
(dp4192
g58
I1
ss(S'I'
g117
g298
tp4193
(dp4194
g168
I1
ss(g212
S'.'
S'\x00'
tp4195
(dp4196
S'\x00'
I2
ss(S';'
g542
g70
tp4197
(dp4198
g844
I1
ss(g240
g301
g901
tp4199
(dp4200
g688
I1
ss(S' '
S'I'
g2671
tp4201
(dp4202
g1822
I1
ss(g1038
g1962
g150
tp4203
(dp4204
g254
I1
ss(g2757
S'.'
g90
tp4205
(dp4206
S'I'
I1
ss(S','
g12
g659
tp4207
(dp4208
g2589
I1
ss(S','
g860
g396
tp4209
(dp4210
g93
I1
ss(g261
g179
S';'
tp4211
(dp4212
g2219
I1
ss(g111
S','
g860
tp4213
(dp4214
g396
I1
ss(g254
S','
g853
tp4215
(dp4216
g693
I1
ss(g278
g482
S'.'
tp4217
(dp4218
S'\x00'
I1
ss(g76
S';'
g1746
tp4219
(dp4220
S'I'
I1
ss(g1032
g490
S'.'
tp4221
(dp4222
S'\x00'
I1
ss(g593
g251
S'.'
tp4223
(dp4224
S'\x00'
I1
ss(g40
g300
S'.'
tp4225
(dp4226
S'\x00'
I1
ss(g132
g641
g147
tp4227
(dp4228
g62
I1
ss(S'I'
g2330
g807
tp4229
(dp4230
g919
I1
ss(g2041
g694
S'I'
tp4231
(dp4232
g3878
I1
ss(S','
S'I'
g330
tp4233
(dp4234
g1102
I1
ss(g209
g158
g272
tp4235
(dp4236
g793
I1
ss(S' '
g1922
g731
tp4237
(dp4238
g1925
I1
ss(g42
S'I'
g216
tp4239
(dp4240
S','
I1
ss(g201
g207
g256
tp4241
(dp4242
g30
I1
ss(g288
S','
g1802
tp4243
(dp4244
S','
I1
ss(g1115
g221
S'.'
tp4245
(dp4246
S'\x00'
I1
ss(g854
g804
g1438
tp4247
(dp4248
g1624
I1
ss(g187
g824
g69
tp4249
(dp4250
g664
I1
ss(g392
S'I'
g1671
tp4251
(dp4252
g1805
I1
ss(S'.'
S'I'
g146
tp4253
(dp4254
g620
I1
ss(g2160
g632
S';'
tp4255
(dp4256
g539
I1
ss(S'.'
g90
S'I'
tp4257
(dp4258
g2070
I1
ss(g95
g39
g896
tp4259
(dp4260
g198
I1
ss(g204
g231
g232
tp4261
(dp4262
g188
I1
ss(g175
g213
g502
tp4263
(dp4264
g517
I1
ss(g726
S'.'
S'I'
tp4265
(dp4266
g146
I1
ss(g2469
S'.'
S'\x00'
tp4267
(dp4268
S'\x00'
I2
ss(g301
g901
g688
tp4269
(dp4270
g1140
I1
ss(S','
g1458
g32
tp4271
(dp4272
S','
I1
ss(g611
g764
g94
tp4273
(dp4274
g831
I1
ss(g1007
g1381
g563
tp4275
(dp4276
g982
I1
ss(g267
S'.'
S'\x00'
tp4277
(dp4278
S'\x00'
I2
ss(S' '
g2446
g1161
tp4279
(dp4280
S'.'
I2
ss(g73
S'.'
S'\x00'
tp4281
(dp4282
S'\x00'
I2
ss(g53
S'.'
S'\x00'
tp4283
(dp4284
S'\x00'
I4
ss(g238
g44
g257
tp4285
(dp4286
g1095
I1
ss(g864
g308
g1976
tp4287
(dp4288
g2016
I1
ss(g353
S','
g2030
tp4289
(dp4290
S'.'
I1
ss(S'I'
g65
g1061
tp4291
(dp4292
g64
I1
sg392
I1
ss(g293
g283
g96
tp4293
(dp4294
g321
I1
ss(g163
S','
g1313
tp4295
(dp4296
g87
I1
ss(g1180
g1177
g658
tp4297
(dp4298
g295
I1
ss(S'.'
g77
S'I'
tp4299
(dp4300
g141
I1
ss(g28
g229
g205
tp4301
(dp4302
S'a'
I1
ss(g865
g187
g824
tp4303
(dp4304
g69
I1
ss(g263
g95
g39
tp4305
(dp4306
g896
I1
ss(g641
g147
g62
tp4307
(dp4308
g558
I1
ss(g182
g326
g1027
tp4309
(dp4310
g124
I1
ss(g226
g686
g8
tp4311
(dp4312
g59
I1
ss(g49
g1122
g2312
tp4313
(dp4314
S'a'
I1
ss(g1449
S','
g862
tp4315
(dp4316
g262
I1
ss(S';'
g1584
g2597
tp4317
(dp4318
g987
I1
ss(S'I'
g141
g210
tp4319
(dp4320
g101
I1
ss(S' '
g2628
S'.'
tp4321
(dp4322
S'\x00'
I14
ss(S','
g52
S';'
tp4323
(dp4324
g2556
I3
sS'I'
I1
sg10
I1
sg195
I2
ss(g75
g590
g7
tp4325
(dp4326
g294
I1
ss(g1025
g244
g457
tp4327
(dp4328
g1702
I1
ss(S' '
g2023
g161
tp4329
(dp4330
S':'
I1
ss(g950
g280
g267
tp4331
(dp4332
S'.'
I1
ss(g2361
S','
g2111
tp4333
(dp4334
g1394
I1
ss(g1051
S'I'
g241
tp4335
(dp4336
S','
I1
ss(g785
g1144
g218
tp4337
(dp4338
g526
I1
ss(S'I'
g146
g620
tp4339
(dp4340
g521
I1
ss(S';'
g1627
g691
tp4341
(dp4342
g376
I1
ss(S','
g861
g1427
tp4343
(dp4344
g908
I1
ss(g273
g279
g197
tp4345
(dp4346
g871
I1
ss(g316
S','
g2496
tp4347
(dp4348
S','
I1
ss(g860
g396
g93
tp4349
(dp4350
g305
I1
ss(g39
g896
g198
tp4351
(dp4352
g260
I1
ss(g1746
S'I'
g201
tp4353
(dp4354
g207
I1
ss(g241
S','
g290
tp4355
(dp4356
g1115
I1
ss(S','
g156
S','
tp4357
(dp4358
g136
I1
ss(g1053
g1681
g1326
tp4359
(dp4360
g799
I1
ss(g34
S'.'
S'\x00'
tp4361
(dp4362
S'\x00'
I2
ss(g777
g54
g637
tp4363
(dp4364
S'a'
I1
ss(g2496
S','
g858
tp4365
(dp4366
g821
I1
ss(g135
g1016
g1032
tp4367
(dp4368
g490
I1
ss(g911
g395
g1013
tp4369
(dp4370
g34
I1
ss(S'a'
g289
g815
tp4371
(dp4372
g2378
I1
ss(g242
S'a'
g1495
tp4373
(dp4374
S';'
I1
ss(g345
g2620
g2243
tp4375
(dp4376
S'.'
I1
ss(g2004
g904
S','
tp4377
(dp4378
g1715
I1
ss(g1335
g346
S'.'
tp4379
(dp4380
S'\x00'
I2
ss(g56
g928
g546
tp4381
(dp4382
g258
I1
ss(S' '
g2305
g206
tp4383
(dp4384
S'.'
I1
ss(g269
g1084
g1593
tp4385
(dp4386
g944
I1
ss(S';'
g2083
g104
tp4387
(dp4388
S'I'
I1
ss(g754
g630
g347
tp4389
(dp4390
g442
I1
ss(g63
S'I'
g152
tp4391
(dp4392
g726
I1
ss(g435
g22
S'?'
tp4393
(dp4394
S'\x00'
I1
ss(g684
g1286
g242
tp4395
(dp4396
S'a'
I1
ss(g308
g1976
g2016
tp4397
(dp4398
g68
I1
ss(g131
g593
g251
tp4399
(dp4400
S'.'
I1
ss(S'Yes'
p4401
S','
g856
tp4402
(dp4403
S'a'
I1
ss(S'a'
g24
g454
tp4404
(dp4405
g2532
I1
ss(g1133
g354
S';'
tp4406
(dp4407
g1298
I1
ss(g270
g160
S','
tp4408
(dp4409
g2041
I1
ss(g1671
g1805
g1180
tp4410
(dp4411
g1177
I1
ss(g994
g309
S','
tp4412
(dp4413
g2782
I1
ss(g70
g844
g1879
tp4414
(dp4415
g638
I1
ss(g289
g815
g2378
tp4416
(dp4417
S'a'
I1
ss(g796
g107
g103
tp4418
(dp4419
g740
I1
ss(S','
g2304
S'I'
tp4420
(dp4421
g2177
I1
ss(g1008
S'I'
g1465
tp4422
(dp4423
g1103
I1
ss(S'I'
g216
S','
tp4424
(dp4425
g102
I1
ss(S'I'
g332
g270
tp4426
(dp4427
g1180
I1
sg160
I1
ss(S','
g259
S'.'
tp4428
(dp4429
S'\x00'
I1
ss(S';'
S'I'
g296
tp4430
(dp4431
g175
I1
ss(g1174
g299
g211
tp4432
(dp4433
S'.'
I1
ss(g277
S'a'
g292
tp4434
(dp4435
S'.'
I1
ss(g322
S'I'
g217
tp4436
(dp4437
S'?'
I1
ss(S'No'
p4438
S','
g1469
tp4439
(dp4440
g406
I1
ss(g105
S'.'
S'\x00'
tp4441
(dp4442
S'\x00'
I2
ss(g692
g227
g274
tp4443
(dp4444
S'.'
I1
ss(g481
g713
g51
tp4445
(dp4446
S'.'
I1
ss(g729
g31
S';'
tp4447
(dp4448
g204
I1
ss(g185
g884
g200
tp4449
(dp4450
g810
I1
ss(g1214
S','
g864
tp4451
(dp4452
g2573
I1
sg308
I1
ss(S','
g3859
g2573
tp4453
(dp4454
g977
I1
ss(g859
g518
g345
tp4455
(dp4456
g2620
I1
ss(S' '
g1816
S'.'
tp4457
(dp4458
S'\x00'
I1
ss(g330
g1102
S','
tp4459
(dp4460
S'Socrates'
p4461
I1
ss(g1013
g34
S'.'
tp4462
(dp4463
S'\x00'
I1
ss(S'a'
g126
g316
tp4464
(dp4465
S','
I1
ss(g699
g2196
g2165
tp4466
(dp4467
g276
I1
ss(S'I'
g220
g1056
tp4468
(dp4469
g1888
I1
ss(g716
g1129
g1342
tp4470
(dp4471
g437
I1
ss(g112
g110
g868
tp4472
(dp4473
g45
I1
ss(S','
S'I'
g297
tp4474
(dp4475
g214
I1
ss(g260
g63
S'I'
tp4476
(dp4477
g152
I1
ss(g154
g891
g2160
tp4478
(dp4479
g632
I1
ss(g161
S':'
S'\x00'
tp4480
(dp4481
S'\x00'
I2
ss(g158
g272
g793
tp4482
(dp4483
g391
I1
ss(g323
g907
g1081
tp4484
(dp4485
g545
I1
ss(S'Yes'
p4486
S','
g1289
tp4487
(dp4488
g516
I1
ss(g148
g81
S'.'
tp4489
(dp4490
S'\x00'
I1
ss(g262
S'I'
g1789
tp4491
(dp4492
g4084
I1
ss(g89
S'a'
g1108
tp4493
(dp4494
g496
I1
ss(g540
g184
g555
tp4495
(dp4496
g1066
I1
ss(S'Why'
p4497
S','
g1268
tp4498
(dp4499
S','
I1
ss(S'A'
g287
S'.'
tp4500
(dp4501
S'\x00'
I1
ss(g558
g1856
S','
tp4502
(dp4503
g1655
I1
ss(g2589
g264
g757
tp4504
(dp4505
g1033
I1
ss(g1313
g87
g796
tp4506
(dp4507
g107
I1
ss(g1006
g356
S'.'
tp4508
(dp4509
S'\x00'
I1
ss(g454
g2532
g1969
tp4510
(dp4511
S','
I2
sS'.'
I1
ss(S' '
S'O'
g18
tp4512
(dp4513
S';'
I1
ss(S','
g1313
g87
tp4514
(dp4515
g796
I1
ss(g1061
g64
S'I'
tp4516
(dp4517
g332
I1
ss(S'I'
g1385
g128
tp4518
(dp4519
g1007
I1
sg1008
I1
ss(g858
g821
g74
tp4520
(dp4521
g13
I1
ss(g72
S'I'
g117
tp4522
(dp4523
g298
I1
ss(g1925
S','
g2594
tp4524
(dp4525
S';'
I1
ss(g45
S','
g60
tp4526
(dp4527
g190
I1
ss(S','
g2358
g708
tp4528
(dp4529
g157
I1
ss(g1129
g1342
g437
tp4530
(dp4531
g554
I1
ss(g223
S'.'
S'\x00'
tp4532
(dp4533
S'\x00'
I2
ss(S'I'
g132
g641
tp4534
(dp4535
g147
I1
ss(g174
S','
g2358
tp4536
(dp4537
g708
I1
ss(g2044
g447
g2047
tp4538
(dp4539
S'.'
I1
ss(g2099
g718
g607
tp4540
(dp4541
g1031
I1
ss(S'I'
g71
g121
tp4542
(dp4543
g1132
I1
ss(g64
S'I'
g332
tp4544
(dp4545
g270
I1
ss(g145
g1003
g515
tp4546
(dp4547
g116
I1
ss(S' '
g143
S';'
tp4548
(dp4549
g2092
I1
sg541
I1
ss(g545
g1049
g1034
tp4550
(dp4551
S'I'
I1
ss(g1482
S','
g1485
tp4552
(dp4553
S';'
I1
ss(g2312
S'a'
g122
tp4554
(dp4555
S'.'
I1
ss(g1084
g1593
g944
tp4556
(dp4557
g1006
I1
ss(g222
g76
S';'
tp4558
(dp4559
g1746
I1
ss(g296
g175
g213
tp4560
(dp4561
g502
I1
ss(g555
g1066
g310
tp4562
(dp4563
S'.'
I1
ss(g189
S'.'
S'\x00'
tp4564
(dp4565
S'\x00'
I2
ss(g436
g135
g1016
tp4566
(dp4567
g1032
I1
ss(g399
g115
g943
tp4568
(dp4569
g105
I1
ss(g2117
g927
g2120
tp4570
(dp4571
S'.'
I1
ss(S' '
g1977
S'.'
tp4572
(dp4573
S'\x00'
I1
ss(S'I'
g296
g175
tp4574
(dp4575
g213
I1
ss(g2628
S'.'
S'\x00'
tp4576
(dp4577
S'\x00'
I28
ss(g268
g834
g2627
tp4578
(dp4579
S'say'
p4580
I1
ss(g33
S','
g2515
tp4581
(dp4582
S';'
I1
sS','
I2
ss(g526
g1024
S'I'
tp4583
(dp4584
g220
I1
ss(g631
S','
g2757
tp4585
(dp4586
S'.'
I2
ss(S' '
g255
g167
tp4587
(dp4588
g1147
I1
ss(g38
S','
g1767
tp4589
(dp4590
g174
I1
ss(g290
g1115
g221
tp4591
(dp4592
S'.'
I1
ss(g437
g554
g1741
tp4593
(dp4594
g918
I1
ss(g1219
g687
S'I'
tp4595
(dp4596
g329
I1
ss(g125
S'I'
g1273
tp4597
(dp4598
g939
I1
ss(g844
g1879
g638
tp4599
(dp4600
S'.'
I1
ss(g539
g162
g11
tp4601
(dp4602
g47
I1
ss(g2130
S','
g119
tp4603
(dp4604
S'I'
I1
ss(g141
g210
g101
tp4605
(dp4606
g1171
I1
ss(g281
g614
S'.'
tp4607
(dp4608
S'\x00'
I1
ss(g940
g716
g1129
tp4609
(dp4610
g1342
I1
ss(S'The'
p4611
g2469
S'.'
tp4612
(dp4613
S'\x00'
I1
ss(g1203
g730
g1025
tp4614
(dp4615
g244
I1
ss(g907
g1081
g545
tp4616
(dp4617
g1049
I1
ss(g90
S'I'
g2070
tp4618
(dp4619
g285
I1
ssa(dp4620
(g313
g291
g967
g186
tp4621
(dp4622
S','
I1
ss(g1638
g683
g1052
g1112
tp4623
(dp4624
g176
I1
ss(g815
g2378
S'a'
g268
tp4625
(dp4626
g834
I1
ss(g43
g36
g288
S','
tp4627
(dp4628
g1802
I1
ss(g574
g1827
g2125
S'.'
tp4629
(dp4630
S'\x00'
I1
ss(g1422
g350
g905
g465
tp4631
(dp4632
S','
I1
ss(g366
g15
g874
g690
tp4633
(dp4634
g79
I1
ss(g124
g976
g212
S'.'
tp4635
(dp4636
S'\x00'
I1
ss(g918
g1678
g1053
g1681
tp4637
(dp4638
g1326
I1
ss(S','
g136
S','
g20
tp4639
(dp4640
g1076
I1
ss(S' '
g153
S','
g52
tp4641
(dp4642
S';'
I1
ss(S','
S'I'
g2267
g137
tp4643
(dp4644
g199
I1
ss(g466
g1094
g1035
g159
tp4645
(dp4646
g215
I1
ss(g874
g690
g79
g252
tp4647
(dp4648
g466
I1
ss(g1049
g1034
S'I'
g1262
tp4649
(dp4650
g435
I1
ss(g611
g764
g94
g831
tp4651
(dp4652
g1133
I1
ss(g116
g129
S'a'
g92
tp4653
(dp4654
g23
I1
ss(g1084
g1593
g944
g1006
tp4655
(dp4656
g356
I1
ss(S','
g1767
g174
S','
tp4657
(dp4658
g2358
I1
ss(S'I'
g233
g75
g590
tp4659
(dp4660
g7
I1
ss(S','
g1655
S'.'
S'\x00'
tp4661
(dp4662
S'\x00'
I7
ss(g107
g103
g740
g2541
tp4663
(dp4664
S','
I1
ss(g237
g729
g31
S';'
tp4665
(dp4666
g204
I1
ss(g2526
g2117
g927
g2120
tp4667
(dp4668
S'.'
I1
ss(S','
g1469
g406
g1472
tp4669
(dp4670
S'.'
I1
ss(g945
g58
g109
g820
tp4671
(dp4672
S'.'
I1
ss(S' '
g1816
S'.'
S'\x00'
tp4673
(dp4674
S'\x00'
I1
ss(g1232
g191
g112
g110
tp4675
(dp4676
g868
I1
ss(g47
g508
g83
S','
tp4677
(dp4678
g2304
I1
ss(g620
g521
g228
g28
tp4679
(dp4680
g229
I1
ss(S','
g1802
S','
g2112
tp4681
(dp4682
g55
I1
ss(g72
S'I'
g117
g298
tp4683
(dp4684
g168
I1
ss(g859
g518
g345
g2620
tp4685
(dp4686
g2243
I1
ss(g434
S','
g863
g788
tp4687
(dp4688
g634
I1
ss(S' '
g255
g167
g1147
tp4689
(dp4690
g407
I1
ss(S'I'
g2526
g2117
g927
tp4691
(dp4692
g2120
I1
ss(S' '
g2222
g225
g275
tp4693
(dp4694
g91
I1
ss(S','
g857
g322
S'I'
tp4695
(dp4696
g217
I1
ss(S'a'
g122
S'.'
S'\x00'
tp4697
(dp4698
S'\x00'
I1
ss(S';'
g541
g547
g142
tp4699
(dp4700
g170
I1
ss(S';'
g1780
g56
g928
tp4701
(dp4702
g546
I1
ss(g39
g896
g198
g260
tp4703
(dp4704
g63
I1
ss(g911
g395
g1013
g34
tp4705
(dp4706
S'.'
I1
ss(S'I'
g284
S','
g1738
tp4707
(dp4708
g689
I1
ss(S','
g855
g751
g118
tp4709
(dp4710
g585
I1
ss(S','
g1214
S','
g864
tp4711
(dp4712
g2573
I1
sg308
I1
ss(S' '
g3489
g2373
S'a'
tp4713
(dp4714
g126
I1
ss(S'I'
g2330
g807
g919
tp4715
(dp4716
S','
I1
ss(S' '
g194
g9
S','
tp4717
(dp4718
S'I'
I1
ss(g664
g171
S','
g1219
tp4719
(dp4720
g687
I1
ss(g143
S';'
g541
g547
tp4721
(dp4722
g142
I1
ss(g38
S','
g1767
g174
tp4723
(dp4724
S','
I1
ss(S'I'
g293
g283
g96
tp4725
(dp4726
g321
I1
ss(g1342
g437
g554
g1741
tp4727
(dp4728
g918
I1
ss(g1475
g392
S'I'
g1671
tp4729
(dp4730
g1805
I1
ss(S' '
S'I'
g2671
g1822
tp4731
(dp4732
g1008
I1
ss(g4611
g2469
S'.'
S'\x00'
tp4733
(dp4734
S'\x00'
I1
ss(S'I'
g1262
g435
g22
tp4735
(dp4736
S'?'
I1
ss(g658
g295
g950
g280
tp4737
(dp4738
g267
I1
ss(g204
g231
g232
g188
tp4739
(dp4740
g123
I1
ss(g238
g44
g257
g1095
tp4741
(dp4742
g1196
I1
ss(S'.'
g77
S'I'
g141
tp4743
(dp4744
g210
I1
ss(S' '
g42
S'I'
g216
tp4745
(dp4746
S','
I1
ss(g508
g83
S','
g2304
tp4747
(dp4748
S'I'
I1
ss(g1326
g799
S'.'
g125
tp4749
(dp4750
S'I'
I1
ss(g1660
g140
g671
S'.'
tp4751
(dp4752
S'\x00'
I1
ss(g862
g262
S'I'
g1789
tp4753
(dp4754
g4084
I1
ss(S','
g102
g61
S'.'
tp4755
(dp4756
S'\x00'
I1
ss(g185
g884
g200
g810
tp4757
(dp4758
g932
I1
ss(g754
g630
g347
g442
tp4759
(dp4760
g66
I1
ss(g111
S','
g860
g396
tp4761
(dp4762
g93
I1
ss(g474
g234
S','
g2011
tp4763
(dp4764
g684
I1
ss(g220
g1056
g1888
g469
tp4765
(dp4766
S'I'
I1
ss(g330
g1102
S','
g4461
tp4767
(dp4768
S'.'
I1
ss(g85
S','
S'I'
g297
tp4769
(dp4770
g214
I1
ss(g3667
g2317
S':'
S'\x00'
tp4771
(dp4772
S'\x00'
I1
ss(S' '
g1607
g777
g54
tp4773
(dp4774
g637
I1
ss(g155
g248
g646
g1247
tp4775
(dp4776
g748
I1
ss(g71
g121
g1132
g16
tp4777
(dp4778
g366
I1
ss(g209
g158
g272
g793
tp4779
(dp4780
g391
I1
ss(g416
g38
S','
g1767
tp4781
(dp4782
g174
I1
ss(g1025
g244
g457
g1702
tp4783
(dp4784
g945
I1
ss(S'a'
g289
g815
g2378
tp4785
(dp4786
S'a'
I1
ss(g54
g637
S'a'
g1109
tp4787
(dp4788
g1073
I1
ss(g539
g162
g11
g47
tp4789
(dp4790
g508
I1
ss(g173
g35
g425
S'I'
tp4791
(dp4792
g2174
I1
ss(g633
g436
g135
g1016
tp4793
(dp4794
g1032
I1
ss(g2222
g225
g275
g91
tp4795
(dp4796
g1150
I1
ss(g2597
g987
g139
g837
tp4797
(dp4798
g990
I1
ss(S';'
g2266
g1602
g629
tp4799
(dp4800
g78
I1
ss(g182
g326
g1027
g124
tp4801
(dp4802
g976
I1
ss(S','
g861
g1427
g908
tp4803
(dp4804
g1256
I1
ss(g118
g585
g17
g474
tp4805
(dp4806
g234
I1
ss(g1805
g1180
g1177
g658
tp4807
(dp4808
g295
I1
ss(g1482
S','
g1485
S';'
tp4809
(dp4810
g1780
I1
ss(g1427
g908
g1256
g239
tp4811
(dp4812
g532
I1
ss(g340
g163
S','
g1313
tp4813
(dp4814
g87
I1
ss(g64
S'I'
g332
g270
tp4815
(dp4816
g160
I1
ss(g93
g305
S'a'
g189
tp4817
(dp4818
S'.'
I1
ss(g2011
g684
g1286
g242
tp4819
(dp4820
S'a'
I1
ss(g145
g1003
g515
g116
tp4821
(dp4822
g129
I1
ss(g596
g1828
g131
g593
tp4823
(dp4824
g251
I1
ss(g1089
g750
g50
g1187
tp4825
(dp4826
g357
I1
ss(S' '
g1265
S','
g857
tp4827
(dp4828
g322
I1
ss(g276
g1000
g224
S'?'
tp4829
(dp4830
S'\x00'
I1
ss(S' '
g2446
g1161
S'.'
tp4831
(dp4832
S'\x00'
I2
ss(g99
g922
g910
S'.'
tp4833
(dp4834
S'\x00'
I1
ss(g117
g298
g168
g138
tp4835
(dp4836
g266
I1
ss(S','
g2515
S';'
S'I'
tp4837
(dp4838
g296
I1
ss(S','
g1219
g687
S'I'
tp4839
(dp4840
g329
I1
ss(S' '
g2399
S';'
g542
tp4841
(dp4842
g70
I1
ss(S';'
g1298
g246
S'I'
tp4843
(dp4844
g65
I1
ss(g631
S','
g2757
S'.'
tp4845
(dp4846
g90
I1
sS'\x00'
I1
ss(S' '
g53
S'.'
S'\x00'
tp4847
(dp4848
S'\x00'
I2
ss(g289
g815
g2378
S'a'
tp4849
(dp4850
g268
I1
ss(S','
g2030
S'.'
g77
tp4851
(dp4852
S'I'
I1
ss(g708
g157
g196
g271
tp4853
(dp4854
g113
I1
ss(g982
g619
g399
g115
tp4855
(dp4856
g943
I1
ss(S','
g1738
g689
g281
tp4857
(dp4858
g614
I1
ss(g186
S','
g865
g187
tp4859
(dp4860
g824
I1
ss(g1056
g1888
g469
S'I'
tp4861
(dp4862
g2353
I1
ss(g630
g347
g442
g66
tp4863
(dp4864
g785
I1
ss(S' '
g278
g482
S'.'
tp4865
(dp4866
S'\x00'
I1
ss(g2165
g276
g1000
g224
tp4867
(dp4868
S'?'
I1
ss(g1593
g944
g1006
g356
tp4869
(dp4870
S'.'
I1
ss(g4497
S','
g1268
S','
tp4871
(dp4872
g3859
I1
ss(g23
g377
g499
g253
tp4873
(dp4874
g596
I1
ss(g2373
S'a'
g126
g316
tp4875
(dp4876
S','
I1
ss(S'a'
g1109
g1073
g685
tp4877
(dp4878
S'a'
I1
ss(S' '
g3667
g2317
S':'
tp4879
(dp4880
S'\x00'
I1
ss(g1381
g563
g982
g619
tp4881
(dp4882
g399
I1
ss(g520
g88
S','
g1458
tp4883
(dp4884
g32
I1
ss(S' '
g2628
S'.'
S'\x00'
tp4885
(dp4886
S'\x00'
I14
ss(g1822
g1008
S'I'
g1465
tp4887
(dp4888
g1103
I1
ss(S','
g2361
S','
g2111
tp4889
(dp4890
g1394
I1
ss(S'I'
g1660
g140
g671
tp4891
(dp4892
S'.'
I1
ss(S';'
g2556
g263
g95
tp4893
(dp4894
g39
I1
ss(g28
g229
g205
S'a'
tp4895
(dp4896
g148
I1
ss(g245
g282
S';'
g1232
tp4897
(dp4898
g191
I1
ss(g231
g232
g188
g123
tp4899
(dp4900
g106
I1
ss(g1955
S'I'
g209
g158
tp4901
(dp4902
g272
I1
ss(S' '
g237
g729
g31
tp4903
(dp4904
S';'
I1
ss(g1140
g699
g2196
g2165
tp4905
(dp4906
g276
I1
ss(g713
g51
S'.'
S'\x00'
tp4907
(dp4908
S'\x00'
I1
ss(g269
g1084
g1593
g944
tp4909
(dp4910
g1006
I1
ss(g731
g1925
S','
g2594
tp4911
(dp4912
S';'
I1
ss(g350
g905
g465
S','
tp4913
(dp4914
g1449
I1
ss(S','
S'I'
g297
g214
tp4915
(dp4916
g240
I1
ss(S' '
S'I'
g2145
g243
tp4917
(dp4918
g230
I1
ss(g280
g267
S'.'
S'\x00'
tp4919
(dp4920
S'\x00'
I1
ss(g164
g134
g41
g29
tp4921
(dp4922
g203
I1
ss(g123
g106
S'.'
S'\x00'
tp4923
(dp4924
S'\x00'
I1
ss(g2044
g447
g2047
S'.'
tp4925
(dp4926
S'\x00'
I1
ss(g437
g554
g1741
g918
tp4927
(dp4928
g1678
I1
ss(S','
S'I'
g330
g1102
tp4929
(dp4930
S','
I1
ss(S' '
S'I'
g1819
g111
tp4931
(dp4932
S','
I1
ss(S'I'
g117
g298
g168
tp4933
(dp4934
g138
I1
ss(g1627
g691
g376
g911
tp4935
(dp4936
g395
I1
ss(S'a'
g268
g834
g2627
tp4937
(dp4938
g4580
I1
ss(g2312
S'a'
g122
S'.'
tp4939
(dp4940
S'\x00'
I1
ss(S'I'
g330
g1102
S','
tp4941
(dp4942
g4461
I1
ss(g4084
g2099
g718
g607
tp4943
(dp4944
g1031
I1
ss(g131
g593
g251
S'.'
tp4945
(dp4946
S'\x00'
I1
ss(S','
S'I'
g2330
g807
tp4947
(dp4948
g919
I1
ss(S','
g858
g821
g74
tp4949
(dp4950
g13
I1
ss(S','
g1449
S','
g862
tp4951
(dp4952
g262
I1
ss(g3859
g2573
g977
S','
tp4953
(dp4954
g2370
I1
ss(g232
g188
g123
g106
tp4955
(dp4956
S'.'
I1
ss(g153
S','
g52
S';'
tp4957
(dp4958
g195
I1
ss(g2556
g263
g95
g39
tp4959
(dp4960
g896
I1
ss(g242
S'a'
g1495
S';'
tp4961
(dp4962
g2266
I1
ss(g254
S','
g853
g693
tp4963
(dp4964
g57
I1
ss(g2671
g1822
g1008
S'I'
tp4965
(dp4966
g1465
I1
ss(g2541
S','
g156
S','
tp4967
(dp4968
g136
I1
ss(g202
S','
g2582
S';'
tp4969
(dp4970
g10
I1
ss(g1746
S'I'
g201
g207
tp4971
(dp4972
g256
I1
ss(g25
g1166
S'I'
g331
tp4973
(dp4974
g940
I1
ss(S'I'
g201
g207
g256
tp4975
(dp4976
g30
I1
ss(S';'
g539
g162
g11
tp4977
(dp4978
g47
I1
ss(g159
g215
S','
g12
tp4979
(dp4980
g659
I1
ss(S' '
g2692
g430
g323
tp4981
(dp4982
g907
I1
ss(g1802
S','
g2112
g55
tp4983
(dp4984
g223
I1
ss(g285
g1038
g1962
g150
tp4985
(dp4986
g254
I1
ss(g171
S','
g1219
g687
tp4987
(dp4988
S'I'
I1
ss(g1384
g1206
g633
g436
tp4989
(dp4990
g135
I1
ss(g1214
S','
g864
g308
tp4991
(dp4992
g1976
I1
ss(g877
g286
S';'
g1584
tp4993
(dp4994
g2597
I1
ss(S';'
g1627
g691
g376
tp4995
(dp4996
g911
I1
ss(g837
g990
g1028
g2106
tp4997
(dp4998
g82
I1
ss(S' '
g4438
S','
g1469
tp4999
(dp5000
g406
I1
ss(g63
S'I'
g152
g726
tp5001
(dp5002
S'.'
I1
ss(g1094
g1035
g159
g215
tp5003
(dp5004
S','
I1
ss(g69
g664
g171
S','
tp5005
(dp5006
g1219
I1
ss(g844
g1879
g638
S'.'
tp5007
(dp5008
S'\x00'
I1
ss(g529
g273
g279
g197
tp5009
(dp5010
g871
I1
ss(g1180
g1177
g658
g295
tp5011
(dp5012
g950
I1
ss(S' '
g1922
g731
g1925
tp5013
(dp5014
S','
I1
ss(g997
S'I'
g1411
g80
tp5015
(dp5016
g337
I1
ss(S','
g2112
g55
g223
tp5017
(dp5018
S'.'
I1
ss(g203
g245
g282
S';'
tp5019
(dp5020
g1232
I1
ss(g757
g1033
g261
g179
tp5021
(dp5022
S';'
I1
ss(g554
g1741
g918
g1678
tp5023
(dp5024
g1053
I1
ss(g2117
g927
g2120
S'.'
tp5025
(dp5026
S'\x00'
I1
ss(g219
g130
g43
g36
tp5027
(dp5028
g288
I1
ss(S'a'
g92
g23
g377
tp5029
(dp5030
g499
I1
ss(g2267
g137
g199
g277
tp5031
(dp5032
S'a'
I1
ss(S';'
g2092
S'I'
g233
tp5033
(dp5034
g75
I1
ss(g1073
g685
S'a'
g24
tp5035
(dp5036
g454
I1
ss(g42
S'I'
g216
S','
tp5037
(dp5038
g102
I1
ss(g103
g740
g2541
S','
tp5039
(dp5040
g156
I1
ss(g1289
g516
g909
g185
tp5041
(dp5042
g884
I1
ss(g2070
g285
g1038
g1962
tp5043
(dp5044
g150
I1
ss(g1256
g239
g532
g192
tp5045
(dp5046
S'.'
I1
ss(g1469
g406
g1472
S'.'
tp5047
(dp5048
S'\x00'
I1
ss(g21
g172
g529
g273
tp5049
(dp5050
g279
I1
ss(g207
g256
g30
g164
tp5051
(dp5052
g134
I1
ss(g187
g824
g69
g664
tp5053
(dp5054
g171
I1
ss(g110
g868
g45
S','
tp5055
(dp5056
g60
I1
ss(g853
g693
g57
g19
tp5057
(dp5058
g26
I1
ss(g1458
g32
S','
g855
tp5059
(dp5060
g751
I1
ss(g1103
g1468
S'a'
g235
tp5061
(dp5062
g574
I1
ss(g210
g101
g1171
g519
tp5063
(dp5064
g313
I1
ss(g157
g196
g271
g113
tp5065
(dp5066
g181
I1
ss(g686
g8
g59
g1174
tp5067
(dp5068
g299
I1
ss(g197
g871
g222
g76
tp5069
(dp5070
S';'
I1
ss(g299
g211
S'.'
S'\x00'
tp5071
(dp5072
S'\x00'
I1
ss(S';'
g1584
g2597
g987
tp5073
(dp5074
g139
I1
ss(g977
S','
g2370
g520
tp5075
(dp5076
g88
I1
ss(g634
g1384
g1206
g633
tp5077
(dp5078
g436
I1
ss(g659
g2589
g264
g757
tp5079
(dp5080
g1033
I1
ss(g2330
g807
g919
S','
tp5081
(dp5082
g169
I1
ss(g129
S'a'
g92
g23
tp5083
(dp5084
g377
I1
ss(g347
g442
g66
g785
tp5085
(dp5086
g1144
I1
ss(g284
S','
g1738
g689
tp5087
(dp5088
g281
I1
ss(g48
g46
S'.'
S'\x00'
tp5089
(dp5090
S'\x00'
I1
ss(g243
g230
g460
S','
tp5091
(dp5092
g2236
I1
ss(g272
g793
g391
g340
tp5093
(dp5094
g163
I1
ss(g871
g222
g76
S';'
tp5095
(dp5096
g1746
I1
ss(g2196
g2165
g276
g1000
tp5097
(dp5098
g224
I1
ss(g1038
g1962
g150
g254
tp5099
(dp5100
S','
I1
ss(g730
g1025
g244
g457
tp5101
(dp5102
g1702
I1
ss(g608
g127
S'-'
g182
tp5103
(dp5104
g326
I1
ss(g2023
g161
S':'
S'\x00'
tp5105
(dp5106
S'\x00'
I1
ss(g278
g482
S'.'
S'\x00'
tp5107
(dp5108
S'\x00'
I1
ss(g2872
g2739
g906
g1610
tp5109
(dp5110
S','
I1
ss(g8
g59
g1174
g299
tp5111
(dp5112
g211
I1
ss(S' '
g4401
S','
g856
tp5113
(dp5114
S'a'
I1
ss(g175
g213
g502
g517
tp5115
(dp5116
g166
I1
ss(g891
g2160
g632
S';'
tp5117
(dp5118
g539
I1
ss(g88
S','
g1458
g32
tp5119
(dp5120
S','
I1
ss(S'I'
g1259
S'.'
S'\x00'
tp5121
(dp5122
S'\x00'
I1
ss(g950
g280
g267
S'.'
tp5123
(dp5124
S'\x00'
I1
ss(g796
g107
g103
g740
tp5125
(dp5126
g2541
I1
ss(S'I'
g120
g67
g754
tp5127
(dp5128
g630
I1
ss(g2160
g632
S';'
g539
tp5129
(dp5130
g162
I1
ss(g1147
g407
S'?'
S'\x00'
tp5131
(dp5132
S'\x00'
I1
ss(g16
g366
g15
g874
tp5133
(dp5134
g690
I1
ss(g137
g199
g277
S'a'
tp5135
(dp5136
g292
I1
ss(g183
S','
g861
g1427
tp5137
(dp5138
g908
I1
ss(g2582
S';'
g10
g37
tp5139
(dp5140
g21
I1
ss(g151
g505
g1189
g991
tp5141
(dp5142
g208
I1
ss(g542
g70
g844
g1879
tp5143
(dp5144
g638
I1
ss(g395
g1013
g34
S'.'
tp5145
(dp5146
S'\x00'
I1
ss(S';'
S'I'
g2526
g2117
tp5147
(dp5148
g927
I1
ss(S' '
g4611
g2469
S'.'
tp5149
(dp5150
S'\x00'
I1
ss(g262
S'I'
g1789
g4084
tp5151
(dp5152
g2099
I1
ss(g139
g837
g990
g1028
tp5153
(dp5154
g2106
I1
ss(g181
S','
g27
g238
tp5155
(dp5156
g44
I1
ss(g855
g751
g118
g585
tp5157
(dp5158
g17
I1
ss(g454
g2532
g1969
S','
tp5159
(dp5160
g2756
I2
ss(S'I'
g1819
g111
S','
tp5161
(dp5162
g860
I1
ss(g2594
S';'
g1638
g683
tp5163
(dp5164
g1052
I1
ss(S'I'
g241
S','
g290
tp5165
(dp5166
g1115
I1
ss(g1132
g16
g366
g15
tp5167
(dp5168
g874
I1
ss(g2532
g1969
S','
g2756
tp5169
(dp5170
g1418
I2
ss(g919
S','
g169
g183
tp5171
(dp5172
S','
I1
ss(S'O'
g18
S';'
g226
tp5173
(dp5174
g686
I1
ss(g847
S','
S'I'
g2267
tp5175
(dp5176
g137
I1
ss(g354
S';'
g1298
g246
tp5177
(dp5178
S'I'
I1
ss(g391
g340
g163
S','
tp5179
(dp5180
g1313
I1
ss(S' '
g155
g248
g646
tp5181
(dp5182
g1247
I1
ss(g2756
g1418
S'a'
g289
tp5183
(dp5184
g815
I1
ss(S':'
g997
S'I'
g1411
tp5185
(dp5186
g80
I1
ss(g831
g1133
g354
S';'
tp5187
(dp5188
g1298
I1
ss(g130
g43
g36
g288
tp5189
(dp5190
S','
I1
ss(g115
g943
g105
S'.'
tp5191
(dp5192
S'\x00'
I1
ss(g1419
S';'
g540
g184
tp5193
(dp5194
g555
I1
ss(g2099
g718
g607
g1031
tp5195
(dp5196
S'I'
I1
ss(S','
g2011
g684
g1286
tp5197
(dp5198
g242
I1
ss(S' '
g1482
S','
g1485
tp5199
(dp5200
S';'
I1
ss(g2083
g104
S'I'
g120
tp5201
(dp5202
g67
I1
ss(g431
g1499
g749
g680
tp5203
(dp5204
S','
I1
ss(g128
g1007
g1381
g563
tp5205
(dp5206
g982
I1
ss(g632
S';'
g539
g162
tp5207
(dp5208
g11
I1
ss(g436
g135
g1016
g1032
tp5209
(dp5210
g490
I1
ss(g607
g1031
S'I'
g1660
tp5211
(dp5212
g140
I1
ss(g2361
S','
g2111
g1394
tp5213
(dp5214
g3809
I1
ss(g2378
S'a'
g268
g834
tp5215
(dp5216
g2627
I1
ss(g90
S'I'
g2070
g285
tp5217
(dp5218
g1038
I1
ss(g1940
g608
g127
S'-'
tp5219
(dp5220
g182
I1
ss(g1738
g689
g281
g614
tp5221
(dp5222
S'.'
I1
ss(g1490
g84
g97
g133
tp5223
(dp5224
g250
I1
ss(g521
g228
g28
g229
tp5225
(dp5226
g205
I1
ss(S'Certainly'
S','
S'Socrates'
S'.'
tp5227
(dp5228
S'\x00'
I1
ss(S','
g119
S'I'
g71
tp5229
(dp5230
g121
I1
ss(g976
g212
S'.'
S'\x00'
tp5231
(dp5232
S'\x00'
I1
ss(g863
g788
g634
g1384
tp5233
(dp5234
g1206
I1
ss(S','
g865
g187
g824
tp5235
(dp5236
g69
I1
ss(S' '
g1211
S','
g1214
tp5237
(dp5238
S','
I1
ss(g629
g78
g1089
g750
tp5239
(dp5240
g50
I1
ss(g987
g139
g837
g990
tp5241
(dp5242
g1028
I1
ss(g87
g796
g107
g103
tp5243
(dp5244
g740
I1
ss(S'I'
g219
g130
g43
tp5245
(dp5246
g36
I1
ss(g240
g301
g901
g688
tp5247
(dp5248
g1140
I1
ss(g558
g1856
S','
g1655
tp5249
(dp5250
S'.'
I1
ss(g326
g1027
g124
g976
tp5251
(dp5252
g212
I1
ss(g1789
g4084
g2099
g718
tp5253
(dp5254
g607
I1
ss(g190
g416
g38
S','
tp5255
(dp5256
g1767
I1
ss(g555
g1066
g310
S'.'
tp5257
(dp5258
S'\x00'
I1
ss(S','
g3361
S','
S'I'
tp5259
(dp5260
g154
I1
sg2330
I1
ss(g1335
g346
S'.'
S'\x00'
tp5261
(dp5262
S'\x00'
I2
ss(g37
g21
g172
g529
tp5263
(dp5264
g273
I1
ss(S','
g156
S','
g136
tp5265
(dp5266
S','
I1
ss(g1076
g173
g35
g425
tp5267
(dp5268
S'I'
I1
ss(g26
g493
g1026
g25
tp5269
(dp5270
g1166
I1
ss(g193
g877
g286
S';'
tp5271
(dp5272
g1584
I1
ss(g657
g1050
g85
S','
tp5273
(dp5274
S'I'
I1
ss(g45
S','
g60
g190
tp5275
(dp5276
g416
I1
ss(g967
g186
S','
g865
tp5277
(dp5278
g187
I1
ss(g230
g460
S','
g2236
tp5279
(dp5280
S'.'
I1
ss(S'I'
g297
g214
g240
tp5281
(dp5282
g301
I1
ss(g41
g29
g203
g245
tp5283
(dp5284
g282
I1
ss(S':'
g98
S'I'
g151
tp5285
(dp5286
g505
I1
ss(g687
S'I'
g329
g717
tp5287
(dp5288
g236
I1
ss(g1499
g749
g680
S','
tp5289
(dp5290
g2361
I1
ss(g3931
S';'
S'I'
g2526
tp5291
(dp5292
g2117
I1
ss(g392
S'I'
g1671
g1805
tp5293
(dp5294
g1180
I1
ss(g258
g178
g487
g850
tp5295
(dp5296
S'.'
I1
ss(g1962
g150
g254
S','
tp5297
(dp5298
g853
I1
ss(g17
g474
g234
S','
tp5299
(dp5300
g2011
I1
ss(S';'
g1955
S'I'
g209
tp5301
(dp5302
g158
I1
ss(S';'
g2219
g369
g657
tp5303
(dp5304
g1050
I1
ss(g1702
g945
g58
g109
tp5305
(dp5306
g820
I1
ss(g249
S','
g259
S'.'
tp5307
(dp5308
S'\x00'
I1
ss(g3942
S','
g33
S','
tp5309
(dp5310
g2515
I2
ss(S'indeed'
S','
g3361
S','
tp5311
(dp5312
S'I'
I2
ss(g154
g891
g2160
g632
tp5313
(dp5314
S';'
I1
ss(S'a'
g189
S'.'
S'\x00'
tp5315
(dp5316
S'\x00'
I1
ss(g337
g355
g611
g764
tp5317
(dp5318
g94
I1
ss(S'I'
g141
g210
g101
tp5319
(dp5320
g1171
I1
ss(g3878
g1475
g392
S'I'
tp5321
(dp5322
g1671
I1
ss(S' '
g99
g922
g910
tp5323
(dp5324
S'.'
I1
ss(g908
g1256
g239
g532
tp5325
(dp5326
g192
I1
ss(g1206
g633
g436
g135
tp5327
(dp5328
g1016
I1
ss(g1313
g87
g796
g107
tp5329
(dp5330
g103
I1
ss(g1879
g638
S'.'
S'\x00'
tp5331
(dp5332
S'\x00'
I1
ss(S';'
g2083
g104
S'I'
tp5333
(dp5334
g120
I1
ss(g2266
g1602
g629
g78
tp5335
(dp5336
g1089
I1
ss(g546
g258
g178
g487
tp5337
(dp5338
g850
I1
ss(g2177
g145
g1003
g515
tp5339
(dp5340
g116
I1
ss(g169
g183
S','
g861
tp5341
(dp5342
g1427
I1
ss(g286
S';'
g1584
g2597
tp5343
(dp5344
g987
I1
ss(g1003
g515
g116
g129
tp5345
(dp5346
S'a'
I1
ss(g1922
g731
g1925
S','
tp5347
(dp5348
g2594
I1
ss(g33
S','
g2515
S';'
tp5349
(dp5350
S'I'
I1
ss(g517
g166
S':'
g98
tp5351
(dp5352
S'I'
I1
ss(S'I'
g329
g717
g236
tp5353
(dp5354
S','
I1
ss(g699
g2196
g2165
g276
tp5355
(dp5356
g1000
I1
ss(g4401
S','
g856
S'a'
tp5357
(dp5358
g48
I1
ss(g2145
g243
g230
g460
tp5359
(dp5360
S','
I1
ss(g1828
g131
g593
g251
tp5361
(dp5362
S'.'
I1
ss(g225
g275
g91
g1150
tp5363
(dp5364
g353
I1
ss(g208
g40
g300
S'.'
tp5365
(dp5366
S'\x00'
I1
ss(g909
g185
g884
g200
tp5367
(dp5368
g810
I1
ss(g944
g1006
g356
S'.'
tp5369
(dp5370
S'\x00'
I1
ss(g177
g380
S';'
g1955
tp5371
(dp5372
S'I'
I1
ss(S'I'
g146
g620
g521
tp5373
(dp5374
g228
I1
ss(g1171
g519
g313
g291
tp5375
(dp5376
g967
I1
ss(S' '
g73
S'.'
S'\x00'
tp5377
(dp5378
S'\x00'
I1
ss(S','
g2529
S';'
g2556
tp5379
(dp5380
g683
I1
sg263
I1
sg104
I1
ss(g10
g37
g21
g172
tp5381
(dp5382
g529
I1
ss(S'I'
g1385
g128
g1007
tp5383
(dp5384
g1381
I1
ss(g1066
g310
S'.'
S'\x00'
tp5385
(dp5386
S'\x00'
I1
ss(S' '
g4497
S','
g1268
tp5387
(dp5388
S','
I1
ss(S'I'
g217
S'?'
S'\x00'
tp5389
(dp5390
S'\x00'
I1
ss(g1026
g25
g1166
S'I'
tp5391
(dp5392
g331
I1
ss(S','
g2756
g1418
S'a'
tp5393
(dp5394
g289
I1
sg49
I1
ss(g1034
S'I'
g1262
g435
tp5395
(dp5396
g22
I1
ss(g222
g76
S';'
g1746
tp5397
(dp5398
S'I'
I1
ss(g7
g294
S'.'
S'\x00'
tp5399
(dp5400
S'\x00'
I2
ss(g44
g257
g1095
g1196
tp5401
(dp5402
g1051
I1
ss(g233
g75
g590
g7
tp5403
(dp5404
g294
I1
ss(g213
g502
g517
g166
tp5405
(dp5406
S':'
I1
ss(g35
g425
S'I'
g2174
tp5407
(dp5408
g1141
I1
ss(g380
S';'
g1955
S'I'
tp5409
(dp5410
g209
I1
ss(g515
g116
g129
S'a'
tp5411
(dp5412
g92
I1
ss(S'.'
g90
S'I'
g2070
tp5413
(dp5414
g285
I1
ss(g168
g138
g266
S'.'
tp5415
(dp5416
S'\x00'
I1
ss(g9
S','
S'I'
g330
tp5417
(dp5418
g1102
I1
ss(g540
g184
g555
g1066
tp5419
(dp5420
g310
I1
ss(S' '
S'I'
g219
g130
tp5421
(dp5422
g43
I1
ss(S','
g72
S'I'
g117
tp5423
(dp5424
g298
I1
ss(g215
S','
g12
g659
tp5425
(dp5426
g2589
I1
ss(S';'
g226
g686
g8
tp5427
(dp5428
g59
I1
ss(S','
g259
S'.'
S'\x00'
tp5429
(dp5430
S'\x00'
I1
ss(S','
g864
g308
g1976
tp5431
(dp5432
g2016
I1
ss(g15
g874
g690
g79
tp5433
(dp5434
g252
I1
ss(g62
g558
g1856
S','
tp5435
(dp5436
g1655
I1
ss(g547
g142
g170
g89
tp5437
(dp5438
S'a'
I1
ss(g1000
g224
S'?'
S'\x00'
tp5439
(dp5440
S'\x00'
I1
ss(S','
g33
S','
g2515
tp5441
(dp5442
S';'
I1
sS','
I1
ss(S','
S'I'
g154
g891
tp5443
(dp5444
g2160
I1
ss(g141
g210
g101
g1171
tp5445
(dp5446
g519
I1
ss(g184
g555
g1066
g310
tp5447
(dp5448
S'.'
I1
ss(g66
g785
g1144
g218
tp5449
(dp5450
g526
I1
ss(g2496
S','
g858
g821
tp5451
(dp5452
g74
I1
ss(g4486
S','
g1289
g516
tp5453
(dp5454
g909
I1
ss(S' '
S'I'
g284
S','
tp5455
(dp5456
g1738
I1
ss(g19
g26
g493
g1026
tp5457
(dp5458
g25
I1
ss(S','
g860
g396
g93
tp5459
(dp5460
g305
I1
ss(g693
g57
g19
g26
tp5461
(dp5462
g493
I1
ss(g1141
S':'
g997
S'I'
tp5463
(dp5464
g1411
I1
ss(g79
g252
g466
g1094
tp5465
(dp5466
g1035
I1
ss(g149
S','
g2529
S';'
tp5467
(dp5468
g2556
I1
ss(g152
g726
S'.'
S'I'
tp5469
(dp5470
g146
I1
ss(g150
g254
S','
g853
tp5471
(dp5472
g693
I1
ss(g641
g147
g62
g558
tp5473
(dp5474
g1856
I1
ss(g252
g466
g1094
g1035
tp5475
(dp5476
g159
I1
ss(g196
g271
g113
g181
tp5477
(dp5478
S','
I1
ss(S','
g290
g1115
g221
tp5479
(dp5480
S'.'
I1
ss(S';'
g1232
g191
g112
tp5481
(dp5482
g110
I1
ss(g332
g270
g160
S','
tp5483
(dp5484
g2041
I1
ss(g60
g190
g416
g38
tp5485
(dp5486
S','
I1
ss(g861
g1427
g908
g1256
tp5487
(dp5488
g239
I1
ss(g96
g321
g631
S','
tp5489
(dp5490
g2757
I1
ss(g1465
g1103
g1468
S'a'
tp5491
(dp5492
g235
I1
ss(S';'
g195
g165
g14
tp5493
(dp5494
S','
I1
ss(S'I'
g1465
g1103
g1468
tp5495
(dp5496
S'a'
I1
ss(g729
g31
S';'
g204
tp5497
(dp5498
g231
I1
ss(g357
g434
S','
g863
tp5499
(dp5500
g788
I1
ss(g2305
g206
S'.'
S'\x00'
tp5501
(dp5502
S'\x00'
I1
ss(g2806
g2004
g904
S','
tp5503
(dp5504
g1715
I1
ss(g481
g713
g51
S'.'
tp5505
(dp5506
S'\x00'
I1
ss(g750
g50
g1187
g357
tp5507
(dp5508
g434
I1
ss(S' '
g4486
S','
g1289
tp5509
(dp5510
g516
I1
ss(S' '
g2872
g2739
g906
tp5511
(dp5512
g1610
I1
ss(S'I'
g2145
g243
g230
tp5513
(dp5514
g460
I1
ss(S','
g1289
g516
g909
tp5515
(dp5516
g185
I1
ss(g91
g1150
g353
S','
tp5517
(dp5518
g2030
I1
ss(S'I'
g331
g940
g716
tp5519
(dp5520
g1129
I1
ss(S' '
g1841
g249
S','
tp5521
(dp5522
g259
I1
ss(g138
g266
S'.'
S'\x00'
tp5523
(dp5524
S'\x00'
I1
ss(g425
S'I'
g2174
g1141
tp5525
(dp5526
S':'
I1
ss(g3489
g2373
S'a'
g126
tp5527
(dp5528
g316
I1
ss(g114
g778
g180
g743
tp5529
(dp5530
S'.'
I1
ss(g1144
g218
g526
g1024
tp5531
(dp5532
S'I'
I1
ss(S' '
g1422
g350
g905
tp5533
(dp5534
g465
I1
ss(g321
g631
S','
g2757
tp5535
(dp5536
S'.'
I1
ss(g2030
S'.'
g77
S'I'
tp5537
(dp5538
g141
I1
ss(g331
g940
g716
g1129
tp5539
(dp5540
g1342
I1
ss(S';'
g540
g184
g555
tp5541
(dp5542
g1066
I1
ss(S'I'
g332
g270
g160
tp5543
(dp5544
S','
I1
ss(S','
g2496
S','
g858
tp5545
(dp5546
g821
I1
ss(g864
g308
g1976
g2016
tp5547
(dp5548
g68
I1
ss(S','
g20
g1076
g173
tp5549
(dp5550
g35
I1
ss(g309
S','
g2782
S'.'
tp5551
(dp5552
S'\x00'
I1
ss(S','
g169
g183
S','
tp5553
(dp5554
g861
I1
ss(S'I'
g154
g891
g2160
tp5555
(dp5556
g632
I1
ss(g1909
g481
g713
g51
tp5557
(dp5558
S'.'
I1
ss(g2529
S';'
g2556
g263
tp5559
(dp5560
g95
I1
ss(g1016
g1032
g490
S'.'
tp5561
(dp5562
S'\x00'
I1
ss(g1468
S'a'
g235
g574
tp5563
(dp5564
g1827
I1
ss(S'I'
g1411
g80
g337
tp5565
(dp5566
g355
I1
ss(g1050
g85
S','
S'I'
tp5567
(dp5568
g297
I1
ss(g1109
g1073
g685
S'a'
tp5569
(dp5570
g24
I1
ss(g545
g1049
g1034
S'I'
tp5571
(dp5572
g1262
I1
ss(g726
S'.'
S'I'
g146
tp5573
(dp5574
g620
I1
ss(g2757
S'.'
g90
S'I'
tp5575
(dp5576
g2070
I1
ss(g1177
g658
g295
g950
tp5577
(dp5578
g280
I1
ss(g928
g546
g258
g178
tp5579
(dp5580
g487
I1
ss(S','
g854
g804
g1438
tp5581
(dp5582
g1624
I1
ss(g112
g110
g868
g45
tp5583
(dp5584
S','
I1
ss(g377
g499
g253
g596
tp5585
(dp5586
g1828
I1
ss(g1081
g545
g1049
g1034
tp5587
(dp5588
S'I'
I1
ss(g716
g1129
g1342
g437
tp5589
(dp5590
g554
I1
ss(g282
S';'
g1232
g191
tp5591
(dp5592
g112
I1
ss(S';'
g10
g37
g21
tp5593
(dp5594
g172
I1
ss(g172
g529
g273
g279
tp5595
(dp5596
g197
I1
ss(g256
g30
g164
g134
tp5597
(dp5598
g41
I1
ss(g435
g22
S'?'
S'\x00'
tp5599
(dp5600
S'\x00'
I1
ss(g2620
g2243
S'.'
S'\x00'
tp5601
(dp5602
S'\x00'
I1
ss(g101
g1171
g519
g313
tp5603
(dp5604
g291
I1
ss(g20
g1076
g173
g35
tp5605
(dp5606
g425
I1
ss(g58
g109
g820
S'.'
tp5607
(dp5608
S'\x00'
I1
ss(g854
g804
g1438
g1624
tp5609
(dp5610
S'.'
I1
ss(g140
g671
S'.'
S'\x00'
tp5611
(dp5612
S'\x00'
I1
ss(S' '
g86
g177
g380
tp5613
(dp5614
S';'
I1
ss(g2016
g68
S'.'
S'\x00'
tp5615
(dp5616
S'\x00'
I1
ss(g2358
g708
g157
g196
tp5617
(dp5618
g271
I1
ss(g18
S';'
g226
g686
tp5619
(dp5620
g8
I1
ss(g200
g810
g932
g269
tp5621
(dp5622
g1084
I1
ss(S' '
S'I'
g293
g283
tp5623
(dp5624
g96
I1
ss(g692
g227
g274
S'.'
tp5625
(dp5626
S'\x00'
I1
ss(S'I'
g1671
g1805
g1180
tp5627
(dp5628
g1177
I1
ss(S'I'
g2070
g285
g1038
tp5629
(dp5630
g1962
I1
ss(g563
g982
g619
g399
tp5631
(dp5632
g115
I1
ss(g281
g614
S'.'
S'\x00'
tp5633
(dp5634
S'\x00'
I1
ss(g1495
S';'
g2266
g1602
tp5635
(dp5636
g629
I1
ss(g163
S','
g1313
g87
tp5637
(dp5638
g796
I1
ss(g142
g170
g89
S'a'
tp5639
(dp5640
g1108
I1
ss(g3510
S','
S'I'
g2330
tp5641
(dp5642
g807
I1
ss(g14
S','
g72
S'I'
tp5643
(dp5644
g117
I1
ss(g593
g251
S'.'
S'\x00'
tp5645
(dp5646
S'\x00'
I1
ss(g689
g281
g614
S'.'
tp5647
(dp5648
S'\x00'
I1
ss(g119
S'I'
g71
g121
tp5649
(dp5650
g1132
I1
ss(g585
g17
g474
g234
tp5651
(dp5652
S','
I1
ss(S' '
g2044
g447
g2047
tp5653
(dp5654
S'.'
I1
ss(S'a'
g126
g316
S','
tp5655
(dp5656
g2496
I1
ss(g273
g279
g197
g871
tp5657
(dp5658
g222
I1
ss(g1028
g2106
g82
S'I'
tp5659
(dp5660
g1385
I1
ss(g227
g274
S'.'
S'\x00'
tp5661
(dp5662
S'\x00'
I1
ss(S'I'
g2671
g1822
g1008
tp5663
(dp5664
S'I'
I1
ss(g226
g686
g8
g59
tp5665
(dp5666
g1174
I1
ss(g860
g396
g93
g305
tp5667
(dp5668
S'a'
I1
ss(g2370
g520
g88
S','
tp5669
(dp5670
g1458
I1
ss(g1418
S'a'
g289
g815
tp5671
(dp5672
g2378
I1
ss(g167
g1147
g407
S'?'
tp5673
(dp5674
S'\x00'
I1
ss(S'I'
g132
g641
g147
tp5675
(dp5676
g62
I1
ss(S'a'
g235
g574
g1827
tp5677
(dp5678
g2125
I1
ss(g3361
S','
S'I'
g154
tp5679
(dp5680
g891
I1
ss(S' '
S'A'
g287
S'.'
tp5681
(dp5682
S'\x00'
I1
ss(g690
g79
g252
g466
tp5683
(dp5684
g1094
I1
ss(g994
g309
S','
g2782
tp5685
(dp5686
S'.'
I1
ss(g1051
S'I'
g241
S','
tp5687
(dp5688
g290
I1
ss(g1166
S'I'
g331
g940
tp5689
(dp5690
g716
I1
ss(g3780
S'a'
g49
g1122
tp5691
(dp5692
g2312
I1
ss(g499
g253
g596
g1828
tp5693
(dp5694
g131
I1
ss(S','
g2304
S'I'
g2177
tp5695
(dp5696
g145
I1
ss(g778
g180
g743
S'.'
tp5697
(dp5698
S'\x00'
I1
ss(g355
g611
g764
g94
tp5699
(dp5700
g831
I1
ss(g907
g1081
g545
g1049
tp5701
(dp5702
g1034
I1
ss(g84
g97
g133
g250
tp5703
(dp5704
g1019
I1
ss(g100
g202
S','
g2582
tp5705
(dp5706
S';'
I1
sS'.'
I1
ss(g316
S','
g2496
S','
tp5707
(dp5708
g858
I1
ss(g2304
S'I'
g2177
g145
tp5709
(dp5710
g1003
I1
ss(g270
g160
S','
g2041
tp5711
(dp5712
g694
I1
ss(g1006
g356
S'.'
S'\x00'
tp5713
(dp5714
S'\x00'
I1
ss(S' '
g3017
S','
g854
tp5715
(dp5716
g804
I1
ss(g1032
g490
S'.'
S'\x00'
tp5717
(dp5718
S'\x00'
I1
ss(g1211
S','
g1214
S','
tp5719
(dp5720
g864
I1
ss(g396
g93
g305
S'a'
tp5721
(dp5722
g189
I1
ss(g323
g907
g1081
g545
tp5723
(dp5724
g1049
I1
ss(g40
g300
S'.'
S'\x00'
tp5725
(dp5726
S'\x00'
I1
ss(S'.'
S'I'
g146
g620
tp5727
(dp5728
g521
I1
ss(g518
g345
g2620
g2243
tp5729
(dp5730
S'.'
I1
ss(g785
g1144
g218
g526
tp5731
(dp5732
g1024
I1
ss(g777
g54
g637
S'a'
tp5733
(dp5734
g1109
I1
ss(S' '
g143
S';'
g541
tp5735
(dp5736
g547
I1
ss(g216
S','
g102
g61
tp5737
(dp5738
S'.'
I1
ss(g32
S','
g855
g751
tp5739
(dp5740
g118
I1
ss(g1196
g1051
S'I'
g241
tp5741
(dp5742
S','
I1
ss(g1584
g2597
g987
g139
tp5743
(dp5744
g837
I1
ss(g2106
g82
S'I'
g1385
tp5745
(dp5746
g128
I1
ss(g239
g532
g192
S'.'
tp5747
(dp5748
S'\x00'
I1
ss(g1819
g111
S','
g860
tp5749
(dp5750
g396
I1
ss(S'I'
g220
g1056
g1888
tp5751
(dp5752
g469
I1
ss(g788
g634
g1384
g1206
tp5753
(dp5754
g633
I1
ss(g939
g929
g719
g1940
tp5755
(dp5756
g608
I1
ss(g283
g96
g321
g631
tp5757
(dp5758
S','
I1
ss(g1112
g176
S'.'
S'\x00'
tp5759
(dp5760
S'\x00'
I1
ss(g322
S'I'
g217
S'?'
tp5761
(dp5762
S'\x00'
I1
ss(g1095
g1196
g1051
S'I'
tp5763
(dp5764
g241
I1
ss(g205
S'a'
g148
g81
tp5765
(dp5766
S'.'
I1
ss(S'I'
g71
g121
g1132
tp5767
(dp5768
g16
I1
ss(g1133
g354
S';'
g1298
tp5769
(dp5770
g246
I1
ss(g927
g2120
S'.'
S'\x00'
tp5771
(dp5772
S'\x00'
I1
ss(g929
g719
g1940
g608
tp5773
(dp5774
g127
I1
ss(g2515
S';'
S'I'
g296
tp5775
(dp5776
g175
I1
ss(g234
S','
g2011
g684
tp5777
(dp5778
g1286
I1
ss(g1888
g469
S'I'
g2353
tp5779
(dp5780
g193
I1
ss(g1385
g128
g1007
g1381
tp5781
(dp5782
g563
I1
ss(g1268
S','
g3859
g2573
tp5783
(dp5784
g977
I1
ss(g1150
g353
S','
g2030
tp5785
(dp5786
S'.'
I1
ss(g263
g95
g39
g896
tp5787
(dp5788
g198
I1
ss(g1262
g435
g22
S'?'
tp5789
(dp5790
S'\x00'
I1
ss(S','
g12
g659
g2589
tp5791
(dp5792
g264
I1
ss(g685
S'a'
g24
g454
tp5793
(dp5794
g2532
I1
ss(g906
g1610
S','
g1613
tp5795
(dp5796
S'.'
I1
ss(S','
g2041
g694
S'I'
tp5797
(dp5798
g3878
I1
ss(S' '
g2305
g206
S'.'
tp5799
(dp5800
S'\x00'
I1
ss(g749
g680
S','
g2361
tp5801
(dp5802
S','
I1
ss(g469
S'I'
g2353
g193
tp5803
(dp5804
g877
I1
ss(g257
g1095
g1196
g1051
tp5805
(dp5806
S'I'
I1
ss(g247
g994
g309
S','
tp5807
(dp5808
g2782
I1
ss(S'I'
g151
g505
g1189
tp5809
(dp5810
g991
I1
ss(g1298
g246
S'I'
g65
tp5811
(dp5812
g1061
I1
ss(g134
g41
g29
g203
tp5813
(dp5814
g245
I1
ss(g36
g288
S','
g1802
tp5815
(dp5816
S','
I1
ss(g943
g105
S'.'
S'\x00'
tp5817
(dp5818
S'\x00'
I1
ss(g2573
g977
S','
g2370
tp5819
(dp5820
g520
I1
ss(g55
g223
S'.'
S'\x00'
tp5821
(dp5822
S'\x00'
I1
ss(S'I'
g216
S','
g102
tp5823
(dp5824
g61
I1
ss(g2174
g1141
S':'
g997
tp5825
(dp5826
S'I'
I1
ss(g990
g1028
g2106
g82
tp5827
(dp5828
S'I'
I1
ss(S' '
g144
S'.'
S'\x00'
tp5829
(dp5830
S'\x00'
I1
ss(g56
g928
g546
g258
tp5831
(dp5832
g178
I1
ss(g865
g187
g824
g69
tp5833
(dp5834
g664
I1
ss(g277
S'a'
g292
S'.'
tp5835
(dp5836
S'\x00'
I1
ss(g201
g207
g256
g30
tp5837
(dp5838
g164
I1
ss(g98
S'I'
g151
g505
tp5839
(dp5840
g1189
I1
ss(g120
g67
g754
g630
tp5841
(dp5842
g347
I1
ss(S';'
S'I'
g296
g175
tp5843
(dp5844
g213
I1
ss(S','
g2370
g520
g88
tp5845
(dp5846
S','
I1
ss(g4438
S','
g1469
g406
tp5847
(dp5848
g1472
I1
ss(g218
g526
g1024
S'I'
tp5849
(dp5850
g220
I1
ss(S';'
g1746
S'I'
g201
tp5851
(dp5852
g207
I1
ss(g83
S','
g2304
S'I'
tp5853
(dp5854
g2177
I1
ss(g519
g313
g291
g967
tp5855
(dp5856
g186
I1
ss(g1286
g242
S'a'
g1495
tp5857
(dp5858
S';'
I1
ss(g296
g175
g213
g502
tp5859
(dp5860
g517
I1
ss(g121
g1132
g16
g366
tp5861
(dp5862
g15
I1
ss(g2353
g193
g877
g286
tp5863
(dp5864
S';'
I1
ss(g1053
g1681
g1326
g799
tp5865
(dp5866
S'.'
I1
ss(g2692
g430
g323
g907
tp5867
(dp5868
g1081
I1
ss(g246
S'I'
g65
g1061
tp5869
(dp5870
g64
I1
sg392
I1
ss(g493
g1026
g25
g1166
tp5871
(dp5872
S'I'
I1
ss(g810
g932
g269
g1084
tp5873
(dp5874
g1593
I1
ss(g3854
g1335
g346
S'.'
tp5875
(dp5876
S'\x00'
I1
ss(g228
g28
g229
g205
tp5877
(dp5878
S'a'
I1
ss(g308
g1976
g2016
g68
tp5879
(dp5880
S'.'
I1
ss(g369
g657
g1050
g85
tp5881
(dp5882
S','
I1
ss(g49
g1122
g2312
S'a'
tp5883
(dp5884
g122
I1
ss(g991
g208
g40
g300
tp5885
(dp5886
S'.'
I1
ss(S'A'
g287
S'.'
S'\x00'
tp5887
(dp5888
S'\x00'
I1
ss(S'a'
g148
g81
S'.'
tp5889
(dp5890
S'\x00'
I1
ss(g188
g123
g106
S'.'
tp5891
(dp5892
S'\x00'
I1
ss(S' '
g3444
S','
g859
tp5893
(dp5894
g518
I1
ss(g688
g1140
g699
g2196
tp5895
(dp5896
g2165
I1
ss(g268
g834
g2627
g4580
tp5897
(dp5898
S','
I1
ss(g198
g260
g63
S'I'
tp5899
(dp5900
g152
I1
ss(g465
S','
g1449
S','
tp5901
(dp5902
g862
I1
ss(S','
g2757
S'.'
g90
tp5903
(dp5904
S'I'
I1
ss(S' '
g1203
g730
g1025
tp5905
(dp5906
g244
I1
ss(g1129
g1342
g437
g554
tp5907
(dp5908
g1741
I1
ss(g1033
g261
g179
S';'
tp5909
(dp5910
g2219
I1
ss(S','
g2111
g1394
g3809
tp5911
(dp5912
S'.'
I1
ss(S' '
g3278
S';'
g2092
tp5913
(dp5914
S'I'
I1
ss(g2446
g1161
S'.'
S'\x00'
tp5915
(dp5916
S'\x00'
I2
ss(g1715
S';'
g2083
g104
tp5917
(dp5918
S'I'
I1
ss(S'I'
g2267
g137
g199
tp5919
(dp5920
g277
I1
ss(S'I'
g3878
g1475
g392
tp5921
(dp5922
S'I'
I1
ss(g857
g322
S'I'
g217
tp5923
(dp5924
S'?'
I1
ss(g57
g19
g26
g493
tp5925
(dp5926
g1026
I1
ss(g109
g820
S'.'
S'\x00'
tp5927
(dp5928
S'\x00'
I1
ss(g2231
g847
S','
S'I'
tp5929
(dp5930
g2267
I1
ss(g2112
g55
g223
S'.'
tp5931
(dp5932
S'\x00'
I1
ss(g442
g66
g785
g1144
tp5933
(dp5934
g218
I1
ss(g291
g967
g186
S','
tp5935
(dp5936
g865
I1
ss(g1035
g159
g215
S','
tp5937
(dp5938
g12
I1
ss(g447
g2047
S'.'
S'\x00'
tp5939
(dp5940
S'\x00'
I2
ss(S','
g3859
g2573
g977
tp5941
(dp5942
S','
I1
ss(g165
g14
S','
g72
tp5943
(dp5944
S'I'
I1
ss(g1122
g2312
S'a'
g122
tp5945
(dp5946
S'.'
I1
ss(g680
S','
g2361
S','
tp5947
(dp5948
g2111
I1
ss(g148
g81
S'.'
S'\x00'
tp5949
(dp5950
S'\x00'
I1
ss(S';'
g204
g231
g232
tp5951
(dp5952
g188
I1
ss(g868
g45
S','
g60
tp5953
(dp5954
g190
I1
ss(g1108
g496
S'.'
S'\x00'
tp5955
(dp5956
S'\x00'
I1
ss(g229
g205
S'a'
g148
tp5957
(dp5958
g81
I1
ss(g156
S','
g136
S','
tp5959
(dp5960
g20
I1
ss(S';'
g1638
g683
g1052
tp5961
(dp5962
g1112
I1
ss(g1008
S'I'
g1465
g1103
tp5963
(dp5964
g1468
I1
ss(g793
g391
g340
g163
tp5965
(dp5966
S','
I1
ss(S','
g52
S';'
g195
tp5967
(dp5968
g56
I1
sg165
I1
ss(g94
g831
g1133
g354
tp5969
(dp5970
S';'
I1
ss(S' '
g3854
g1335
g346
tp5971
(dp5972
S'.'
I1
ss(g95
g39
g896
g198
tp5973
(dp5974
g260
I1
ss(g180
g743
S'.'
S'\x00'
tp5975
(dp5976
S'\x00'
I1
ss(g1485
S';'
g1780
g56
tp5977
(dp5978
g928
I1
ss(S'I'
g2174
g1141
S':'
tp5979
(dp5980
g997
I1
ss(g901
g688
g1140
g699
tp5981
(dp5982
g2196
I1
ss(g297
g214
g240
g301
tp5983
(dp5984
g901
I1
ss(g194
g9
S','
S'I'
tp5985
(dp5986
g330
I1
ss(S' '
g3931
S';'
S'I'
tp5987
(dp5988
g2526
I1
ss(S'I'
g209
g158
g272
tp5989
(dp5990
g793
I1
ss(g3444
S','
g859
g518
tp5991
(dp5992
g345
I1
ss(g92
g23
g377
g499
tp5993
(dp5994
g253
I1
ss(g764
g94
g831
g1133
tp5995
(dp5996
g354
I1
ss(g293
g283
g96
g321
tp5997
(dp5998
g631
I1
ss(g2041
g694
S'I'
g3878
tp5999
(dp6000
g1475
I1
ss(g1174
g299
g211
S'.'
tp6001
(dp6002
S'\x00'
I1
ss(g271
g113
g181
S','
tp6003
(dp6004
g27
I1
ss(S','
g2582
S';'
g10
tp6005
(dp6006
g37
I1
ss(g821
g74
g13
S';'
tp6007
(dp6008
g1627
I1
ss(g250
g1019
g692
g227
tp6009
(dp6010
g274
I1
ss(S'a'
g24
g454
g2532
tp6011
(dp6012
g1969
I1
ss(g487
g850
S'.'
S'\x00'
tp6013
(dp6014
S'\x00'
I1
ss(g214
g240
g301
g901
tp6015
(dp6016
g688
I1
ss(g244
g457
g1702
g945
tp6017
(dp6018
g58
I1
ss(g290
g1115
g221
S'.'
tp6019
(dp6020
S'\x00'
I1
ss(g135
g1016
g1032
g490
tp6021
(dp6022
S'.'
I1
ss(g67
g754
g630
g347
tp6023
(dp6024
g442
I1
ss(g2863
g1419
S';'
g540
tp6025
(dp6026
g184
I1
ss(g1681
g1326
g799
S'.'
tp6027
(dp6028
g125
I1
ss(S' '
g114
g778
g180
tp6029
(dp6030
g743
I1
ss(g3017
S','
g854
g804
tp6031
(dp6032
g1438
I1
ss(g108
S','
g2130
S','
tp6033
(dp6034
g119
I1
ss(S'a'
g1495
S';'
g2266
tp6035
(dp6036
g1602
I1
ss(S' '
g1977
S'.'
S'\x00'
tp6037
(dp6038
S'\x00'
I1
ss(g526
g1024
S'I'
g220
tp6039
(dp6040
g1056
I1
ss(S','
g1490
g84
g97
tp6041
(dp6042
g133
I1
ss(g195
g165
g14
S','
tp6043
(dp6044
g72
I1
ss(g807
g919
S','
g169
tp6045
(dp6046
g183
I1
ss(g166
S':'
g98
S'I'
tp6047
(dp6048
g151
I1
ss(g2004
g904
S','
g1715
tp6049
(dp6050
S';'
I1
ss(g86
g177
g380
S';'
tp6051
(dp6052
g1955
I1
ss(S'a'
g292
S'.'
S'\x00'
tp6053
(dp6054
S'\x00'
I1
ss(g12
g659
g2589
g264
tp6055
(dp6056
g757
I1
ss(g353
S','
g2030
S'.'
tp6057
(dp6058
g77
I1
ss(g1449
S','
g862
g262
tp6059
(dp6060
S'I'
I1
ss(S' '
g4053
S','
S'I'
tp6061
(dp6062
g1259
I1
ss(g1024
S'I'
g220
g1056
tp6063
(dp6064
g1888
I1
ss(g102
g61
S'.'
S'\x00'
tp6065
(dp6066
S'\x00'
I1
ss(S'I'
g2353
g193
g877
tp6067
(dp6068
g286
I1
ss(g1013
g34
S'.'
S'\x00'
tp6069
(dp6070
S'\x00'
I1
ss(g460
S','
g2236
S'.'
tp6071
(dp6072
S'\x00'
I1
ss(g162
g11
g47
g508
tp6073
(dp6074
g83
I1
ss(S' '
g1496
g431
g1499
tp6075
(dp6076
g749
I1
ss(g2399
S';'
g542
g70
tp6077
(dp6078
g844
I1
ss(g65
g1061
g64
S'I'
tp6079
(dp6080
g332
I1
ss(g1189
g991
g208
g40
tp6081
(dp6082
g300
I1
ss(g77
S'I'
g141
g210
tp6083
(dp6084
g101
I1
ss(g2589
g264
g757
g1033
tp6085
(dp6086
g261
I1
ss(g191
g112
g110
g868
tp6087
(dp6088
g45
I1
ss(g932
g269
g1084
g1593
tp6089
(dp6090
g944
I1
ss(g59
g1174
g299
g211
tp6091
(dp6092
S'.'
I1
ss(g158
g272
g793
g391
tp6093
(dp6094
g340
I1
ss(g1061
g64
S'I'
g332
tp6095
(dp6096
g270
I1
ss(g922
g910
S'.'
S'\x00'
tp6097
(dp6098
S'\x00'
I1
ss(g590
g7
g294
S'.'
tp6099
(dp6100
S'\x00'
I2
ss(g76
S';'
g1746
S'I'
tp6101
(dp6102
g201
I1
ss(g1969
S','
g2756
g1418
tp6103
(dp6104
S'a'
I2
ss(g1976
g2016
g68
S'.'
tp6105
(dp6106
S'\x00'
I1
ss(S' '
g1909
g481
g713
tp6107
(dp6108
g51
I1
ss(S'I'
g296
g175
g213
tp6109
(dp6110
g502
I1
ss(g2130
S','
g119
S'I'
tp6111
(dp6112
g71
I1
ss(S' '
g2863
g1419
S';'
tp6113
(dp6114
g540
I1
ss(g691
g376
g911
g395
tp6115
(dp6116
g1013
I1
ss(S' '
g100
g202
S','
tp6117
(dp6118
g2582
I2
ss(g646
g1247
g748
S'.'
tp6119
(dp6120
S'\x00'
I1
ss(g52
S';'
g195
g165
tp6121
(dp6122
g14
I1
ss(g1602
g629
g78
g1089
tp6123
(dp6124
g750
I1
ss(g27
g238
g44
g257
tp6125
(dp6126
g1095
I1
ss(g235
g574
g1827
g2125
tp6127
(dp6128
S'.'
I1
ss(S','
g1458
g32
S','
tp6129
(dp6130
g855
I1
ss(g253
g596
g1828
g131
tp6131
(dp6132
g593
I1
ss(g1247
g748
S'.'
S'\x00'
tp6133
(dp6134
S'\x00'
I1
ss(S'I'
g1273
g939
g929
tp6135
(dp6136
g719
I1
sg718
I1
ss(S'.'
g125
S'I'
g1273
tp6137
(dp6138
g939
I1
ss(g89
S'a'
g1108
g496
tp6139
(dp6140
S'.'
I1
ss(g29
g203
g245
g282
tp6141
(dp6142
S';'
I1
ss(S'a'
g1108
g496
S'.'
tp6143
(dp6144
S'\x00'
I1
ss(S','
g2358
g708
g157
tp6145
(dp6146
g196
I1
ss(S'I'
g65
g1061
g64
tp6147
(dp6148
S'I'
I1
ss(g75
g590
g7
g294
tp6149
(dp6150
S'.'
I1
ss(S','
g60
g190
g416
tp6151
(dp6152
g38
I1
ss(g24
g454
g2532
g1969
tp6153
(dp6154
S','
I1
ss(g178
g487
g850
S'.'
tp6155
(dp6156
S'\x00'
I1
ss(g1273
g939
g929
g719
tp6157
(dp6158
g1940
I1
ss(g31
S';'
g204
g231
tp6159
(dp6160
g232
I1
ss(g288
S','
g1802
S','
tp6161
(dp6162
g2112
I1
ss(S','
g2130
S','
g119
tp6163
(dp6164
S'I'
I1
ss(g1007
g1381
g563
g982
tp6165
(dp6166
g619
I1
ss(g1607
g777
g54
g637
tp6167
(dp6168
S'a'
I1
ss(g1767
g174
S','
g2358
tp6169
(dp6170
g708
I1
ss(g236
S','
g1490
g84
tp6171
(dp6172
g97
I1
ss(S' '
g2231
g847
S','
tp6173
(dp6174
S'I'
I1
sg3510
I1
ss(g2739
g906
g1610
S','
tp6175
(dp6176
g1613
I1
ss(g1031
S'I'
g1660
g140
tp6177
(dp6178
g671
I1
ss(g136
S','
g20
g1076
tp6179
(dp6180
g173
I1
ss(g376
g911
g395
g1013
tp6181
(dp6182
g34
I1
ss(g126
g316
S','
g2496
tp6183
(dp6184
S','
I1
ss(g718
g607
g1031
S'I'
tp6185
(dp6186
g1660
I1
ss(S','
g862
g262
S'I'
tp6187
(dp6188
g1789
I1
ss(g13
S';'
g1627
g691
tp6189
(dp6190
g376
I1
ss(g505
g1189
g991
g208
tp6191
(dp6192
g40
I1
ss(S' '
g3176
g3177
S'.'
tp6193
(dp6194
S'\x00'
I1
ss(g3176
g3177
S'.'
S'\x00'
tp6195
(dp6196
S'\x00'
I1
ss(g174
S','
g2358
g708
tp6197
(dp6198
g157
I1
ss(g532
g192
S'.'
S'\x00'
tp6199
(dp6200
S'\x00'
I1
ss(g717
g236
S','
g1490
tp6201
(dp6202
g84
I1
ss(S' '
S'O'
g18
S';'
tp6203
(dp6204
g226
I1
ss(g904
S','
g1715
S';'
tp6205
(dp6206
g2083
I1
ss(g940
g716
g1129
g1342
tp6207
(dp6208
g437
I1
ss(g261
g179
S';'
g2219
tp6209
(dp6210
g369
I1
ss(g541
g547
g142
g170
tp6211
(dp6212
g89
I1
ss(g2092
S'I'
g233
g75
tp6213
(dp6214
g590
I1
ss(S' '
g149
S','
g2529
tp6215
(dp6216
S';'
I1
sS'.'
I1
ss(g1187
g357
g434
S','
tp6217
(dp6218
g863
I1
ss(g11
g47
g508
g83
tp6219
(dp6220
S','
I1
ss(S' '
g3942
S','
g33
tp6221
(dp6222
S','
I2
ss(g799
S'.'
g125
S'I'
tp6223
(dp6224
g1273
I1
ss(g179
S';'
g2219
g369
tp6225
(dp6226
g657
I1
ss(g1827
g2125
S'.'
S'\x00'
tp6227
(dp6228
S'\x00'
I1
ss(S'I'
g2177
g145
g1003
tp6229
(dp6230
g515
I1
ss(g2219
g369
g657
g1050
tp6231
(dp6232
g85
I1
ss(g824
g69
g664
g171
tp6233
(dp6234
S','
I1
ss(g1610
S','
g1613
S'.'
tp6235
(dp6236
S'\x00'
I1
ss(g170
g89
S'a'
g1108
tp6237
(dp6238
g496
I1
ss(g502
g517
g166
S':'
tp6239
(dp6240
g98
I1
ss(g80
g337
g355
g611
tp6241
(dp6242
g764
I1
ss(S','
g863
g788
g634
tp6243
(dp6244
g1384
I1
ss(g279
g197
g871
g222
tp6245
(dp6246
g76
I1
ss(g275
g91
g1150
g353
tp6247
(dp6248
S','
I1
ss(g199
g277
S'a'
g292
tp6249
(dp6250
S'.'
I1
ss(g301
g901
g688
g1140
tp6251
(dp6252
g699
I1
ss(g1741
g918
g1678
g1053
tp6253
(dp6254
g1681
I1
ss(g1265
S','
g857
g322
tp6255
(dp6256
S'I'
I1
ss(S'and'
g3780
S'a'
g49
tp6257
(dp6258
g1122
I1
ss(g516
g909
g185
g884
tp6259
(dp6260
g200
I1
ss(g305
S'a'
g189
S'.'
tp6261
(dp6262
S'\x00'
I1
ss(g896
g198
g260
g63
tp6263
(dp6264
S'I'
I1
ss(S' '
g265
g108
S','
tp6265
(dp6266
g2130
I1
ss(g3278
S';'
g2092
S'I'
tp6267
(dp6268
g233
I1
ss(S'a'
g49
g1122
g2312
tp6269
(dp6270
S'a'
I1
ss(g97
g133
g250
g1019
tp6271
(dp6272
g692
I1
ss(g132
g641
g147
g62
tp6273
(dp6274
g558
I1
ss(g241
S','
g290
g1115
tp6275
(dp6276
g221
I1
ss(g684
g1286
g242
S'a'
tp6277
(dp6278
g1495
I1
ss(g248
g646
g1247
g748
tp6279
(dp6280
S'.'
I1
ss(S' '
g2806
g2004
g904
tp6281
(dp6282
S','
I1
ss(g1678
g1053
g1681
g1326
tp6283
(dp6284
g799
I1
ss(S';'
g542
g70
g844
tp6285
(dp6286
g1879
I1
ss(g147
g62
g558
g1856
tp6287
(dp6288
S','
I1
ss(g884
g200
g810
g932
tp6289
(dp6290
g269
I1
ss(g265
g108
S','
g2130
tp6291
(dp6292
S','
I1
ss(g30
g164
g134
g41
tp6293
(dp6294
g29
I1
ss(g1671
g1805
g1180
g1177
tp6295
(dp6296
g658
I1
ss(g345
g2620
g2243
S'.'
tp6297
(dp6298
S'\x00'
I1
ss(g430
g323
g907
g1081
tp6299
(dp6300
g545
I1
ss(S' '
g247
g994
g309
tp6301
(dp6302
S','
I1
ss(g751
g118
g585
g17
tp6303
(dp6304
g474
I1
ss(g1780
g56
g928
g546
tp6305
(dp6306
g258
I1
ss(g1219
g687
S'I'
g329
tp6307
(dp6308
g717
I1
ss(g78
g1089
g750
g50
tp6309
(dp6310
g1187
I1
ss(g1496
g431
g1499
g749
tp6311
(dp6312
g680
I1
ss(g255
g167
g1147
g407
tp6313
(dp6314
S'?'
I1
ss(g858
g821
g74
g13
tp6315
(dp6316
S';'
I1
ss(S','
S'I'
g1259
S'.'
tp6317
(dp6318
S'\x00'
I1
ss(g457
g1702
g945
g58
tp6319
(dp6320
g109
I1
ss(g740
g2541
S','
g156
tp6321
(dp6322
S','
I1
ss(S','
g856
S'a'
g48
tp6323
(dp6324
g46
I1
ss(g125
S'I'
g1273
g939
tp6325
(dp6326
g929
I1
ss(g637
S'a'
g1109
g1073
tp6327
(dp6328
g685
I1
ss(g104
S'I'
g120
g67
tp6329
(dp6330
g754
I1
ss(g1856
S','
g1655
S'.'
tp6331
(dp6332
S'\x00'
I1
ss(S','
g27
g238
g44
tp6333
(dp6334
g257
I1
ss(g905
g465
S','
g1449
tp6335
(dp6336
S','
I1
ss(g1925
S','
g2594
S';'
tp6337
(dp6338
g1638
I1
ss(g264
g757
g1033
g261
tp6339
(dp6340
g179
I1
ss(g1027
g124
g976
g212
tp6341
(dp6342
S'.'
I1
ss(S','
g853
g693
g57
tp6343
(dp6344
g19
I1
ss(S' '
g2023
g161
S':'
tp6345
(dp6346
S'\x00'
I1
ss(g133
g250
g1019
g692
tp6347
(dp6348
g227
I1
ss(g683
g1052
g1112
g176
tp6349
(dp6350
S'.'
I1
ss(g50
g1187
g357
g434
tp6351
(dp6352
S','
I1
ss(g82
S'I'
g1385
g128
tp6353
(dp6354
g1007
I1
ss(S'I'
g152
g726
S'.'
tp6355
(dp6356
S'I'
I1
ss(g260
g63
S'I'
g152
tp6357
(dp6358
g726
I1
ss(S'a'
g48
g46
S'.'
tp6359
(dp6360
S'\x00'
I1
ss(g1411
g80
g337
g355
tp6361
(dp6362
g611
I1
ss(g619
g399
g115
g943
tp6363
(dp6364
g105
I1
ss(g295
g950
g280
g267
tp6365
(dp6366
S'.'
I1
ss(S','
g1313
g87
g796
tp6367
(dp6368
g107
I1
ss(g4053
S','
S'I'
g1259
tp6369
(dp6370
S'.'
I1
ss(g1115
g221
S'.'
S'\x00'
tp6371
(dp6372
S'\x00'
I1
ss(g74
g13
S';'
g1627
tp6373
(dp6374
g691
I1
ss(S'-'
g182
g326
g1027
tp6375
(dp6376
g124
I1
ss(g70
g844
g1879
g638
tp6377
(dp6378
S'.'
I1
ss(g298
g168
g138
g266
tp6379
(dp6380
S'.'
I1
ss(g804
g1438
g1624
S'.'
tp6381
(dp6382
S'\x00'
I1
ss(g329
g717
g236
S','
tp6383
(dp6384
g1490
I1
ss(g1841
g249
S','
g259
tp6385
(dp6386
S'.'
I1
ss(g1203
g730
g1025
g244
tp6387
(dp6388
g457
I1
ss(S' '
S'I'
g132
g641
tp6389
(dp6390
g147
I1
ss(g856
S'a'
g48
g46
tp6391
(dp6392
S'.'
I1
ss(g1052
g1112
g176
S'.'
tp6393
(dp6394
S'\x00'
I1
ss(S','
g859
g518
g345
tp6395
(dp6396
g2620
I1
ss(g160
S','
g2041
g694
tp6397
(dp6398
S'I'
I1
ss(g719
g1940
g608
g127
tp6399
(dp6400
S'-'
I1
ss(g113
g181
S','
g27
tp6401
(dp6402
g238
I1
ss(g127
S'-'
g182
g326
tp6403
(dp6404
g1027
I1
ss(g1019
g692
g227
g274
tp6405
(dp6406
S'.'
I1
ss(S'true'
S','
S'Socrates'
S'.'
tp6407
(dp6408
S'\x00'
I1
ss(g146
g620
g521
g228
tp6409
(dp6410
g28
I1
ss(g399
g115
g943
g105
tp6411
(dp6412
S'.'
I1
ss(S'No'
S'indeed'
S','
g3510
tp6413
(dp6414
S','
I1
ssatRp6415
(dp6416
S'order'
p6417
I4
sb.