ccopy_reg
_reconstructor
p1
(cmarkov
MarkovCorpus
p2
c__builtin__
list
p3
(lp4
(dp5
(t(dp6
S'Certainly'
p7
I2
sS'do'
p8
I1
sS'is'
p9
I1
sS'To'
p10
I1
sS'as'
p11
I1
sS'should'
p12
I1
sS' '
I7
sS'would'
p13
I1
sS'That'
p14
I1
sS'latter'
p15
I1
sS','
I1
sS'.'
I7
sS';'
I1
sS'be'
p16
I2
sS'we'
p17
I1
sS'sure'
p18
I1
sS'that'
p19
I1
sS'I'
I2
sS'Socrates'
p20
I1
sS'surely'
p21
I1
sS'not'
p22
I1
sS'The'
p23
I1
sS'true'
p24
I1
sS'reasonable'
p25
I1
sS'understand'
p26
I1
sS'think'
p27
I1
ssa(dp28
(g12
tp29
(dp30
S'.'
I1
ss(S'I'
tp31
(dp32
g8
I1
sg27
I1
ss(g13
tp33
(dp34
g21
I1
ss(g25
tp35
(dp36
S'.'
I1
ss(S'\x00'
tp37
(dp38
S'\x00'
I28
ss(g17
tp39
(dp40
g12
I1
ss(g11
tp41
(dp42
g13
I1
ss(S','
tp43
(dp44
g20
I1
ss(S'.'
tp45
(dp46
S'\x00'
I7
ss(S';'
tp47
(dp48
g11
I1
ss(S' '
tp49
(dp50
S'I'
I2
sg10
I1
sg23
I1
sg7
I2
sg14
I1
ss(g27
tp51
(dp52
g19
I1
ss(g9
tp53
(dp54
g24
I1
ss(g14
tp55
(dp56
g9
I1
ss(g22
tp57
(dp58
g26
I1
ss(g23
tp59
(dp60
g15
I1
ss(g8
tp61
(dp62
g22
I1
ss(g16
tp63
(dp64
g18
I1
sg25
I1
ss(g24
tp65
(dp66
S'.'
I1
ss(g7
tp67
(dp68
S'.'
I2
ss(g18
tp69
(dp70
S'.'
I1
ss(g15
tp71
(dp72
S','
I1
ss(g10
tp73
(dp74
S'be'
p75
I1
ss(g19
tp76
(dp77
g17
I1
ss(g20
tp78
(dp79
S';'
I1
ss(g26
tp80
(dp81
S'.'
I1
ss(g21
tp82
(dp83
g16
I1
ssa(dp84
(g75
g18
tp85
(dp86
S'.'
I1
ss(g25
S'.'
tp87
(dp88
S'\x00'
I1
ss(g10
g75
tp89
(dp90
g18
I1
ss(g24
S'.'
tp91
(dp92
S'\x00'
I1
ss(g23
g15
tp93
(dp94
S','
I1
ss(g17
g12
tp95
(dp96
S'.'
I1
ss(S'.'
S'\x00'
tp97
(dp98
S'\x00'
I21
ss(g9
g24
tp99
(dp100
S'.'
I1
ss(g19
g17
tp101
(dp102
g12
I1
ss(g18
S'.'
tp103
(dp104
S'\x00'
I1
ss(S'I'
g8
tp105
(dp106
g22
I1
ss(S' '
g10
tp107
(dp108
g75
I1
ss(g20
S';'
tp109
(dp110
g11
I1
ss(g11
g13
tp111
(dp112
g21
I1
ss(S' '
g14
tp113
(dp114
g9
I1
ss(S' '
g7
tp115
(dp116
S'.'
I2
ss(g8
g22
tp117
(dp118
g26
I1
ss(g16
g25
tp119
(dp120
S'.'
I1
ss(g15
S','
tp121
(dp122
g20
I1
ss(g21
g16
tp123
(dp124
g25
I1
ss(g13
g21
tp125
(dp126
g16
I1
ss(S' '
S'I'
tp127
(dp128
g8
I1
sg27
I1
ss(S','
g20
tp129
(dp130
S';'
I1
ss(g14
g9
tp131
(dp132
g24
I1
ss(g7
S'.'
tp133
(dp134
S'\x00'
I2
ss(g26
S'.'
tp135
(dp136
S'\x00'
I1
ss(g22
g26
tp137
(dp138
S'.'
I1
ss(g27
g19
tp139
(dp140
g17
I1
ss(S' '
g23
tp141
(dp142
g15
I1
ss(S'I'
g27
tp143
(dp144
g19
I1
ss(g12
S'.'
tp145
(dp146
S'\x00'
I1
ss(S';'
g11
tp147
(dp148
g13
I1
ssa(dp149
(g26
S'.'
S'\x00'
tp150
(dp151
S'\x00'
I2
ss(g13
g21
g16
tp152
(dp153
g25
I1
ss(g10
g75
g18
tp154
(dp155
S'.'
I1
ss(g19
g17
g12
tp156
(dp157
S'.'
I1
ss(g15
S','
g20
tp158
(dp159
S';'
I1
ss(S' '
S'I'
g27
tp160
(dp161
g19
I1
ss(g12
S'.'
S'\x00'
tp162
(dp163
S'\x00'
I2
ss(g22
g26
S'.'
tp164
(dp165
S'\x00'
I1
ss(g14
g9
g24
tp166
(dp167
S'.'
I1
ss(S' '
g14
g9
tp168
(dp169
g24
I1
ss(g17
g12
S'.'
tp170
(dp171
S'\x00'
I1
ss(g8
g22
g26
tp172
(dp173
S'.'
I1
ss(S' '
g7
S'.'
tp174
(dp175
S'\x00'
I2
ss(S';'
g11
g13
tp176
(dp177
g21
I1
ss(g24
S'.'
S'\x00'
tp178
(dp179
S'\x00'
I2
ss(g20
S';'
g11
tp180
(dp181
g13
I1
ss(g75
g18
S'.'
tp182
(dp183
S'\x00'
I1
ss(S','
g20
S';'
tp184
(dp185
g11
I1
ss(g21
g16
g25
tp186
(dp187
S'.'
I1
ss(g25
S'.'
S'\x00'
tp188
(dp189
S'\x00'
I2
ss(g18
S'.'
S'\x00'
tp190
(dp191
S'\x00'
I2
ss(g16
g25
S'.'
tp192
(dp193
S'\x00'
I1
ss(g9
g24
S'.'
tp194
(dp195
S'\x00'
I1
ss(S' '
S'I'
g8
tp196
(dp197
g22
I1
ss(g23
g15
S','
tp198
(dp199
g20
I1
ss(S'I'
g27
g19
tp200
(dp201
g17
I1
ss(g11
g13
g21
tp202
(dp203
g16
I1
ss(S'I'
g8
g22
tp204
(dp205
g26
I1
ss(g27
g19
g17
tp206
(dp207
g12
I1
ss(g7
S'.'
S'\x00'
tp208
(dp209
S'\x00'
I4
ss(S' '
g10
g75
tp210
(dp211
g18
I1
ss(S' '
g23
g15
tp212
(dp213
S','
I1
ssa(dp214
(g75
g18
S'.'
S'\x00'
tp215
(dp216
S'\x00'
I1
ss(S'I'
g8
g22
g26
tp217
(dp218
S'.'
I1
ss(g17
g12
S'.'
S'\x00'
tp219
(dp220
S'\x00'
I1
ss(g23
g15
S','
g20
tp221
(dp222
S';'
I1
ss(g11
g13
g21
g16
tp223
(dp224
g25
I1
ss(S' '
g14
g9
g24
tp225
(dp226
S'.'
I1
ss(S'I'
g27
g19
g17
tp227
(dp228
g12
I1
ss(g22
g26
S'.'
S'\x00'
tp229
(dp230
S'\x00'
I1
ss(g15
S','
g20
S';'
tp231
(dp232
g11
I1
ss(S' '
g23
g15
S','
tp233
(dp234
g20
I1
ss(g9
g24
S'.'
S'\x00'
tp235
(dp236
S'\x00'
I1
ss(g19
g17
g12
S'.'
tp237
(dp238
S'\x00'
I1
ss(S','
g20
S';'
g11
tp239
(dp240
g13
I1
ss(S';'
g11
g13
g21
tp241
(dp242
g16
I1
ss(g13
g21
g16
g25
tp243
(dp244
S'.'
I1
ss(g21
g16
g25
S'.'
tp245
(dp246
S'\x00'
I1
ss(g8
g22
g26
S'.'
tp247
(dp248
S'\x00'
I1
ss(g20
S';'
g11
g13
tp249
(dp250
g21
I1
ss(g27
g19
g17
g12
tp251
(dp252
S'.'
I1
ss(S' '
S'I'
g8
g22
tp253
(dp254
g26
I1
ss(g14
g9
g24
S'.'
tp255
(dp256
S'\x00'
I1
ss(S' '
g10
g75
g18
tp257
(dp258
S'.'
I1
ss(g10
g75
g18
S'.'
tp259
(dp260
S'\x00'
I1
ss(S' '
S'I'
g27
g19
tp261
(dp262
g17
I1
ss(S' '
g7
S'.'
S'\x00'
tp263
(dp264
S'\x00'
I2
ss(g16
g25
S'.'
S'\x00'
tp265
(dp266
S'\x00'
I1
ssatRp267
(dp268
S'order'
p269
I4
sb.