ccopy_reg
_reconstructor
p1
(cmarkov
MarkovCorpus
p2
c__builtin__
list
p3
(lp4
(dp5
(t(dp6
S'and'
p7
I1
sS'\x00'
I1
sS'CHAEREPHON'
p8
I1
sS'ANYTUS'
p9
I2
sS'house'
p10
I1
sS'PHILEBUS'
p11
I1
sS'front'
p12
I1
sS'in'
p13
I2
sS'PHAEDRUS'
p14
I12
sS'CRITO'
p15
I5
sS'CRATYLUS'
p16
I1
sS' '
I1
sS"'"
I1
sS'GORGIAS'
p17
I6
sS'they'
p18
I1
sS's'
I1
sS'.'
I12
sS'ION'
p19
I6
sS'LACHES'
p20
I5
sS'THEAETETUS'
p21
I40
sS';'
I1
sS'MELESIAS'
p22
I1
sS'POLUS'
p23
I13
sS'TIMAEUS'
p24
I2
sS'HERMOGENES'
p25
I19
sS'HERMOCRATES'
p26
I1
sS'CRITIAS'
p27
I1
sS'meet'
p28
I1
sS'LYSIMACHUS'
p29
I1
sS'EUTHYPHRO'
p30
I8
sS'Terpsion'
p31
I1
sS'PROTARCHUS'
p32
I28
sS'of'
p33
I1
sS'THEODORUS'
p34
I7
sS'CALLICLES'
p35
I2
sS'SOCRATES'
p36
I138
sS'MENO'
p37
I14
sS'NICIAS'
p38
I4
sS'Euclid'
p39
I2
sS'Megara'
p40
I1
ssa(dp41
(g39
tp42
(dp43
g7
I12
sS"'"
I12
ss(g27
tp44
(dp45
S'\x00'
I1
sS'SOCRATES'
p46
I2
sS'TIMAEUS'
p47
I1
ss(S';'
tp48
(dp49
g18
I12
ss(g13
tp50
(dp51
g12
I12
sg40
I12
ss(g10
tp52
(dp53
S'in'
p54
I12
ss(g22
tp55
(dp56
S'SOCRATES'
p57
I7
ss(g32
tp58
(dp59
S'\x00'
I1
sS'SOCRATES'
p60
I439
sS'PHILEBUS'
p61
I3
sS'PROTARCHUS'
p62
I3
ss(S"'"
tp63
(dp64
S's'
I12
ss(g19
tp65
(dp66
S'\x00'
I1
sS'SOCRATES'
p67
I84
ss(S's'
tp68
(dp69
g10
I12
ss(g36
tp70
(dp71
S'\x00'
I1
sg8
I1
sg9
I2
sg11
I1
sg14
I13
sg15
I6
sS'CRATYLUS'
p72
I1
sS'GORGIAS'
p73
I7
sg19
I6
sS'LACHES'
p74
I5
sg21
I11
sg22
I1
sS'POLUS'
p75
I14
sS'TIMAEUS'
p76
I1
sS'HERMOGENES'
p77
I20
sg26
I1
sS'CRITIAS'
p78
I1
sS'LYSIMACHUS'
p79
I1
sS'EUTHYPHRO'
p80
I8
sg32
I30
sS'THEODORUS'
p81
I7
sS'CALLICLES'
p82
I2
sS'SOCRATES'
p83
I5
sS'MENO'
p84
I14
sS'NICIAS'
p85
I3
ss(g18
tp86
(dp87
S'Euclid'
p88
I11
sS'SOCRATES'
p89
I1
ss(g12
tp90
(dp91
g33
I12
ss(S'\x00'
tp92
(dp93
S'\x00'
I3
ss(g14
tp94
(dp95
S'.'
I184
ss(g15
tp96
(dp97
S'SOCRATES'
p98
I39
sS'CRITO'
p99
I1
ss(g23
tp100
(dp101
S'SOCRATES'
p102
I200
sS'CHAEREPHON'
p103
I6
ss(g34
tp104
(dp105
S'THEAETETUS'
p106
I1
sS'\x00'
I1
sS'THEODORUS'
p107
I2
sS'SOCRATES'
p108
I30
ss(g8
tp109
(dp110
S'CALLICLES'
p111
I4
sS'SOCRATES'
p112
I2
sS'POLUS'
p113
I6
sg17
I2
ss(g21
tp114
(dp115
S'THEAETETUS'
p116
I236
sS'\x00'
I1
sS'SOCRATES'
p117
I77
sS'THEODORUS'
p118
I1
ss(g38
tp119
(dp120
S'LYSIMACHUS'
p121
I4
sS'SOCRATES'
p122
I32
sg20
I13
ss(S'.'
tp123
(dp124
S'\x00'
I1
sS'SOCRATES'
p125
I182
sS'PHAEDRUS'
p126
I1
ss(g30
tp127
(dp128
S'\x00'
I1
sS'SOCRATES'
p129
I114
sS'EUTHYPHRO'
p130
I2
ss(g31
tp131
(dp132
g28
I12
ss(g40
tp133
(dp134
S';'
I12
ss(S' '
tp135
(dp136
S'\x00'
I1
sg34
I1
sg24
I1
sg30
I1
sg35
I1
sS'SOCRATES'
p137
I1
sg37
I1
sg29
I1
sg39
I1
sg25
I1
sS'CRITO'
p138
I1
ss(g9
tp139
(dp140
S'SOCRATES'
p141
I23
ss(g11
tp142
(dp143
S'SOCRATES'
p144
I13
sS'PROTARCHUS'
p145
I3
ss(g24
tp146
(dp147
S'SOCRATES'
p148
I8
sS'TIMAEUS'
p149
I1
sg27
I1
ss(g35
tp150
(dp151
S'CALLICLES'
p152
I1
sS'SOCRATES'
p153
I25
sS'CHAEREPHON'
p154
I2
sS'\x00'
I1
ss(g17
tp155
(dp156
S'SOCRATES'
p157
I91
sg23
I1
sS'CHAEREPHON'
p158
I2
ss(g29
tp159
(dp160
S'LYSIMACHUS'
p161
I2
sg38
I3
sS'SOCRATES'
p162
I5
sS'LACHES'
p163
I3
sS'\x00'
I1
ss(g37
tp164
(dp165
S'\x00'
I1
sS'SOCRATES'
p166
I206
sS'MENO'
p167
I3
ss(g25
tp168
(dp169
g36
I289
sg16
I2
sS'HERMOGENES'
p170
I3
ss(g7
tp171
(dp172
g31
I12
ss(g20
tp173
(dp174
S'LYSIMACHUS'
p175
I3
sS'NICIAS'
p176
I11
sS'SOCRATES'
p177
I63
ss(g33
tp178
(dp179
S'Euclid'
p180
I12
ss(g16
tp181
(dp182
S'\x00'
I1
sS'SOCRATES'
p183
I5
sS'HERMOGENES'
p184
I2
ss(g28
tp185
(dp186
g13
I12
ss(g26
tp187
(dp188
S'CRITIAS'
p189
I1
ssa(dp190
(g40
S';'
tp191
(dp192
g18
I12
ss(g26
g189
tp193
(dp194
S'\x00'
I1
sg47
I1
ss(S'LYSIMACHUS'
p195
g162
tp196
(dp197
g79
I2
sg85
I1
sS'LACHES'
p198
I1
sg22
I1
ss(S'SOCRATES'
p199
g8
tp200
(dp201
g111
I1
sg112
I2
sg17
I1
ss(S'.'
g126
tp202
(dp203
S'.'
I1
ss(S'THEODORUS'
p204
g106
tp205
(dp206
S'SOCRATES'
p207
I1
sg118
I2
ss(g130
g129
tp208
(dp209
g80
I114
ss(g180
S"'"
tp210
(dp211
S's'
I12
ss(S'CRATYLUS'
p212
S'\x00'
tp213
(dp214
S'\x00'
I2
ss(g167
g166
tp215
(dp216
g9
I1
sS'SOCRATES'
p217
I3
sg84
I202
ss(S'SOCRATES'
p218
g78
tp219
(dp220
S'SOCRATES'
p221
I2
ss(S'THEAETETUS'
p222
g117
tp223
(dp224
S'THEAETETUS'
p225
I75
sS'THEODORUS'
p226
I2
ss(g129
g80
tp227
(dp228
S'\x00'
I1
sS'SOCRATES'
p229
I112
sS'EUTHYPHRO'
p230
I1
ss(S'CALLICLES'
p231
S'\x00'
tp232
(dp233
S'\x00'
I2
ss(S'.'
S'\x00'
tp234
(dp235
S'\x00'
I2
ss(S'THEODORUS'
p236
S'\x00'
tp237
(dp238
S'\x00'
I2
ss(S'SOCRATES'
p239
g22
tp240
(dp241
g57
I7
ss(g15
g98
tp242
(dp243
S'\x00'
I1
sS'SOCRATES'
p244
I1
sS'CRITO'
p245
I38
ss(g38
g20
tp246
(dp247
g175
I2
sS'NICIAS'
p248
I7
sS'SOCRATES'
p249
I4
ss(g176
g121
tp250
(dp251
S'LYSIMACHUS'
p252
I1
sS'NICIAS'
p253
I1
sS'SOCRATES'
p254
I1
sS'LACHES'
p255
I1
ss(g31
g28
tp256
(dp257
g13
I12
ss(g72
g183
tp258
(dp259
S'CRATYLUS'
p260
I5
ss(S'CHAEREPHON'
p261
g17
tp262
(dp263
g23
I1
sg158
I1
ss(S'EUTHYPHRO'
p264
S'\x00'
tp265
(dp266
S'\x00'
I2
ss(S'GORGIAS'
p267
g23
tp268
(dp269
g103
I1
ss(S' '
g37
tp270
(dp271
g167
I1
ss(S'THEAETETUS'
p272
S'\x00'
tp273
(dp274
S'\x00'
I2
ss(g54
g40
tp275
(dp276
S';'
I12
ss(S'MENO'
p277
S'\x00'
tp278
(dp279
S'\x00'
I2
ss(S'PROTARCHUS'
p280
g62
tp281
(dp282
S'SOCRATES'
p283
I3
ss(S'SOCRATES'
p284
g79
tp285
(dp286
S'NICIAS'
p287
I1
sg239
I2
sS'\x00'
I1
ss(S' '
g30
tp288
(dp289
g130
I1
ss(g17
g158
tp290
(dp291
S'CALLICLES'
p292
I1
sg267
I1
ss(g138
g99
tp293
(dp294
S'SOCRATES'
p295
I1
ss(g33
g180
tp296
(dp297
S"'"
I12
ss(g103
g113
tp298
(dp299
g102
I1
sS'CHAEREPHON'
p300
I5
ss(g37
g167
tp301
(dp302
g166
I3
ss(g153
g82
tp303
(dp304
S'\x00'
I1
sg199
I21
sS'CHAEREPHON'
p305
I1
ss(S'PHILEBUS'
p306
g144
tp307
(dp308
S'PHILEBUS'
p309
I7
sS'PROTARCHUS'
p310
I6
ss(g46
g26
tp311
(dp312
g189
I1
ss(S'SOCRATES'
p313
g72
tp314
(dp315
S'\x00'
I1
sg183
I5
ss(g13
g12
tp316
(dp317
g33
I12
ss(g108
g81
tp318
(dp319
g106
I1
sS'SOCRATES'
p320
I29
sS'THEODORUS'
p321
I1
ss(S' '
g29
tp322
(dp323
g161
I1
ss(g20
g175
tp324
(dp325
g162
I2
sg163
I1
ss(g74
g177
tp326
(dp327
S'LYSIMACHUS'
p328
I2
sS'NICIAS'
p329
I8
sS'LACHES'
p330
I53
ss(S'SOCRATES'
p331
g14
tp332
(dp333
S'.'
I183
ss(g175
g163
tp334
(dp335
g195
I1
sg176
I1
sS'SOCRATES'
p336
I1
ss(g30
g130
tp337
(dp338
g129
I2
ss(g11
g145
tp339
(dp340
g61
I1
sS'SOCRATES'
p341
I2
ss(S'CRITIAS'
p342
g47
tp343
(dp344
S'CRITIAS'
p345
I1
ss(S'SOCRATES'
p346
g21
tp347
(dp348
g116
I2
sS'SOCRATES'
p349
I75
ss(g170
g16
tp350
(dp351
g184
I2
ss(g14
S'.'
tp352
(dp353
S'\x00'
I1
sg125
I182
sg126
I1
ss(g7
g31
tp354
(dp355
g28
I12
ss(g22
g57
tp356
(dp357
S'NICIAS'
p358
I1
sS'MELESIAS'
p359
I6
ss(S' '
g25
tp360
(dp361
g170
I1
ss(S'SOCRATES'
p362
g15
tp363
(dp364
g98
I39
ss(g28
g13
tp365
(dp366
g12
I12
ss(g12
g33
tp367
(dp368
g180
I12
ss(S'SOCRATES'
p369
g74
tp370
(dp371
S'NICIAS'
p372
I3
sg177
I58
ss(g24
g149
tp373
(dp374
g27
I1
ss(g23
g103
tp375
(dp376
g113
I6
ss(g16
g184
tp377
(dp378
g36
I2
ss(g27
g46
tp379
(dp380
g26
I1
sS'TIMAEUS'
p381
I1
sg78
I1
ss(g152
g153
tp382
(dp383
g82
I22
sg8
I2
sS'GORGIAS'
p384
I1
ss(g163
g176
tp385
(dp386
g121
I2
sS'SOCRATES'
p387
I1
sS'LACHES'
p388
I8
ss(g162
g85
tp389
(dp390
g122
I31
sS'LACHES'
p391
I4
ss(g39
g7
tp392
(dp393
g31
I12
ss(g18
g88
tp394
(dp395
S'and'
p396
I11
ss(S'SOCRATES'
p397
g75
tp398
(dp399
S'SOCRATES'
p400
I199
ss(g107
g108
tp401
(dp402
S'THEAETETUS'
p403
I1
sg81
I29
sg346
I1
ss(S' '
g39
tp404
(dp405
g7
I1
ss(S'.'
g125
tp406
(dp407
S'SOCRATES'
p408
I2
sS'PHAEDRUS'
p409
I180
ss(S' '
g34
tp410
(dp411
g107
I1
ss(g189
S'\x00'
tp412
(dp413
S'\x00'
I2
ss(S'THEAETETUS'
p414
g118
tp415
(dp416
S'THEAETETUS'
p417
I1
sS'\x00'
I1
ss(S"'"
S's'
tp418
(dp419
g10
I12
ss(g145
g61
tp420
(dp421
g144
I1
sS'PROTARCHUS'
p422
I2
ss(S';'
g18
tp423
(dp424
g88
I11
sg89
I1
ss(g73
g157
tp425
(dp426
g75
I4
sS'GORGIAS'
p427
I87
ss(g29
g161
tp428
(dp429
g38
I1
sS'LACHES'
p430
I1
ss(g166
g84
tp431
(dp432
S'\x00'
I1
sS'SOCRATES'
p433
I203
sS'MENO'
p434
I2
ss(g9
g141
tp435
(dp436
S'ANYTUS'
p437
I21
sS'SOCRATES'
p438
I1
sS'MENO'
p439
I1
ss(g76
g148
tp440
(dp441
S'\x00'
I1
sS'HERMOCRATES'
p442
I1
sS'TIMAEUS'
p443
I13
ss(S' '
S'\x00'
tp444
(dp445
S'\x00'
I1
ss(g19
g67
tp446
(dp447
S'ION'
p448
I84
ss(g8
g111
tp449
(dp450
S'SOCRATES'
p451
I3
sg154
I1
ss(g32
g60
tp452
(dp453
S'SOCRATES'
p454
I1
sg11
I6
sS'PROTARCHUS'
p455
I432
ss(g102
g73
tp456
(dp457
g157
I91
sS'CHAEREPHON'
p458
I1
ss(g35
g152
tp459
(dp460
g153
I1
ss(S'LYSIMACHUS'
p461
S'\x00'
tp462
(dp463
S'\x00'
I2
ss(S'SOCRATES'
p464
g9
tp465
(dp466
g141
I23
ss(S'SOCRATES'
p467
S'\x00'
tp468
(dp469
S'\x00'
I2
ss(S's'
g10
tp470
(dp471
g54
I12
ss(g358
g122
tp472
(dp473
S'NICIAS'
p474
I25
sg74
I7
ss(S' '
g35
tp475
(dp476
g152
I1
ss(S'they'
p477
g89
tp478
(dp479
S'THEODORUS'
p480
I1
ss(g184
g36
tp481
(dp482
g83
I2
sg72
I1
sg77
I286
ss(S' '
g138
tp483
(dp484
g99
I1
ss(g111
g154
tp485
(dp486
S'CALLICLES'
p487
I2
ss(g36
g77
tp488
(dp489
S'SOCRATES'
p490
I285
sS'CRATYLUS'
p491
I1
sS'HERMOGENES'
p492
I2
ss(S'SOCRATES'
p493
g76
tp494
(dp495
g148
I15
ss(g149
g27
tp496
(dp497
g46
I1
ss(S'SOCRATES'
p498
g83
tp499
(dp500
S'POLUS'
p501
I1
sg32
I1
sS'ANYTUS'
p502
I1
sS'THEODORUS'
p503
I1
sg76
I1
sS'HERMOGENES'
p504
I1
sg19
I1
sS'SOCRATES'
p505
I5
sS'MENO'
p506
I1
sg21
I1
sg14
I1
sg15
I1
ss(g25
g170
tp507
(dp508
S'SOCRATES'
p509
I2
sg16
I1
ss(S'SOCRATES'
p510
g11
tp511
(dp512
S'SOCRATES'
p513
I12
sg145
I1
ss(S'CHAEREPHON'
p514
g112
tp515
(dp516
S'CHAEREPHON'
p517
I2
ss(g161
g38
tp518
(dp519
S'LYSIMACHUS'
p520
I2
sg20
I1
ss(S'SOCRATES'
p521
g19
tp522
(dp523
S'\x00'
I1
sg67
I84
ss(g34
g107
tp524
(dp525
S'\x00'
I1
sg108
I1
sg236
I1
ss(S'POLUS'
p526
g102
tp527
(dp528
S'CALLICLES'
p529
I1
sS'SOCRATES'
p530
I1
sS'POLUS'
p531
I194
sg73
I4
ss(S'SOCRATES'
p532
g32
tp533
(dp534
S'\x00'
I1
sg60
I434
sg306
I2
sg62
I3
ss(S'ION'
p535
S'\x00'
tp536
(dp537
S'\x00'
I2
ss(g10
g54
tp538
(dp539
g40
I12
ss(S' '
g137
tp540
(dp541
g362
I1
ss(g21
g116
tp542
(dp543
S'THEAETETUS'
p544
I235
sS'\x00'
I1
sg117
I1
ss(S'PROTARCHUS'
p545
S'\x00'
tp546
(dp547
S'\x00'
I2
ss(S' '
g24
tp548
(dp549
g149
I1
ssa(dp550
(g108
g81
g320
tp551
(dp552
g403
I1
sS'THEODORUS'
p553
I28
ss(g12
g33
g180
tp554
(dp555
S"'"
I12
ss(S"'"
S's'
g10
tp556
(dp557
g54
I12
ss(g39
g7
g31
tp558
(dp559
g28
I12
ss(g121
g252
g430
tp560
(dp561
g195
I1
ss(g18
g88
g396
tp562
(dp563
S'Terpsion'
p564
I11
ss(g346
g21
g116
tp565
(dp566
g544
I1
sS'SOCRATES'
p567
I1
ss(g158
g267
g23
tp568
(dp569
g103
I1
ss(g464
g9
g141
tp570
(dp571
g437
I21
sg438
I1
sg439
I1
ss(g321
S'SOCRATES'
p572
g346
tp573
(dp574
g21
I1
ss(g331
g14
S'.'
tp575
(dp576
S'\x00'
I1
sg125
I181
sg126
I1
ss(S'THEAETETUS'
g272
S'\x00'
tp577
(dp578
S'\x00'
I1
ss(S'CRITO'
S'SOCRATES'
g244
tp579
(dp580
S'CRITO'
p581
I1
ss(S'PHILEBUS'
p582
g513
g309
tp583
(dp584
S'SOCRATES'
p585
I7
ss(S'CHAEREPHON'
g526
g102
tp586
(dp587
g73
I1
ss(S'SOCRATES'
p588
g403
g349
tp589
(dp590
S'THEAETETUS'
p591
I146
sg226
I4
ss(S'THEODORUS'
S'THEODORUS'
p592
g236
tp593
(dp594
S'\x00'
I1
ss(g145
g61
g422
tp595
(dp596
g341
I2
ss(g330
S'SOCRATES'
p597
g328
tp598
(dp599
g287
I1
sS'SOCRATES'
p600
I1
ss(g176
g121
g252
tp601
(dp602
g430
I1
ss(g24
g149
g27
tp603
(dp604
g46
I1
ss(S'SOCRATES'
p605
g438
g502
tp606
(dp607
S'SOCRATES'
p608
I1
ss(S'PHAEDRUS'
S'.'
g126
tp609
(dp610
S'.'
I1
ss(g204
g106
g207
tp611
(dp612
S'THEAETETUS'
p613
I1
ss(S'NICIAS'
S'LACHES'
p614
g248
tp615
(dp616
S'LYSIMACHUS'
p617
I1
sg387
I1
sS'LACHES'
p618
I5
ss(S'HERMOGENES'
p619
g492
g509
tp620
(dp621
S'HERMOGENES'
p622
I2
ss(S'LACHES'
S'NICIAS'
p623
g387
tp624
(dp625
S'LACHES'
p626
I1
ss(g284
g79
g239
tp627
(dp628
g198
I1
sg22
I1
ss(S'SOCRATES'
p629
g530
g501
tp630
(dp631
S'SOCRATES'
p632
I1
ss(g9
g141
g437
tp633
(dp634
S'SOCRATES'
p635
I21
ss(S'SOCRATES'
S'HERMOGENES'
g491
tp636
(dp637
S'HERMOGENES'
p638
I1
ss(S'SOCRATES'
p639
g261
g17
tp640
(dp641
g158
I1
ss(S'SOCRATES'
S'THEODORUS'
g321
tp642
(dp643
g572
I1
sg236
I1
ss(g16
g184
g36
tp644
(dp645
g72
I1
sg77
I1
ss(g36
g77
g490
tp646
(dp647
g83
I2
sS'HERMOGENES'
p648
I283
ss(g592
g236
S'\x00'
tp649
(dp650
S'\x00'
I1
ss(g162
g85
g391
tp651
(dp652
S'LYSIMACHUS'
p653
I1
sg248
I3
ss(S'PROTARCHUS'
p654
g306
g144
tp655
(dp656
g310
I1
ss(g33
g180
S"'"
tp657
(dp658
S's'
I12
ss(S'NICIAS'
g617
g254
tp659
(dp660
g461
I1
ss(g328
g287
g520
tp661
(dp662
g253
I1
sg255
I1
ss(S' '
g34
g107
tp663
(dp664
g108
I1
ss(g15
g98
g245
tp665
(dp666
S'SOCRATES'
p667
I38
ss(g54
g40
S';'
tp668
(dp669
g18
I12
ss(g493
g76
g148
tp670
(dp671
S'\x00'
I1
sg442
I1
sg443
I13
ss(g526
g102
g73
tp672
(dp673
g157
I4
ss(S' '
g137
g362
tp674
(dp675
g32
I1
sg503
I1
sg76
I1
sg19
I1
sg14
I1
sg15
I1
ss(S'SOCRATES'
g654
g306
tp676
(dp677
g144
I1
sS'PROTARCHUS'
p678
I1
ss(g7
g31
g28
tp679
(dp680
g13
I12
ss(g111
g154
g487
tp681
(dp682
g451
I2
ss(S'PROTARCHUS'
p683
S'SOCRATES'
g455
tp684
(dp685
S'\x00'
I1
sS'SOCRATES'
p686
I427
sg306
I1
sg62
I3
ss(S's'
g10
g54
tp687
(dp688
g40
I12
ss(S'SOCRATES'
g619
g492
tp689
(dp690
g509
I2
ss(S'ANYTUS'
S'SOCRATES'
g439
tp691
(dp692
S'SOCRATES'
p693
I1
ss(S'LACHES'
S'SOCRATES'
g329
tp694
(dp695
S'SOCRATES'
p696
I7
sg614
I1
ss(g414
g118
g417
tp697
(dp698
S'THEODORUS'
p699
I1
ss(S'ANYTUS'
g605
g438
tp700
(dp701
g502
I1
ss(S'GORGIAS'
p702
g458
g292
tp703
(dp704
S'SOCRATES'
p705
I1
ss(g72
g183
g260
tp706
(dp707
S'\x00'
I1
sS'SOCRATES'
p708
I4
ss(g17
g158
g267
tp709
(dp710
g23
I1
ss(S'SOCRATES'
S'LACHES'
p711
g372
tp712
(dp713
g388
I3
ss(S' '
g25
g170
tp714
(dp715
g16
I1
ss(g430
g195
g162
tp716
(dp717
g79
I1
sg85
I1
ss(S'MENO'
g464
g9
tp718
(dp719
g141
I1
ss(g252
g430
g195
tp720
(dp721
g162
I1
ss(g29
g161
g38
tp722
(dp723
g20
I1
ss(S'THEAETETUS'
g222
g117
tp724
(dp725
g225
I1
ss(g521
g19
g67
tp726
(dp727
g448
I84
ss(S'SOCRATES'
g582
g513
tp728
(dp729
g309
I7
sS'PROTARCHUS'
p730
I5
ss(g21
g116
g544
tp731
(dp732
S'THEAETETUS'
p733
I467
sS'\x00'
I1
sg117
I1
ss(S'POLUS'
S'SOCRATES'
p734
g529
tp735
(dp736
g305
I1
ss(g261
g17
g158
tp737
(dp738
g267
I1
ss(S';'
g18
g88
tp739
(dp740
g396
I11
ss(g253
S'LYSIMACHUS'
p741
g255
tp742
(dp743
g336
I1
ss(S'SOCRATES'
g545
S'\x00'
tp744
(dp745
S'\x00'
I1
ss(g477
g89
g480
tp746
(dp747
S'SOCRATES'
p748
I1
ss(S'POLUS'
g629
g530
tp749
(dp750
g501
I1
ss(g34
g107
g108
tp751
(dp752
g81
I1
sg346
I1
ss(g75
g400
g531
tp753
(dp754
S'SOCRATES'
p755
I194
ss(g10
g54
g40
tp756
(dp757
S';'
I12
ss(g292
g705
g384
tp758
(dp759
S'SOCRATES'
p760
I1
ss(S'SOCRATES'
g702
g458
tp761
(dp762
g292
I1
ss(g46
g26
g189
tp763
(dp764
S'\x00'
I1
sg47
I1
ss(g152
g153
g82
tp765
(dp766
S'\x00'
I1
sg199
I21
ss(g38
g20
g175
tp767
(dp768
g284
I1
sg163
I1
ss(g532
g32
g60
tp769
(dp770
g454
I1
sg11
I6
sg455
I427
ss(g82
g199
g8
tp771
(dp772
g111
I1
sg112
I1
ss(S'HERMOGENES'
g498
g83
tp773
(dp774
g504
I2
ss(S'SOCRATES'
S'EUTHYPHRO'
g230
tp775
(dp776
S'SOCRATES'
p777
I1
ss(S'CRITIAS'
p778
S'SOCRATES'
g381
tp779
(dp780
S'SOCRATES'
p781
I1
ss(g19
g67
g448
tp782
(dp783
S'\x00'
I1
sS'SOCRATES'
p784
I83
ss(g345
g218
g78
tp785
(dp786
g221
I2
ss(g11
g145
g61
tp787
(dp788
g422
I1
ss(S'SOCRATES'
g231
S'\x00'
tp789
(dp790
S'\x00'
I1
ss(g306
g144
g310
tp791
(dp792
S'SOCRATES'
p793
I5
sS'PHILEBUS'
p794
I1
ss(S';'
g477
g89
tp795
(dp796
g480
I1
ss(S' '
g24
g149
tp797
(dp798
g27
I1
ss(S' '
g39
g7
tp799
(dp800
g31
I1
ss(S'MELESIAS'
S'SOCRATES'
p801
g358
tp802
(dp803
g122
I1
ss(g32
g60
g454
tp804
(dp805
g683
I1
ss(g180
S"'"
S's'
tp806
(dp807
g10
I12
ss(g222
g117
g225
tp808
(dp809
S'THEAETETUS'
p810
I1
sS'SOCRATES'
p811
I74
ss(g8
g111
g154
tp812
(dp813
g487
I1
ss(g79
g239
g22
tp814
(dp815
g57
I1
ss(g27
g46
g26
tp816
(dp817
g189
I1
ss(S'.'
g125
g409
tp818
(dp819
S'.'
I180
ss(S'SOCRATES'
S'SOCRATES'
g503
tp820
(dp821
S'SOCRATES'
p822
I1
ss(S'SOCRATES'
g280
g62
tp823
(dp824
g283
I3
ss(S'NICIAS'
g369
g74
tp825
(dp826
g372
I3
sg177
I4
ss(g22
g57
g359
tp827
(dp828
S'SOCRATES'
p829
I6
ss(g195
g162
g85
tp830
(dp831
g391
I1
ss(g417
g699
S'\x00'
tp832
(dp833
S'\x00'
I1
ss(g254
g461
S'\x00'
tp834
(dp835
S'\x00'
I1
ss(g107
g108
g81
tp836
(dp837
g106
I1
sg320
I27
sg321
I1
ss(g130
g129
g80
tp838
(dp839
S'\x00'
I1
sg229
I112
sg230
I1
ss(g103
g113
g300
tp840
(dp841
S'POLUS'
p842
I5
ss(S'SOCRATES'
g204
g106
tp843
(dp844
g207
I1
sg118
I1
ss(S' '
g138
g99
tp845
(dp846
g295
I1
ss(S'TIMAEUS'
S'SOCRATES'
g442
tp847
(dp848
g342
I1
ss(S'SOCRATES'
g535
S'\x00'
tp849
(dp850
S'\x00'
I1
ss(g801
g358
g122
tp851
(dp852
g474
I25
sg74
I6
ss(g362
g15
g98
tp853
(dp854
S'\x00'
I1
sg244
I1
sg245
I37
ss(g14
S'.'
g125
tp855
(dp856
g408
I2
sg409
I180
ss(g166
g84
g433
tp857
(dp858
g9
I1
sg217
I3
sS'MENO'
p859
I199
ss(g40
S';'
g18
tp860
(dp861
g88
I11
sg89
I1
ss(S'SOCRATES'
S'MENO'
g434
tp862
(dp863
S'SOCRATES'
p864
I2
ss(g25
g170
g16
tp865
(dp866
g184
I1
ss(g35
g152
g153
tp867
(dp868
g82
I1
ss(S'MENO'
S'SOCRATES'
p869
g217
tp870
(dp871
g505
I3
ss(g154
g487
g451
tp872
(dp873
S'CALLICLES'
p874
I2
sg384
I1
ss(g572
g346
g21
tp875
(dp876
g116
I1
ss(g381
g781
S'\x00'
tp877
(dp878
S'\x00'
I1
ss(g372
g388
g249
tp879
(dp880
S'NICIAS'
p881
I1
sS'LACHES'
p882
I3
ss(g342
g47
g345
tp883
(dp884
g218
I1
ss(S'THEODORUS'
g414
g118
tp885
(dp886
g417
I1
sS'\x00'
I1
ss(g23
g103
g113
tp887
(dp888
g102
I1
sg300
I5
ss(g28
g13
g12
tp889
(dp890
g33
I12
ss(g741
g255
g336
tp891
(dp892
S'LYSIMACHUS'
p893
I1
ss(g76
g148
g443
tp894
(dp895
S'SOCRATES'
p896
I13
ss(g280
g62
g283
tp897
(dp898
S'PROTARCHUS'
p899
I3
ss(S'SOCRATES'
g264
S'\x00'
tp900
(dp901
S'\x00'
I1
ss(S'THEODORUS'
g588
g403
tp902
(dp903
g349
I3
ss(g358
g122
g474
tp904
(dp905
S'SOCRATES'
p906
I23
sS'LACHES'
p907
I2
ss(g61
g422
g341
tp908
(dp909
S'PROTARCHUS'
p910
I2
ss(S'SOCRATES'
g532
g32
tp911
(dp912
g60
I2
ss(g597
g328
g287
tp913
(dp914
g520
I1
ss(g163
g176
g121
tp915
(dp916
g252
I1
sg254
I1
ss(g514
g112
g517
tp917
(dp918
g639
I1
sg17
I1
ss(g267
g23
g103
tp919
(dp920
g113
I1
ss(g138
g99
g295
tp921
(dp922
S'CRITO'
p923
I1
ss(g20
g175
g163
tp924
(dp925
g176
I1
ss(g218
g78
g221
tp926
(dp927
g381
I1
sg778
I1
ss(g442
g342
g47
tp928
(dp929
g345
I1
ss(S'SOCRATES'
g521
g19
tp930
(dp931
g67
I1
ss(S'SOCRATES'
g514
g112
tp932
(dp933
g517
I2
ss(g30
g130
g129
tp934
(dp935
g80
I2
ss(g498
g83
g504
tp936
(dp937
S'SOCRATES'
p938
I2
ss(g313
g72
g183
tp939
(dp940
g260
I5
ss(g149
g27
g46
tp941
(dp942
g26
I1
sg78
I1
ss(g26
g189
S'\x00'
tp943
(dp944
S'\x00'
I1
ss(g13
g12
g33
tp945
(dp946
g180
I12
ss(g199
g8
g111
tp947
(dp948
g154
I1
ss(S'SOCRATES'
g331
g14
tp949
(dp950
S'.'
I3
ss(S' '
g30
g130
tp951
(dp952
g129
I1
ss(S'SOCRATES'
g277
S'\x00'
tp953
(dp954
S'\x00'
I1
ss(g711
g372
g388
tp955
(dp956
g623
I4
sg249
I4
ss(g239
g22
g57
tp957
(dp958
g358
I1
sg359
I6
ss(g638
g313
g72
tp959
(dp960
g183
I1
ss(S'.'
g126
S'.'
tp961
(dp962
S'SOCRATES'
p963
I1
ss(S'PROTARCHUS'
g510
g11
tp964
(dp965
g513
I5
sg145
I1
ss(S'SOCRATES'
g212
S'\x00'
tp966
(dp967
S'\x00'
I1
ss(S'SOCRATES'
S'SOCRATES'
g506
tp968
(dp969
S'SOCRATES'
p970
I3
ss(g869
g217
g505
tp971
(dp972
S'SOCRATES'
p973
I46
sg506
I3
ss(g31
g28
g13
tp974
(dp975
g12
I12
ss(S'CRITO'
g467
S'\x00'
tp976
(dp977
S'\x00'
I1
ss(g137
g362
g15
tp978
(dp979
g98
I1
ss(g167
g166
g84
tp980
(dp981
S'\x00'
I1
sg433
I199
sg434
I2
ss(S' '
g35
g152
tp982
(dp983
g153
I1
ss(g170
g16
g184
tp984
(dp985
g36
I2
ss(S'THEAETETUS'
S'SOCRATES'
g226
tp986
(dp987
S'SOCRATES'
p988
I4
ss(g653
g284
g79
tp989
(dp990
S'\x00'
I1
sg239
I1
ss(g427
g397
g75
tp991
(dp992
g400
I4
ss(S'PHAEDRUS'
S'.'
S'\x00'
tp993
(dp994
S'\x00'
I1
ss(g510
g11
g145
tp995
(dp996
g61
I1
ss(g734
g529
g305
tp997
(dp998
S'CALLICLES'
p999
I1
ss(g129
g80
g229
tp1000
(dp1001
S'EUTHYPHRO'
p1002
I112
ss(g184
g36
g77
tp1003
(dp1004
g490
I283
sg491
I1
sg492
I2
ss(g369
g74
g177
tp1005
(dp1006
g328
I1
sg329
I7
sg330
I50
ss(g287
g520
g253
tp1007
(dp1008
g741
I1
ss(g161
g38
g20
tp1009
(dp1010
g175
I1
ss(S' '
g37
g167
tp1011
(dp1012
g166
I1
ss(g73
g157
g427
tp1013
(dp1014
g397
I86
sg458
I1
ss(S'SOCRATES'
g493
g76
tp1015
(dp1016
g148
I1
ss(g153
g82
g199
tp1017
(dp1018
S'CALLICLES'
p1019
I19
sg8
I2
ss(g102
g73
g157
tp1020
(dp1021
g75
I4
sg427
I87
ss(g74
g177
g330
tp1022
(dp1023
g597
I53
ss(g397
g75
g400
tp1024
(dp1025
g529
I1
sg530
I1
sg531
I194
sS'GORGIAS'
p1026
I3
ss(g893
g600
g198
tp1027
(dp1028
S'SOCRATES'
p1029
I1
ss(S' '
g29
g161
tp1030
(dp1031
g38
I1
ss(g175
g163
g176
tp1032
(dp1033
g121
I1
ss(g37
g167
g166
tp1034
(dp1035
g84
I3
ss(S'.'
S'SOCRATES'
g408
tp1036
(dp1037
S'PHAEDRUS'
p1038
I2
ssatRp1039
(dp1040
S'order'
p1041
I3
sb.